
build/release/hall_effect_sensor_fsm.elf:     file format elf32-littlearm

Sections:
Idx Name          Size      VMA       LMA       File off  Algn
  0 .isr_vector   000000c0  08000000  08000000  00001000  2**0
                  CONTENTS, ALLOC, LOAD, READONLY, DATA
  1 .text         00002e34  080000c0  080000c0  000010c0  2**2
                  CONTENTS, ALLOC, LOAD, READONLY, CODE
  2 .rodata       000000c8  08002ef4  08002ef4  00003ef4  2**2
                  CONTENTS, ALLOC, LOAD, READONLY, DATA
  3 .ARM.extab    00000000  08002fbc  08002fbc  0000405c  2**0
                  CONTENTS, READONLY
  4 .ARM          00000000  08002fbc  08002fbc  0000405c  2**0
                  CONTENTS, READONLY
  5 .preinit_array 00000000  08002fbc  08002fbc  0000405c  2**0
                  CONTENTS, ALLOC, LOAD, DATA
  6 .init_array   00000004  08002fbc  08002fbc  00003fbc  2**2
                  CONTENTS, ALLOC, LOAD, READONLY, DATA
  7 .fini_array   00000004  08002fc0  08002fc0  00003fc0  2**2
                  CONTENTS, ALLOC, LOAD, READONLY, DATA
  8 .data         0000005c  20000000  08002fc4  00004000  2**2
                  CONTENTS, ALLOC, LOAD, DATA
  9 .bss          0000034c  2000005c  08003020  0000405c  2**2
                  ALLOC
 10 ._user_heap_stack 00000600  200003a8  08003020  000043a8  2**0
                  ALLOC
 11 .ARM.attributes 00000028  00000000  00000000  0000405c  2**0
                  CONTENTS, READONLY
 12 .comment      00000038  00000000  00000000  00004084  2**0
                  CONTENTS, READONLY

Disassembly of section .text:

080000c0 <strlen>:
 80000c0:	2300      	movs	r3, #0
 80000c2:	5cc2      	ldrb	r2, [r0, r3]
 80000c4:	3301      	adds	r3, #1
 80000c6:	2a00      	cmp	r2, #0
 80000c8:	d1fb      	bne.n	80000c2 <strlen+0x2>
 80000ca:	1e58      	subs	r0, r3, #1
 80000cc:	4770      	bx	lr
	...

080000d0 <__gnu_thumb1_case_shi>:
 80000d0:	b403      	push	{r0, r1}
 80000d2:	4671      	mov	r1, lr
 80000d4:	0849      	lsrs	r1, r1, #1
 80000d6:	0040      	lsls	r0, r0, #1
 80000d8:	0049      	lsls	r1, r1, #1
 80000da:	5e09      	ldrsh	r1, [r1, r0]
 80000dc:	0049      	lsls	r1, r1, #1
 80000de:	448e      	add	lr, r1
 80000e0:	bc03      	pop	{r0, r1}
 80000e2:	4770      	bx	lr

080000e4 <__udivsi3>:
 80000e4:	2200      	movs	r2, #0
 80000e6:	0843      	lsrs	r3, r0, #1
 80000e8:	428b      	cmp	r3, r1
 80000ea:	d374      	bcc.n	80001d6 <__udivsi3+0xf2>
 80000ec:	0903      	lsrs	r3, r0, #4
 80000ee:	428b      	cmp	r3, r1
 80000f0:	d35f      	bcc.n	80001b2 <__udivsi3+0xce>
 80000f2:	0a03      	lsrs	r3, r0, #8
 80000f4:	428b      	cmp	r3, r1
 80000f6:	d344      	bcc.n	8000182 <__udivsi3+0x9e>
 80000f8:	0b03      	lsrs	r3, r0, #12
 80000fa:	428b      	cmp	r3, r1
 80000fc:	d328      	bcc.n	8000150 <__udivsi3+0x6c>
 80000fe:	0c03      	lsrs	r3, r0, #16
 8000100:	428b      	cmp	r3, r1
 8000102:	d30d      	bcc.n	8000120 <__udivsi3+0x3c>
 8000104:	22ff      	movs	r2, #255	@ 0xff
 8000106:	0209      	lsls	r1, r1, #8
 8000108:	ba12      	rev	r2, r2
 800010a:	0c03      	lsrs	r3, r0, #16
 800010c:	428b      	cmp	r3, r1
 800010e:	d302      	bcc.n	8000116 <__udivsi3+0x32>
 8000110:	1212      	asrs	r2, r2, #8
 8000112:	0209      	lsls	r1, r1, #8
 8000114:	d065      	beq.n	80001e2 <__udivsi3+0xfe>
 8000116:	0b03      	lsrs	r3, r0, #12
 8000118:	428b      	cmp	r3, r1
 800011a:	d319      	bcc.n	8000150 <__udivsi3+0x6c>
 800011c:	e000      	b.n	8000120 <__udivsi3+0x3c>
 800011e:	0a09      	lsrs	r1, r1, #8
 8000120:	0bc3      	lsrs	r3, r0, #15
 8000122:	428b      	cmp	r3, r1
 8000124:	d301      	bcc.n	800012a <__udivsi3+0x46>
 8000126:	03cb      	lsls	r3, r1, #15
 8000128:	1ac0      	subs	r0, r0, r3
 800012a:	4152      	adcs	r2, r2
 800012c:	0b83      	lsrs	r3, r0, #14
 800012e:	428b      	cmp	r3, r1
 8000130:	d301      	bcc.n	8000136 <__udivsi3+0x52>
 8000132:	038b      	lsls	r3, r1, #14
 8000134:	1ac0      	subs	r0, r0, r3
 8000136:	4152      	adcs	r2, r2
 8000138:	0b43      	lsrs	r3, r0, #13
 800013a:	428b      	cmp	r3, r1
 800013c:	d301      	bcc.n	8000142 <__udivsi3+0x5e>
 800013e:	034b      	lsls	r3, r1, #13
 8000140:	1ac0      	subs	r0, r0, r3
 8000142:	4152      	adcs	r2, r2
 8000144:	0b03      	lsrs	r3, r0, #12
 8000146:	428b      	cmp	r3, r1
 8000148:	d301      	bcc.n	800014e <__udivsi3+0x6a>
 800014a:	030b      	lsls	r3, r1, #12
 800014c:	1ac0      	subs	r0, r0, r3
 800014e:	4152      	adcs	r2, r2
 8000150:	0ac3      	lsrs	r3, r0, #11
 8000152:	428b      	cmp	r3, r1
 8000154:	d301      	bcc.n	800015a <__udivsi3+0x76>
 8000156:	02cb      	lsls	r3, r1, #11
 8000158:	1ac0      	subs	r0, r0, r3
 800015a:	4152      	adcs	r2, r2
 800015c:	0a83      	lsrs	r3, r0, #10
 800015e:	428b      	cmp	r3, r1
 8000160:	d301      	bcc.n	8000166 <__udivsi3+0x82>
 8000162:	028b      	lsls	r3, r1, #10
 8000164:	1ac0      	subs	r0, r0, r3
 8000166:	4152      	adcs	r2, r2
 8000168:	0a43      	lsrs	r3, r0, #9
 800016a:	428b      	cmp	r3, r1
 800016c:	d301      	bcc.n	8000172 <__udivsi3+0x8e>
 800016e:	024b      	lsls	r3, r1, #9
 8000170:	1ac0      	subs	r0, r0, r3
 8000172:	4152      	adcs	r2, r2
 8000174:	0a03      	lsrs	r3, r0, #8
 8000176:	428b      	cmp	r3, r1
 8000178:	d301      	bcc.n	800017e <__udivsi3+0x9a>
 800017a:	020b      	lsls	r3, r1, #8
 800017c:	1ac0      	subs	r0, r0, r3
 800017e:	4152      	adcs	r2, r2
 8000180:	d2cd      	bcs.n	800011e <__udivsi3+0x3a>
 8000182:	09c3      	lsrs	r3, r0, #7
 8000184:	428b      	cmp	r3, r1
 8000186:	d301      	bcc.n	800018c <__udivsi3+0xa8>
 8000188:	01cb      	lsls	r3, r1, #7
 800018a:	1ac0      	subs	r0, r0, r3
 800018c:	4152      	adcs	r2, r2
 800018e:	0983      	lsrs	r3, r0, #6
 8000190:	428b      	cmp	r3, r1
 8000192:	d301      	bcc.n	8000198 <__udivsi3+0xb4>
 8000194:	018b      	lsls	r3, r1, #6
 8000196:	1ac0      	subs	r0, r0, r3
 8000198:	4152      	adcs	r2, r2
 800019a:	0943      	lsrs	r3, r0, #5
 800019c:	428b      	cmp	r3, r1
 800019e:	d301      	bcc.n	80001a4 <__udivsi3+0xc0>
 80001a0:	014b      	lsls	r3, r1, #5
 80001a2:	1ac0      	subs	r0, r0, r3
 80001a4:	4152      	adcs	r2, r2
 80001a6:	0903      	lsrs	r3, r0, #4
 80001a8:	428b      	cmp	r3, r1
 80001aa:	d301      	bcc.n	80001b0 <__udivsi3+0xcc>
 80001ac:	010b      	lsls	r3, r1, #4
 80001ae:	1ac0      	subs	r0, r0, r3
 80001b0:	4152      	adcs	r2, r2
 80001b2:	08c3      	lsrs	r3, r0, #3
 80001b4:	428b      	cmp	r3, r1
 80001b6:	d301      	bcc.n	80001bc <__udivsi3+0xd8>
 80001b8:	00cb      	lsls	r3, r1, #3
 80001ba:	1ac0      	subs	r0, r0, r3
 80001bc:	4152      	adcs	r2, r2
 80001be:	0883      	lsrs	r3, r0, #2
 80001c0:	428b      	cmp	r3, r1
 80001c2:	d301      	bcc.n	80001c8 <__udivsi3+0xe4>
 80001c4:	008b      	lsls	r3, r1, #2
 80001c6:	1ac0      	subs	r0, r0, r3
 80001c8:	4152      	adcs	r2, r2
 80001ca:	0843      	lsrs	r3, r0, #1
 80001cc:	428b      	cmp	r3, r1
 80001ce:	d301      	bcc.n	80001d4 <__udivsi3+0xf0>
 80001d0:	004b      	lsls	r3, r1, #1
 80001d2:	1ac0      	subs	r0, r0, r3
 80001d4:	4152      	adcs	r2, r2
 80001d6:	1a41      	subs	r1, r0, r1
 80001d8:	d200      	bcs.n	80001dc <__udivsi3+0xf8>
 80001da:	4601      	mov	r1, r0
 80001dc:	4152      	adcs	r2, r2
 80001de:	4610      	mov	r0, r2
 80001e0:	4770      	bx	lr
 80001e2:	e7ff      	b.n	80001e4 <__udivsi3+0x100>
 80001e4:	b501      	push	{r0, lr}
 80001e6:	2000      	movs	r0, #0
 80001e8:	f000 f8f0 	bl	80003cc <__aeabi_idiv0>
 80001ec:	bd02      	pop	{r1, pc}
 80001ee:	46c0      	nop			@ (mov r8, r8)

080001f0 <__aeabi_uidivmod>:
 80001f0:	2900      	cmp	r1, #0
 80001f2:	d0f7      	beq.n	80001e4 <__udivsi3+0x100>
 80001f4:	e776      	b.n	80000e4 <__udivsi3>
 80001f6:	4770      	bx	lr

080001f8 <__divsi3>:
 80001f8:	4603      	mov	r3, r0
 80001fa:	430b      	orrs	r3, r1
 80001fc:	d47f      	bmi.n	80002fe <__divsi3+0x106>
 80001fe:	2200      	movs	r2, #0
 8000200:	0843      	lsrs	r3, r0, #1
 8000202:	428b      	cmp	r3, r1
 8000204:	d374      	bcc.n	80002f0 <__divsi3+0xf8>
 8000206:	0903      	lsrs	r3, r0, #4
 8000208:	428b      	cmp	r3, r1
 800020a:	d35f      	bcc.n	80002cc <__divsi3+0xd4>
 800020c:	0a03      	lsrs	r3, r0, #8
 800020e:	428b      	cmp	r3, r1
 8000210:	d344      	bcc.n	800029c <__divsi3+0xa4>
 8000212:	0b03      	lsrs	r3, r0, #12
 8000214:	428b      	cmp	r3, r1
 8000216:	d328      	bcc.n	800026a <__divsi3+0x72>
 8000218:	0c03      	lsrs	r3, r0, #16
 800021a:	428b      	cmp	r3, r1
 800021c:	d30d      	bcc.n	800023a <__divsi3+0x42>
 800021e:	22ff      	movs	r2, #255	@ 0xff
 8000220:	0209      	lsls	r1, r1, #8
 8000222:	ba12      	rev	r2, r2
 8000224:	0c03      	lsrs	r3, r0, #16
 8000226:	428b      	cmp	r3, r1
 8000228:	d302      	bcc.n	8000230 <__divsi3+0x38>
 800022a:	1212      	asrs	r2, r2, #8
 800022c:	0209      	lsls	r1, r1, #8
 800022e:	d065      	beq.n	80002fc <__divsi3+0x104>
 8000230:	0b03      	lsrs	r3, r0, #12
 8000232:	428b      	cmp	r3, r1
 8000234:	d319      	bcc.n	800026a <__divsi3+0x72>
 8000236:	e000      	b.n	800023a <__divsi3+0x42>
 8000238:	0a09      	lsrs	r1, r1, #8
 800023a:	0bc3      	lsrs	r3, r0, #15
 800023c:	428b      	cmp	r3, r1
 800023e:	d301      	bcc.n	8000244 <__divsi3+0x4c>
 8000240:	03cb      	lsls	r3, r1, #15
 8000242:	1ac0      	subs	r0, r0, r3
 8000244:	4152      	adcs	r2, r2
 8000246:	0b83      	lsrs	r3, r0, #14
 8000248:	428b      	cmp	r3, r1
 800024a:	d301      	bcc.n	8000250 <__divsi3+0x58>
 800024c:	038b      	lsls	r3, r1, #14
 800024e:	1ac0      	subs	r0, r0, r3
 8000250:	4152      	adcs	r2, r2
 8000252:	0b43      	lsrs	r3, r0, #13
 8000254:	428b      	cmp	r3, r1
 8000256:	d301      	bcc.n	800025c <__divsi3+0x64>
 8000258:	034b      	lsls	r3, r1, #13
 800025a:	1ac0      	subs	r0, r0, r3
 800025c:	4152      	adcs	r2, r2
 800025e:	0b03      	lsrs	r3, r0, #12
 8000260:	428b      	cmp	r3, r1
 8000262:	d301      	bcc.n	8000268 <__divsi3+0x70>
 8000264:	030b      	lsls	r3, r1, #12
 8000266:	1ac0      	subs	r0, r0, r3
 8000268:	4152      	adcs	r2, r2
 800026a:	0ac3      	lsrs	r3, r0, #11
 800026c:	428b      	cmp	r3, r1
 800026e:	d301      	bcc.n	8000274 <__divsi3+0x7c>
 8000270:	02cb      	lsls	r3, r1, #11
 8000272:	1ac0      	subs	r0, r0, r3
 8000274:	4152      	adcs	r2, r2
 8000276:	0a83      	lsrs	r3, r0, #10
 8000278:	428b      	cmp	r3, r1
 800027a:	d301      	bcc.n	8000280 <__divsi3+0x88>
 800027c:	028b      	lsls	r3, r1, #10
 800027e:	1ac0      	subs	r0, r0, r3
 8000280:	4152      	adcs	r2, r2
 8000282:	0a43      	lsrs	r3, r0, #9
 8000284:	428b      	cmp	r3, r1
 8000286:	d301      	bcc.n	800028c <__divsi3+0x94>
 8000288:	024b      	lsls	r3, r1, #9
 800028a:	1ac0      	subs	r0, r0, r3
 800028c:	4152      	adcs	r2, r2
 800028e:	0a03      	lsrs	r3, r0, #8
 8000290:	428b      	cmp	r3, r1
 8000292:	d301      	bcc.n	8000298 <__divsi3+0xa0>
 8000294:	020b      	lsls	r3, r1, #8
 8000296:	1ac0      	subs	r0, r0, r3
 8000298:	4152      	adcs	r2, r2
 800029a:	d2cd      	bcs.n	8000238 <__divsi3+0x40>
 800029c:	09c3      	lsrs	r3, r0, #7
 800029e:	428b      	cmp	r3, r1
 80002a0:	d301      	bcc.n	80002a6 <__divsi3+0xae>
 80002a2:	01cb      	lsls	r3, r1, #7
 80002a4:	1ac0      	subs	r0, r0, r3
 80002a6:	4152      	adcs	r2, r2
 80002a8:	0983      	lsrs	r3, r0, #6
 80002aa:	428b      	cmp	r3, r1
 80002ac:	d301      	bcc.n	80002b2 <__divsi3+0xba>
 80002ae:	018b      	lsls	r3, r1, #6
 80002b0:	1ac0      	subs	r0, r0, r3
 80002b2:	4152      	adcs	r2, r2
 80002b4:	0943      	lsrs	r3, r0, #5
 80002b6:	428b      	cmp	r3, r1
 80002b8:	d301      	bcc.n	80002be <__divsi3+0xc6>
 80002ba:	014b      	lsls	r3, r1, #5
 80002bc:	1ac0      	subs	r0, r0, r3
 80002be:	4152      	adcs	r2, r2
 80002c0:	0903      	lsrs	r3, r0, #4
 80002c2:	428b      	cmp	r3, r1
 80002c4:	d301      	bcc.n	80002ca <__divsi3+0xd2>
 80002c6:	010b      	lsls	r3, r1, #4
 80002c8:	1ac0      	subs	r0, r0, r3
 80002ca:	4152      	adcs	r2, r2
 80002cc:	08c3      	lsrs	r3, r0, #3
 80002ce:	428b      	cmp	r3, r1
 80002d0:	d301      	bcc.n	80002d6 <__divsi3+0xde>
 80002d2:	00cb      	lsls	r3, r1, #3
 80002d4:	1ac0      	subs	r0, r0, r3
 80002d6:	4152      	adcs	r2, r2
 80002d8:	0883      	lsrs	r3, r0, #2
 80002da:	428b      	cmp	r3, r1
 80002dc:	d301      	bcc.n	80002e2 <__divsi3+0xea>
 80002de:	008b      	lsls	r3, r1, #2
 80002e0:	1ac0      	subs	r0, r0, r3
 80002e2:	4152      	adcs	r2, r2
 80002e4:	0843      	lsrs	r3, r0, #1
 80002e6:	428b      	cmp	r3, r1
 80002e8:	d301      	bcc.n	80002ee <__divsi3+0xf6>
 80002ea:	004b      	lsls	r3, r1, #1
 80002ec:	1ac0      	subs	r0, r0, r3
 80002ee:	4152      	adcs	r2, r2
 80002f0:	1a41      	subs	r1, r0, r1
 80002f2:	d200      	bcs.n	80002f6 <__divsi3+0xfe>
 80002f4:	4601      	mov	r1, r0
 80002f6:	4152      	adcs	r2, r2
 80002f8:	4610      	mov	r0, r2
 80002fa:	4770      	bx	lr
 80002fc:	e05d      	b.n	80003ba <__divsi3+0x1c2>
 80002fe:	0fca      	lsrs	r2, r1, #31
 8000300:	d000      	beq.n	8000304 <__divsi3+0x10c>
 8000302:	4249      	negs	r1, r1
 8000304:	1003      	asrs	r3, r0, #32
 8000306:	d300      	bcc.n	800030a <__divsi3+0x112>
 8000308:	4240      	negs	r0, r0
 800030a:	4053      	eors	r3, r2
 800030c:	2200      	movs	r2, #0
 800030e:	469c      	mov	ip, r3
 8000310:	0903      	lsrs	r3, r0, #4
 8000312:	428b      	cmp	r3, r1
 8000314:	d32d      	bcc.n	8000372 <__divsi3+0x17a>
 8000316:	0a03      	lsrs	r3, r0, #8
 8000318:	428b      	cmp	r3, r1
 800031a:	d312      	bcc.n	8000342 <__divsi3+0x14a>
 800031c:	22fc      	movs	r2, #252	@ 0xfc
 800031e:	0189      	lsls	r1, r1, #6
 8000320:	ba12      	rev	r2, r2
 8000322:	0a03      	lsrs	r3, r0, #8
 8000324:	428b      	cmp	r3, r1
 8000326:	d30c      	bcc.n	8000342 <__divsi3+0x14a>
 8000328:	0189      	lsls	r1, r1, #6
 800032a:	1192      	asrs	r2, r2, #6
 800032c:	428b      	cmp	r3, r1
 800032e:	d308      	bcc.n	8000342 <__divsi3+0x14a>
 8000330:	0189      	lsls	r1, r1, #6
 8000332:	1192      	asrs	r2, r2, #6
 8000334:	428b      	cmp	r3, r1
 8000336:	d304      	bcc.n	8000342 <__divsi3+0x14a>
 8000338:	0189      	lsls	r1, r1, #6
 800033a:	d03a      	beq.n	80003b2 <__divsi3+0x1ba>
 800033c:	1192      	asrs	r2, r2, #6
 800033e:	e000      	b.n	8000342 <__divsi3+0x14a>
 8000340:	0989      	lsrs	r1, r1, #6
 8000342:	09c3      	lsrs	r3, r0, #7
 8000344:	428b      	cmp	r3, r1
 8000346:	d301      	bcc.n	800034c <__divsi3+0x154>
 8000348:	01cb      	lsls	r3, r1, #7
 800034a:	1ac0      	subs	r0, r0, r3
 800034c:	4152      	adcs	r2, r2
 800034e:	0983      	lsrs	r3, r0, #6
 8000350:	428b      	cmp	r3, r1
 8000352:	d301      	bcc.n	8000358 <__divsi3+0x160>
 8000354:	018b      	lsls	r3, r1, #6
 8000356:	1ac0      	subs	r0, r0, r3
 8000358:	4152      	adcs	r2, r2
 800035a:	0943      	lsrs	r3, r0, #5
 800035c:	428b      	cmp	r3, r1
 800035e:	d301      	bcc.n	8000364 <__divsi3+0x16c>
 8000360:	014b      	lsls	r3, r1, #5
 8000362:	1ac0      	subs	r0, r0, r3
 8000364:	4152      	adcs	r2, r2
 8000366:	0903      	lsrs	r3, r0, #4
 8000368:	428b      	cmp	r3, r1
 800036a:	d301      	bcc.n	8000370 <__divsi3+0x178>
 800036c:	010b      	lsls	r3, r1, #4
 800036e:	1ac0      	subs	r0, r0, r3
 8000370:	4152      	adcs	r2, r2
 8000372:	08c3      	lsrs	r3, r0, #3
 8000374:	428b      	cmp	r3, r1
 8000376:	d301      	bcc.n	800037c <__divsi3+0x184>
 8000378:	00cb      	lsls	r3, r1, #3
 800037a:	1ac0      	subs	r0, r0, r3
 800037c:	4152      	adcs	r2, r2
 800037e:	0883      	lsrs	r3, r0, #2
 8000380:	428b      	cmp	r3, r1
 8000382:	d301      	bcc.n	8000388 <__divsi3+0x190>
 8000384:	008b      	lsls	r3, r1, #2
 8000386:	1ac0      	subs	r0, r0, r3
 8000388:	4152      	adcs	r2, r2
 800038a:	d2d9      	bcs.n	8000340 <__divsi3+0x148>
 800038c:	0843      	lsrs	r3, r0, #1
 800038e:	428b      	cmp	r3, r1
 8000390:	d301      	bcc.n	8000396 <__divsi3+0x19e>
 8000392:	004b      	lsls	r3, r1, #1
 8000394:	1ac0      	subs	r0, r0, r3
 8000396:	4152      	adcs	r2, r2
 8000398:	1a41      	subs	r1, r0, r1
 800039a:	d200      	bcs.n	800039e <__divsi3+0x1a6>
 800039c:	4601      	mov	r1, r0
 800039e:	4663      	mov	r3, ip
 80003a0:	4152      	adcs	r2, r2
 80003a2:	105b      	asrs	r3, r3, #1
 80003a4:	4610      	mov	r0, r2
 80003a6:	d301      	bcc.n	80003ac <__divsi3+0x1b4>
 80003a8:	4240      	negs	r0, r0
 80003aa:	2b00      	cmp	r3, #0
 80003ac:	d500      	bpl.n	80003b0 <__divsi3+0x1b8>
 80003ae:	4249      	negs	r1, r1
 80003b0:	4770      	bx	lr
 80003b2:	4663      	mov	r3, ip
 80003b4:	105b      	asrs	r3, r3, #1
 80003b6:	d300      	bcc.n	80003ba <__divsi3+0x1c2>
 80003b8:	4240      	negs	r0, r0
 80003ba:	b501      	push	{r0, lr}
 80003bc:	2000      	movs	r0, #0
 80003be:	f000 f805 	bl	80003cc <__aeabi_idiv0>
 80003c2:	bd02      	pop	{r1, pc}

080003c4 <__aeabi_idivmod>:
 80003c4:	2900      	cmp	r1, #0
 80003c6:	d0f8      	beq.n	80003ba <__divsi3+0x1c2>
 80003c8:	e716      	b.n	80001f8 <__divsi3>
 80003ca:	4770      	bx	lr

080003cc <__aeabi_idiv0>:
 80003cc:	4770      	bx	lr
 80003ce:	46c0      	nop			@ (mov r8, r8)

080003d0 <__do_global_dtors_aux>:
 80003d0:	b510      	push	{r4, lr}
 80003d2:	4c06      	ldr	r4, [pc, #24]	@ (80003ec <__do_global_dtors_aux+0x1c>)
 80003d4:	7823      	ldrb	r3, [r4, #0]
 80003d6:	2b00      	cmp	r3, #0
 80003d8:	d107      	bne.n	80003ea <__do_global_dtors_aux+0x1a>
 80003da:	4b05      	ldr	r3, [pc, #20]	@ (80003f0 <__do_global_dtors_aux+0x20>)
 80003dc:	2b00      	cmp	r3, #0
 80003de:	d002      	beq.n	80003e6 <__do_global_dtors_aux+0x16>
 80003e0:	4804      	ldr	r0, [pc, #16]	@ (80003f4 <__do_global_dtors_aux+0x24>)
 80003e2:	e000      	b.n	80003e6 <__do_global_dtors_aux+0x16>
 80003e4:	bf00      	nop
 80003e6:	2301      	movs	r3, #1
 80003e8:	7023      	strb	r3, [r4, #0]
 80003ea:	bd10      	pop	{r4, pc}
 80003ec:	2000005c 	.word	0x2000005c
 80003f0:	00000000 	.word	0x00000000
 80003f4:	08002edc 	.word	0x08002edc

080003f8 <frame_dummy>:
 80003f8:	4b04      	ldr	r3, [pc, #16]	@ (800040c <frame_dummy+0x14>)
 80003fa:	b510      	push	{r4, lr}
 80003fc:	2b00      	cmp	r3, #0
 80003fe:	d003      	beq.n	8000408 <frame_dummy+0x10>
 8000400:	4903      	ldr	r1, [pc, #12]	@ (8000410 <frame_dummy+0x18>)
 8000402:	4804      	ldr	r0, [pc, #16]	@ (8000414 <frame_dummy+0x1c>)
 8000404:	e000      	b.n	8000408 <frame_dummy+0x10>
 8000406:	bf00      	nop
 8000408:	bd10      	pop	{r4, pc}
 800040a:	46c0      	nop			@ (mov r8, r8)
 800040c:	00000000 	.word	0x00000000
 8000410:	20000060 	.word	0x20000060
 8000414:	08002edc 	.word	0x08002edc

08000418 <MX_GPIO_Init>:
 8000418:	b510      	push	{r4, lr}
 800041a:	b088      	sub	sp, #32
 800041c:	ac03      	add	r4, sp, #12
 800041e:	2214      	movs	r2, #20
 8000420:	2100      	movs	r1, #0
 8000422:	0020      	movs	r0, r4
 8000424:	f002 f8d6 	bl	80025d4 <memset>
 8000428:	4b10      	ldr	r3, [pc, #64]	@ (800046c <MX_GPIO_Init+0x54>)
 800042a:	6b59      	ldr	r1, [r3, #52]	@ 0x34
 800042c:	2204      	movs	r2, #4
 800042e:	4311      	orrs	r1, r2
 8000430:	6359      	str	r1, [r3, #52]	@ 0x34
 8000432:	6b59      	ldr	r1, [r3, #52]	@ 0x34
 8000434:	400a      	ands	r2, r1
 8000436:	9200      	str	r2, [sp, #0]
 8000438:	9a00      	ldr	r2, [sp, #0]
 800043a:	6b59      	ldr	r1, [r3, #52]	@ 0x34
 800043c:	2220      	movs	r2, #32
 800043e:	4311      	orrs	r1, r2
 8000440:	6359      	str	r1, [r3, #52]	@ 0x34
 8000442:	6b59      	ldr	r1, [r3, #52]	@ 0x34
 8000444:	400a      	ands	r2, r1
 8000446:	9201      	str	r2, [sp, #4]
 8000448:	9a01      	ldr	r2, [sp, #4]
 800044a:	6b59      	ldr	r1, [r3, #52]	@ 0x34
 800044c:	2201      	movs	r2, #1
 800044e:	4311      	orrs	r1, r2
 8000450:	6359      	str	r1, [r3, #52]	@ 0x34
 8000452:	6b5b      	ldr	r3, [r3, #52]	@ 0x34
 8000454:	4013      	ands	r3, r2
 8000456:	9302      	str	r3, [sp, #8]
 8000458:	9b02      	ldr	r3, [sp, #8]
 800045a:	9203      	str	r2, [sp, #12]
 800045c:	9205      	str	r2, [sp, #20]
 800045e:	20a0      	movs	r0, #160	@ 0xa0
 8000460:	0021      	movs	r1, r4
 8000462:	05c0      	lsls	r0, r0, #23
 8000464:	f000 ffe2 	bl	800142c <HAL_GPIO_Init>
 8000468:	b008      	add	sp, #32
 800046a:	bd10      	pop	{r4, pc}
 800046c:	40021000 	.word	0x40021000

08000470 <MX_DMA_Init>:
 8000470:	b500      	push	{lr}
 8000472:	b083      	sub	sp, #12
 8000474:	4a09      	ldr	r2, [pc, #36]	@ (800049c <MX_DMA_Init+0x2c>)
 8000476:	6b91      	ldr	r1, [r2, #56]	@ 0x38
 8000478:	2301      	movs	r3, #1
 800047a:	4319      	orrs	r1, r3
 800047c:	6391      	str	r1, [r2, #56]	@ 0x38
 800047e:	6b92      	ldr	r2, [r2, #56]	@ 0x38
 8000480:	4013      	ands	r3, r2
 8000482:	9301      	str	r3, [sp, #4]
 8000484:	9b01      	ldr	r3, [sp, #4]
 8000486:	2200      	movs	r2, #0
 8000488:	2100      	movs	r1, #0
 800048a:	2009      	movs	r0, #9
 800048c:	f000 fe1a 	bl	80010c4 <HAL_NVIC_SetPriority>
 8000490:	2009      	movs	r0, #9
 8000492:	f000 fe1b 	bl	80010cc <HAL_NVIC_EnableIRQ>
 8000496:	b003      	add	sp, #12
 8000498:	bd00      	pop	{pc}
 800049a:	46c0      	nop			@ (mov r8, r8)
 800049c:	40021000 	.word	0x40021000

080004a0 <toMilliVolt>:
 80004a0:	b510      	push	{r4, lr}
 80004a2:	4b03      	ldr	r3, [pc, #12]	@ (80004b0 <toMilliVolt+0x10>)
 80004a4:	4358      	muls	r0, r3
 80004a6:	4903      	ldr	r1, [pc, #12]	@ (80004b4 <toMilliVolt+0x14>)
 80004a8:	f7ff fea6 	bl	80001f8 <__divsi3>
 80004ac:	b280      	uxth	r0, r0
 80004ae:	bd10      	pop	{r4, pc}
 80004b0:	00001388 	.word	0x00001388
 80004b4:	00000fff 	.word	0x00000fff

080004b8 <HAL_ADC_ConvCpltCallback>:
 80004b8:	b530      	push	{r4, r5, lr}
 80004ba:	b093      	sub	sp, #76	@ 0x4c
 80004bc:	6802      	ldr	r2, [r0, #0]
 80004be:	4b11      	ldr	r3, [pc, #68]	@ (8000504 <HAL_ADC_ConvCpltCallback+0x4c>)
 80004c0:	429a      	cmp	r2, r3
 80004c2:	d001      	beq.n	80004c8 <HAL_ADC_ConvCpltCallback+0x10>
 80004c4:	b013      	add	sp, #76	@ 0x4c
 80004c6:	bd30      	pop	{r4, r5, pc}
 80004c8:	4b0f      	ldr	r3, [pc, #60]	@ (8000508 <HAL_ADC_ConvCpltCallback+0x50>)
 80004ca:	881c      	ldrh	r4, [r3, #0]
 80004cc:	20a0      	movs	r0, #160	@ 0xa0
 80004ce:	2101      	movs	r1, #1
 80004d0:	05c0      	lsls	r0, r0, #23
 80004d2:	f001 f889 	bl	80015e8 <HAL_GPIO_ReadPin>
 80004d6:	0005      	movs	r5, r0
 80004d8:	0020      	movs	r0, r4
 80004da:	f7ff ffe1 	bl	80004a0 <toMilliVolt>
 80004de:	0003      	movs	r3, r0
 80004e0:	4a0a      	ldr	r2, [pc, #40]	@ (800050c <HAL_ADC_ConvCpltCallback+0x54>)
 80004e2:	ac02      	add	r4, sp, #8
 80004e4:	9500      	str	r5, [sp, #0]
 80004e6:	2140      	movs	r1, #64	@ 0x40
 80004e8:	0020      	movs	r0, r4
 80004ea:	f002 f83f 	bl	800256c <sniprintf>
 80004ee:	0020      	movs	r0, r4
 80004f0:	f7ff fde6 	bl	80000c0 <strlen>
 80004f4:	2301      	movs	r3, #1
 80004f6:	b282      	uxth	r2, r0
 80004f8:	4805      	ldr	r0, [pc, #20]	@ (8000510 <HAL_ADC_ConvCpltCallback+0x58>)
 80004fa:	425b      	negs	r3, r3
 80004fc:	0021      	movs	r1, r4
 80004fe:	f001 fe0e 	bl	800211e <HAL_UART_Transmit>
 8000502:	e7df      	b.n	80004c4 <HAL_ADC_ConvCpltCallback+0xc>
 8000504:	40012400 	.word	0x40012400
 8000508:	20000078 	.word	0x20000078
 800050c:	08002ef4 	.word	0x08002ef4
 8000510:	200000f8 	.word	0x200000f8

08000514 <Error_Handler>:
 8000514:	b510      	push	{r4, lr}
 8000516:	b082      	sub	sp, #8
 8000518:	b672      	cpsid	i
 800051a:	4b07      	ldr	r3, [pc, #28]	@ (8000538 <Error_Handler+0x24>)
 800051c:	466a      	mov	r2, sp
 800051e:	cb03      	ldmia	r3!, {r0, r1}
 8000520:	c203      	stmia	r2!, {r0, r1}
 8000522:	4668      	mov	r0, sp
 8000524:	f7ff fdcc 	bl	80000c0 <strlen>
 8000528:	2301      	movs	r3, #1
 800052a:	b282      	uxth	r2, r0
 800052c:	4803      	ldr	r0, [pc, #12]	@ (800053c <Error_Handler+0x28>)
 800052e:	425b      	negs	r3, r3
 8000530:	4669      	mov	r1, sp
 8000532:	f001 fdf4 	bl	800211e <HAL_UART_Transmit>
 8000536:	e7f0      	b.n	800051a <Error_Handler+0x6>
 8000538:	08002efc 	.word	0x08002efc
 800053c:	200000f8 	.word	0x200000f8

08000540 <MX_ADC1_Init>:
 8000540:	b500      	push	{lr}
 8000542:	b085      	sub	sp, #20
 8000544:	220c      	movs	r2, #12
 8000546:	2100      	movs	r1, #0
 8000548:	a801      	add	r0, sp, #4
 800054a:	f002 f843 	bl	80025d4 <memset>
 800054e:	4818      	ldr	r0, [pc, #96]	@ (80005b0 <MX_ADC1_Init+0x70>)
 8000550:	4b18      	ldr	r3, [pc, #96]	@ (80005b4 <MX_ADC1_Init+0x74>)
 8000552:	6003      	str	r3, [r0, #0]
 8000554:	2380      	movs	r3, #128	@ 0x80
 8000556:	05db      	lsls	r3, r3, #23
 8000558:	6043      	str	r3, [r0, #4]
 800055a:	2300      	movs	r3, #0
 800055c:	6083      	str	r3, [r0, #8]
 800055e:	60c3      	str	r3, [r0, #12]
 8000560:	2280      	movs	r2, #128	@ 0x80
 8000562:	0612      	lsls	r2, r2, #24
 8000564:	6102      	str	r2, [r0, #16]
 8000566:	2204      	movs	r2, #4
 8000568:	6142      	str	r2, [r0, #20]
 800056a:	7603      	strb	r3, [r0, #24]
 800056c:	7643      	strb	r3, [r0, #25]
 800056e:	3a03      	subs	r2, #3
 8000570:	7682      	strb	r2, [r0, #26]
 8000572:	61c2      	str	r2, [r0, #28]
 8000574:	6243      	str	r3, [r0, #36]	@ 0x24
 8000576:	6283      	str	r3, [r0, #40]	@ 0x28
 8000578:	212c      	movs	r1, #44	@ 0x2c
 800057a:	5442      	strb	r2, [r0, r1]
 800057c:	6303      	str	r3, [r0, #48]	@ 0x30
 800057e:	3201      	adds	r2, #1
 8000580:	6342      	str	r2, [r0, #52]	@ 0x34
 8000582:	323a      	adds	r2, #58	@ 0x3a
 8000584:	5483      	strb	r3, [r0, r2]
 8000586:	64c3      	str	r3, [r0, #76]	@ 0x4c
 8000588:	f000 f8d6 	bl	8000738 <HAL_ADC_Init>
 800058c:	2800      	cmp	r0, #0
 800058e:	d10b      	bne.n	80005a8 <MX_ADC1_Init+0x68>
 8000590:	a901      	add	r1, sp, #4
 8000592:	4b09      	ldr	r3, [pc, #36]	@ (80005b8 <MX_ADC1_Init+0x78>)
 8000594:	9301      	str	r3, [sp, #4]
 8000596:	2301      	movs	r3, #1
 8000598:	604b      	str	r3, [r1, #4]
 800059a:	4805      	ldr	r0, [pc, #20]	@ (80005b0 <MX_ADC1_Init+0x70>)
 800059c:	f000 fa40 	bl	8000a20 <HAL_ADC_ConfigChannel>
 80005a0:	2800      	cmp	r0, #0
 80005a2:	d103      	bne.n	80005ac <MX_ADC1_Init+0x6c>
 80005a4:	b005      	add	sp, #20
 80005a6:	bd00      	pop	{pc}
 80005a8:	f7ff ffb4 	bl	8000514 <Error_Handler>
 80005ac:	f7ff ffb2 	bl	8000514 <Error_Handler>
 80005b0:	200001e8 	.word	0x200001e8
 80005b4:	40012400 	.word	0x40012400
 80005b8:	04000002 	.word	0x04000002

080005bc <MX_USART2_UART_Init>:
 80005bc:	b510      	push	{r4, lr}
 80005be:	480c      	ldr	r0, [pc, #48]	@ (80005f0 <MX_USART2_UART_Init+0x34>)
 80005c0:	4b0c      	ldr	r3, [pc, #48]	@ (80005f4 <MX_USART2_UART_Init+0x38>)
 80005c2:	6003      	str	r3, [r0, #0]
 80005c4:	23e1      	movs	r3, #225	@ 0xe1
 80005c6:	025b      	lsls	r3, r3, #9
 80005c8:	6043      	str	r3, [r0, #4]
 80005ca:	2300      	movs	r3, #0
 80005cc:	6083      	str	r3, [r0, #8]
 80005ce:	60c3      	str	r3, [r0, #12]
 80005d0:	6103      	str	r3, [r0, #16]
 80005d2:	220c      	movs	r2, #12
 80005d4:	6142      	str	r2, [r0, #20]
 80005d6:	6183      	str	r3, [r0, #24]
 80005d8:	61c3      	str	r3, [r0, #28]
 80005da:	6203      	str	r3, [r0, #32]
 80005dc:	6243      	str	r3, [r0, #36]	@ 0x24
 80005de:	6283      	str	r3, [r0, #40]	@ 0x28
 80005e0:	f001 fe84 	bl	80022ec <HAL_UART_Init>
 80005e4:	2800      	cmp	r0, #0
 80005e6:	d100      	bne.n	80005ea <MX_USART2_UART_Init+0x2e>
 80005e8:	bd10      	pop	{r4, pc}
 80005ea:	f7ff ff93 	bl	8000514 <Error_Handler>
 80005ee:	46c0      	nop			@ (mov r8, r8)
 80005f0:	200000f8 	.word	0x200000f8
 80005f4:	40004400 	.word	0x40004400

080005f8 <SystemClock_Config>:
 80005f8:	b510      	push	{r4, lr}
 80005fa:	b08c      	sub	sp, #48	@ 0x30
 80005fc:	ac05      	add	r4, sp, #20
 80005fe:	221c      	movs	r2, #28
 8000600:	2100      	movs	r1, #0
 8000602:	0020      	movs	r0, r4
 8000604:	f001 ffe6 	bl	80025d4 <memset>
 8000608:	2214      	movs	r2, #20
 800060a:	2100      	movs	r1, #0
 800060c:	4668      	mov	r0, sp
 800060e:	f001 ffe1 	bl	80025d4 <memset>
 8000612:	4912      	ldr	r1, [pc, #72]	@ (800065c <SystemClock_Config+0x64>)
 8000614:	680b      	ldr	r3, [r1, #0]
 8000616:	2207      	movs	r2, #7
 8000618:	4393      	bics	r3, r2
 800061a:	3a06      	subs	r2, #6
 800061c:	4313      	orrs	r3, r2
 800061e:	600b      	str	r3, [r1, #0]
 8000620:	9205      	str	r2, [sp, #20]
 8000622:	2380      	movs	r3, #128	@ 0x80
 8000624:	025b      	lsls	r3, r3, #9
 8000626:	9306      	str	r3, [sp, #24]
 8000628:	0020      	movs	r0, r4
 800062a:	f001 f891 	bl	8001750 <HAL_RCC_OscConfig>
 800062e:	2800      	cmp	r0, #0
 8000630:	d10f      	bne.n	8000652 <SystemClock_Config+0x5a>
 8000632:	4668      	mov	r0, sp
 8000634:	2307      	movs	r3, #7
 8000636:	9300      	str	r3, [sp, #0]
 8000638:	3b06      	subs	r3, #6
 800063a:	9301      	str	r3, [sp, #4]
 800063c:	2300      	movs	r3, #0
 800063e:	9302      	str	r3, [sp, #8]
 8000640:	9303      	str	r3, [sp, #12]
 8000642:	9304      	str	r3, [sp, #16]
 8000644:	2101      	movs	r1, #1
 8000646:	f001 fa0f 	bl	8001a68 <HAL_RCC_ClockConfig>
 800064a:	2800      	cmp	r0, #0
 800064c:	d103      	bne.n	8000656 <SystemClock_Config+0x5e>
 800064e:	b00c      	add	sp, #48	@ 0x30
 8000650:	bd10      	pop	{r4, pc}
 8000652:	f7ff ff5f 	bl	8000514 <Error_Handler>
 8000656:	f7ff ff5d 	bl	8000514 <Error_Handler>
 800065a:	46c0      	nop			@ (mov r8, r8)
 800065c:	40022000 	.word	0x40022000

08000660 <main>:
 8000660:	b510      	push	{r4, lr}
 8000662:	f000 f84b 	bl	80006fc <HAL_Init>
 8000666:	f7ff ffc7 	bl	80005f8 <SystemClock_Config>
 800066a:	f7ff fed5 	bl	8000418 <MX_GPIO_Init>
 800066e:	f7ff feff 	bl	8000470 <MX_DMA_Init>
 8000672:	f7ff ff65 	bl	8000540 <MX_ADC1_Init>
 8000676:	f7ff ffa1 	bl	80005bc <MX_USART2_UART_Init>
 800067a:	4c08      	ldr	r4, [pc, #32]	@ (800069c <main+0x3c>)
 800067c:	0020      	movs	r0, r4
 800067e:	f000 fc17 	bl	8000eb0 <HAL_ADCEx_Calibration_Start>
 8000682:	2000      	movs	r0, #0
 8000684:	f001 fe80 	bl	8002388 <BSP_LED_Init>
 8000688:	2101      	movs	r1, #1
 800068a:	2000      	movs	r0, #0
 800068c:	f001 febe 	bl	800240c <BSP_PB_Init>
 8000690:	4903      	ldr	r1, [pc, #12]	@ (80006a0 <main+0x40>)
 8000692:	2240      	movs	r2, #64	@ 0x40
 8000694:	0020      	movs	r0, r4
 8000696:	f000 fb67 	bl	8000d68 <HAL_ADC_Start_DMA>
 800069a:	e7fe      	b.n	800069a <main+0x3a>
 800069c:	200001e8 	.word	0x200001e8
 80006a0:	20000078 	.word	0x20000078

080006a4 <HAL_InitTick>:
 80006a4:	b510      	push	{r4, lr}
 80006a6:	0004      	movs	r4, r0
 80006a8:	4b11      	ldr	r3, [pc, #68]	@ (80006f0 <HAL_InitTick+0x4c>)
 80006aa:	7819      	ldrb	r1, [r3, #0]
 80006ac:	2900      	cmp	r1, #0
 80006ae:	d101      	bne.n	80006b4 <HAL_InitTick+0x10>
 80006b0:	2001      	movs	r0, #1
 80006b2:	bd10      	pop	{r4, pc}
 80006b4:	20fa      	movs	r0, #250	@ 0xfa
 80006b6:	0080      	lsls	r0, r0, #2
 80006b8:	f7ff fd14 	bl	80000e4 <__udivsi3>
 80006bc:	0001      	movs	r1, r0
 80006be:	4b0d      	ldr	r3, [pc, #52]	@ (80006f4 <HAL_InitTick+0x50>)
 80006c0:	6818      	ldr	r0, [r3, #0]
 80006c2:	f7ff fd0f 	bl	80000e4 <__udivsi3>
 80006c6:	f000 fd0d 	bl	80010e4 <HAL_SYSTICK_Config>
 80006ca:	2800      	cmp	r0, #0
 80006cc:	d10d      	bne.n	80006ea <HAL_InitTick+0x46>
 80006ce:	2c03      	cmp	r4, #3
 80006d0:	d901      	bls.n	80006d6 <HAL_InitTick+0x32>
 80006d2:	2001      	movs	r0, #1
 80006d4:	e7ed      	b.n	80006b2 <HAL_InitTick+0xe>
 80006d6:	3001      	adds	r0, #1
 80006d8:	2200      	movs	r2, #0
 80006da:	0021      	movs	r1, r4
 80006dc:	4240      	negs	r0, r0
 80006de:	f000 fcf1 	bl	80010c4 <HAL_NVIC_SetPriority>
 80006e2:	4b05      	ldr	r3, [pc, #20]	@ (80006f8 <HAL_InitTick+0x54>)
 80006e4:	601c      	str	r4, [r3, #0]
 80006e6:	2000      	movs	r0, #0
 80006e8:	e7e3      	b.n	80006b2 <HAL_InitTick+0xe>
 80006ea:	2001      	movs	r0, #1
 80006ec:	e7e1      	b.n	80006b2 <HAL_InitTick+0xe>
 80006ee:	46c0      	nop			@ (mov r8, r8)
 80006f0:	20000000 	.word	0x20000000
 80006f4:	20000008 	.word	0x20000008
 80006f8:	20000004 	.word	0x20000004

080006fc <HAL_Init>:
 80006fc:	b510      	push	{r4, lr}
 80006fe:	2003      	movs	r0, #3
 8000700:	f7ff ffd0 	bl	80006a4 <HAL_InitTick>
 8000704:	1e04      	subs	r4, r0, #0
 8000706:	d002      	beq.n	800070e <HAL_Init+0x12>
 8000708:	2401      	movs	r4, #1
 800070a:	0020      	movs	r0, r4
 800070c:	bd10      	pop	{r4, pc}
 800070e:	f000 ff79 	bl	8001604 <HAL_MspInit>
 8000712:	e7fa      	b.n	800070a <HAL_Init+0xe>

08000714 <HAL_IncTick>:
 8000714:	4b03      	ldr	r3, [pc, #12]	@ (8000724 <HAL_IncTick+0x10>)
 8000716:	781b      	ldrb	r3, [r3, #0]
 8000718:	4a03      	ldr	r2, [pc, #12]	@ (8000728 <HAL_IncTick+0x14>)
 800071a:	6811      	ldr	r1, [r2, #0]
 800071c:	185b      	adds	r3, r3, r1
 800071e:	6013      	str	r3, [r2, #0]
 8000720:	4770      	bx	lr
 8000722:	46c0      	nop			@ (mov r8, r8)
 8000724:	20000000 	.word	0x20000000
 8000728:	2000024c 	.word	0x2000024c

0800072c <HAL_GetTick>:
 800072c:	4b01      	ldr	r3, [pc, #4]	@ (8000734 <HAL_GetTick+0x8>)
 800072e:	6818      	ldr	r0, [r3, #0]
 8000730:	4770      	bx	lr
 8000732:	46c0      	nop			@ (mov r8, r8)
 8000734:	2000024c 	.word	0x2000024c

08000738 <HAL_ADC_Init>:
 8000738:	b530      	push	{r4, r5, lr}
 800073a:	b083      	sub	sp, #12
 800073c:	0004      	movs	r4, r0
 800073e:	2300      	movs	r3, #0
 8000740:	9301      	str	r3, [sp, #4]
 8000742:	2800      	cmp	r0, #0
 8000744:	d100      	bne.n	8000748 <HAL_ADC_Init+0x10>
 8000746:	e105      	b.n	8000954 <HAL_ADC_Init+0x21c>
 8000748:	6d83      	ldr	r3, [r0, #88]	@ 0x58
 800074a:	2b00      	cmp	r3, #0
 800074c:	d012      	beq.n	8000774 <HAL_ADC_Init+0x3c>
 800074e:	6823      	ldr	r3, [r4, #0]
 8000750:	689a      	ldr	r2, [r3, #8]
 8000752:	00d2      	lsls	r2, r2, #3
 8000754:	d41b      	bmi.n	800078e <HAL_ADC_Init+0x56>
 8000756:	6899      	ldr	r1, [r3, #8]
 8000758:	4a7f      	ldr	r2, [pc, #508]	@ (8000958 <HAL_ADC_Init+0x220>)
 800075a:	4011      	ands	r1, r2
 800075c:	2280      	movs	r2, #128	@ 0x80
 800075e:	0552      	lsls	r2, r2, #21
 8000760:	430a      	orrs	r2, r1
 8000762:	609a      	str	r2, [r3, #8]
 8000764:	4b7d      	ldr	r3, [pc, #500]	@ (800095c <HAL_ADC_Init+0x224>)
 8000766:	6818      	ldr	r0, [r3, #0]
 8000768:	497d      	ldr	r1, [pc, #500]	@ (8000960 <HAL_ADC_Init+0x228>)
 800076a:	f7ff fcbb 	bl	80000e4 <__udivsi3>
 800076e:	0040      	lsls	r0, r0, #1
 8000770:	9001      	str	r0, [sp, #4]
 8000772:	e009      	b.n	8000788 <HAL_ADC_Init+0x50>
 8000774:	f000 ff5e 	bl	8001634 <HAL_ADC_MspInit>
 8000778:	2300      	movs	r3, #0
 800077a:	65e3      	str	r3, [r4, #92]	@ 0x5c
 800077c:	2254      	movs	r2, #84	@ 0x54
 800077e:	54a3      	strb	r3, [r4, r2]
 8000780:	e7e5      	b.n	800074e <HAL_ADC_Init+0x16>
 8000782:	9b01      	ldr	r3, [sp, #4]
 8000784:	3b01      	subs	r3, #1
 8000786:	9301      	str	r3, [sp, #4]
 8000788:	9b01      	ldr	r3, [sp, #4]
 800078a:	2b00      	cmp	r3, #0
 800078c:	d1f9      	bne.n	8000782 <HAL_ADC_Init+0x4a>
 800078e:	6823      	ldr	r3, [r4, #0]
 8000790:	689a      	ldr	r2, [r3, #8]
 8000792:	00d2      	lsls	r2, r2, #3
 8000794:	d500      	bpl.n	8000798 <HAL_ADC_Init+0x60>
 8000796:	e09d      	b.n	80008d4 <HAL_ADC_Init+0x19c>
 8000798:	6da2      	ldr	r2, [r4, #88]	@ 0x58
 800079a:	2110      	movs	r1, #16
 800079c:	430a      	orrs	r2, r1
 800079e:	65a2      	str	r2, [r4, #88]	@ 0x58
 80007a0:	6de2      	ldr	r2, [r4, #92]	@ 0x5c
 80007a2:	390f      	subs	r1, #15
 80007a4:	430a      	orrs	r2, r1
 80007a6:	65e2      	str	r2, [r4, #92]	@ 0x5c
 80007a8:	2001      	movs	r0, #1
 80007aa:	689a      	ldr	r2, [r3, #8]
 80007ac:	2104      	movs	r1, #4
 80007ae:	000d      	movs	r5, r1
 80007b0:	4015      	ands	r5, r2
 80007b2:	4211      	tst	r1, r2
 80007b4:	d000      	beq.n	80007b8 <HAL_ADC_Init+0x80>
 80007b6:	2501      	movs	r5, #1
 80007b8:	6da2      	ldr	r2, [r4, #88]	@ 0x58
 80007ba:	06d2      	lsls	r2, r2, #27
 80007bc:	d500      	bpl.n	80007c0 <HAL_ADC_Init+0x88>
 80007be:	e0c2      	b.n	8000946 <HAL_ADC_Init+0x20e>
 80007c0:	2d00      	cmp	r5, #0
 80007c2:	d000      	beq.n	80007c6 <HAL_ADC_Init+0x8e>
 80007c4:	e0bf      	b.n	8000946 <HAL_ADC_Init+0x20e>
 80007c6:	6da2      	ldr	r2, [r4, #88]	@ 0x58
 80007c8:	4966      	ldr	r1, [pc, #408]	@ (8000964 <HAL_ADC_Init+0x22c>)
 80007ca:	400a      	ands	r2, r1
 80007cc:	3106      	adds	r1, #6
 80007ce:	31ff      	adds	r1, #255	@ 0xff
 80007d0:	430a      	orrs	r2, r1
 80007d2:	65a2      	str	r2, [r4, #88]	@ 0x58
 80007d4:	689a      	ldr	r2, [r3, #8]
 80007d6:	07d2      	lsls	r2, r2, #31
 80007d8:	d452      	bmi.n	8000880 <HAL_ADC_Init+0x148>
 80007da:	68a2      	ldr	r2, [r4, #8]
 80007dc:	7e21      	ldrb	r1, [r4, #24]
 80007de:	0389      	lsls	r1, r1, #14
 80007e0:	430a      	orrs	r2, r1
 80007e2:	7e61      	ldrb	r1, [r4, #25]
 80007e4:	03c9      	lsls	r1, r1, #15
 80007e6:	430a      	orrs	r2, r1
 80007e8:	7ea5      	ldrb	r5, [r4, #26]
 80007ea:	0369      	lsls	r1, r5, #13
 80007ec:	430a      	orrs	r2, r1
 80007ee:	6b21      	ldr	r1, [r4, #48]	@ 0x30
 80007f0:	2900      	cmp	r1, #0
 80007f2:	d001      	beq.n	80007f8 <HAL_ADC_Init+0xc0>
 80007f4:	2180      	movs	r1, #128	@ 0x80
 80007f6:	0149      	lsls	r1, r1, #5
 80007f8:	430a      	orrs	r2, r1
 80007fa:	68e1      	ldr	r1, [r4, #12]
 80007fc:	430a      	orrs	r2, r1
 80007fe:	6921      	ldr	r1, [r4, #16]
 8000800:	2900      	cmp	r1, #0
 8000802:	db69      	blt.n	80008d8 <HAL_ADC_Init+0x1a0>
 8000804:	2180      	movs	r1, #128	@ 0x80
 8000806:	0389      	lsls	r1, r1, #14
 8000808:	430a      	orrs	r2, r1
 800080a:	212c      	movs	r1, #44	@ 0x2c
 800080c:	5c61      	ldrb	r1, [r4, r1]
 800080e:	0049      	lsls	r1, r1, #1
 8000810:	430a      	orrs	r2, r1
 8000812:	2120      	movs	r1, #32
 8000814:	5c61      	ldrb	r1, [r4, r1]
 8000816:	2901      	cmp	r1, #1
 8000818:	d061      	beq.n	80008de <HAL_ADC_Init+0x1a6>
 800081a:	6a61      	ldr	r1, [r4, #36]	@ 0x24
 800081c:	2900      	cmp	r1, #0
 800081e:	d005      	beq.n	800082c <HAL_ADC_Init+0xf4>
 8000820:	25e0      	movs	r5, #224	@ 0xe0
 8000822:	006d      	lsls	r5, r5, #1
 8000824:	4029      	ands	r1, r5
 8000826:	6aa5      	ldr	r5, [r4, #40]	@ 0x28
 8000828:	4329      	orrs	r1, r5
 800082a:	430a      	orrs	r2, r1
 800082c:	68d9      	ldr	r1, [r3, #12]
 800082e:	4d4e      	ldr	r5, [pc, #312]	@ (8000968 <HAL_ADC_Init+0x230>)
 8000830:	4029      	ands	r1, r5
 8000832:	430a      	orrs	r2, r1
 8000834:	60da      	str	r2, [r3, #12]
 8000836:	6863      	ldr	r3, [r4, #4]
 8000838:	0f9b      	lsrs	r3, r3, #30
 800083a:	079b      	lsls	r3, r3, #30
 800083c:	6ce2      	ldr	r2, [r4, #76]	@ 0x4c
 800083e:	431a      	orrs	r2, r3
 8000840:	213c      	movs	r1, #60	@ 0x3c
 8000842:	5c61      	ldrb	r1, [r4, r1]
 8000844:	2901      	cmp	r1, #1
 8000846:	d059      	beq.n	80008fc <HAL_ADC_Init+0x1c4>
 8000848:	6821      	ldr	r1, [r4, #0]
 800084a:	690b      	ldr	r3, [r1, #16]
 800084c:	4d47      	ldr	r5, [pc, #284]	@ (800096c <HAL_ADC_Init+0x234>)
 800084e:	402b      	ands	r3, r5
 8000850:	4313      	orrs	r3, r2
 8000852:	610b      	str	r3, [r1, #16]
 8000854:	6863      	ldr	r3, [r4, #4]
 8000856:	22c0      	movs	r2, #192	@ 0xc0
 8000858:	0612      	lsls	r2, r2, #24
 800085a:	4293      	cmp	r3, r2
 800085c:	d010      	beq.n	8000880 <HAL_ADC_Init+0x148>
 800085e:	2280      	movs	r2, #128	@ 0x80
 8000860:	05d2      	lsls	r2, r2, #23
 8000862:	4293      	cmp	r3, r2
 8000864:	d00c      	beq.n	8000880 <HAL_ADC_Init+0x148>
 8000866:	2280      	movs	r2, #128	@ 0x80
 8000868:	0612      	lsls	r2, r2, #24
 800086a:	4293      	cmp	r3, r2
 800086c:	d008      	beq.n	8000880 <HAL_ADC_Init+0x148>
 800086e:	4940      	ldr	r1, [pc, #256]	@ (8000970 <HAL_ADC_Init+0x238>)
 8000870:	680a      	ldr	r2, [r1, #0]
 8000872:	4d40      	ldr	r5, [pc, #256]	@ (8000974 <HAL_ADC_Init+0x23c>)
 8000874:	402a      	ands	r2, r5
 8000876:	25f0      	movs	r5, #240	@ 0xf0
 8000878:	03ad      	lsls	r5, r5, #14
 800087a:	402b      	ands	r3, r5
 800087c:	4313      	orrs	r3, r2
 800087e:	600b      	str	r3, [r1, #0]
 8000880:	6821      	ldr	r1, [r4, #0]
 8000882:	6b63      	ldr	r3, [r4, #52]	@ 0x34
 8000884:	694a      	ldr	r2, [r1, #20]
 8000886:	2507      	movs	r5, #7
 8000888:	43aa      	bics	r2, r5
 800088a:	4313      	orrs	r3, r2
 800088c:	614b      	str	r3, [r1, #20]
 800088e:	6821      	ldr	r1, [r4, #0]
 8000890:	6ba2      	ldr	r2, [r4, #56]	@ 0x38
 8000892:	694b      	ldr	r3, [r1, #20]
 8000894:	3569      	adds	r5, #105	@ 0x69
 8000896:	43ab      	bics	r3, r5
 8000898:	0112      	lsls	r2, r2, #4
 800089a:	4313      	orrs	r3, r2
 800089c:	614b      	str	r3, [r1, #20]
 800089e:	6923      	ldr	r3, [r4, #16]
 80008a0:	2b00      	cmp	r3, #0
 80008a2:	d135      	bne.n	8000910 <HAL_ADC_Init+0x1d8>
 80008a4:	6822      	ldr	r2, [r4, #0]
 80008a6:	6a91      	ldr	r1, [r2, #40]	@ 0x28
 80008a8:	3b10      	subs	r3, #16
 80008aa:	430b      	orrs	r3, r1
 80008ac:	6293      	str	r3, [r2, #40]	@ 0x28
 80008ae:	6823      	ldr	r3, [r4, #0]
 80008b0:	695a      	ldr	r2, [r3, #20]
 80008b2:	2307      	movs	r3, #7
 80008b4:	4013      	ands	r3, r2
 80008b6:	6b62      	ldr	r2, [r4, #52]	@ 0x34
 80008b8:	429a      	cmp	r2, r3
 80008ba:	d03b      	beq.n	8000934 <HAL_ADC_Init+0x1fc>
 80008bc:	6da3      	ldr	r3, [r4, #88]	@ 0x58
 80008be:	2212      	movs	r2, #18
 80008c0:	4393      	bics	r3, r2
 80008c2:	3a02      	subs	r2, #2
 80008c4:	4313      	orrs	r3, r2
 80008c6:	65a3      	str	r3, [r4, #88]	@ 0x58
 80008c8:	6de3      	ldr	r3, [r4, #92]	@ 0x5c
 80008ca:	3a0f      	subs	r2, #15
 80008cc:	4313      	orrs	r3, r2
 80008ce:	65e3      	str	r3, [r4, #92]	@ 0x5c
 80008d0:	2001      	movs	r0, #1
 80008d2:	e03d      	b.n	8000950 <HAL_ADC_Init+0x218>
 80008d4:	2000      	movs	r0, #0
 80008d6:	e768      	b.n	80007aa <HAL_ADC_Init+0x72>
 80008d8:	0049      	lsls	r1, r1, #1
 80008da:	0849      	lsrs	r1, r1, #1
 80008dc:	e794      	b.n	8000808 <HAL_ADC_Init+0xd0>
 80008de:	2d00      	cmp	r5, #0
 80008e0:	d103      	bne.n	80008ea <HAL_ADC_Init+0x1b2>
 80008e2:	2180      	movs	r1, #128	@ 0x80
 80008e4:	0249      	lsls	r1, r1, #9
 80008e6:	430a      	orrs	r2, r1
 80008e8:	e797      	b.n	800081a <HAL_ADC_Init+0xe2>
 80008ea:	6da1      	ldr	r1, [r4, #88]	@ 0x58
 80008ec:	2520      	movs	r5, #32
 80008ee:	4329      	orrs	r1, r5
 80008f0:	65a1      	str	r1, [r4, #88]	@ 0x58
 80008f2:	6de1      	ldr	r1, [r4, #92]	@ 0x5c
 80008f4:	3d1f      	subs	r5, #31
 80008f6:	4329      	orrs	r1, r5
 80008f8:	65e1      	str	r1, [r4, #92]	@ 0x5c
 80008fa:	e78e      	b.n	800081a <HAL_ADC_Init+0xe2>
 80008fc:	6c21      	ldr	r1, [r4, #64]	@ 0x40
 80008fe:	430b      	orrs	r3, r1
 8000900:	6c61      	ldr	r1, [r4, #68]	@ 0x44
 8000902:	430b      	orrs	r3, r1
 8000904:	6ca1      	ldr	r1, [r4, #72]	@ 0x48
 8000906:	430b      	orrs	r3, r1
 8000908:	4313      	orrs	r3, r2
 800090a:	2201      	movs	r2, #1
 800090c:	431a      	orrs	r2, r3
 800090e:	e79b      	b.n	8000848 <HAL_ADC_Init+0x110>
 8000910:	2280      	movs	r2, #128	@ 0x80
 8000912:	0392      	lsls	r2, r2, #14
 8000914:	4293      	cmp	r3, r2
 8000916:	d1ca      	bne.n	80008ae <HAL_ADC_Init+0x176>
 8000918:	6821      	ldr	r1, [r4, #0]
 800091a:	6a8b      	ldr	r3, [r1, #40]	@ 0x28
 800091c:	69e3      	ldr	r3, [r4, #28]
 800091e:	3b01      	subs	r3, #1
 8000920:	009b      	lsls	r3, r3, #2
 8000922:	221c      	movs	r2, #28
 8000924:	401a      	ands	r2, r3
 8000926:	2310      	movs	r3, #16
 8000928:	425b      	negs	r3, r3
 800092a:	4093      	lsls	r3, r2
 800092c:	6e22      	ldr	r2, [r4, #96]	@ 0x60
 800092e:	4313      	orrs	r3, r2
 8000930:	628b      	str	r3, [r1, #40]	@ 0x28
 8000932:	e7bc      	b.n	80008ae <HAL_ADC_Init+0x176>
 8000934:	2300      	movs	r3, #0
 8000936:	65e3      	str	r3, [r4, #92]	@ 0x5c
 8000938:	6da3      	ldr	r3, [r4, #88]	@ 0x58
 800093a:	2203      	movs	r2, #3
 800093c:	4393      	bics	r3, r2
 800093e:	3a02      	subs	r2, #2
 8000940:	4313      	orrs	r3, r2
 8000942:	65a3      	str	r3, [r4, #88]	@ 0x58
 8000944:	e004      	b.n	8000950 <HAL_ADC_Init+0x218>
 8000946:	6da3      	ldr	r3, [r4, #88]	@ 0x58
 8000948:	2210      	movs	r2, #16
 800094a:	4313      	orrs	r3, r2
 800094c:	65a3      	str	r3, [r4, #88]	@ 0x58
 800094e:	2001      	movs	r0, #1
 8000950:	b003      	add	sp, #12
 8000952:	bd30      	pop	{r4, r5, pc}
 8000954:	2001      	movs	r0, #1
 8000956:	e7fb      	b.n	8000950 <HAL_ADC_Init+0x218>
 8000958:	6fffffe8 	.word	0x6fffffe8
 800095c:	20000008 	.word	0x20000008
 8000960:	00030d40 	.word	0x00030d40
 8000964:	fffffefd 	.word	0xfffffefd
 8000968:	ffde0201 	.word	0xffde0201
 800096c:	1ffffc02 	.word	0x1ffffc02
 8000970:	40012708 	.word	0x40012708
 8000974:	ffc3ffff 	.word	0xffc3ffff

08000978 <HAL_ADC_ConvHalfCpltCallback>:
 8000978:	4770      	bx	lr

0800097a <ADC_DMAHalfConvCplt>:
 800097a:	b510      	push	{r4, lr}
 800097c:	6a80      	ldr	r0, [r0, #40]	@ 0x28
 800097e:	f7ff fffb 	bl	8000978 <HAL_ADC_ConvHalfCpltCallback>
 8000982:	bd10      	pop	{r4, pc}

08000984 <HAL_ADC_ErrorCallback>:
 8000984:	4770      	bx	lr

08000986 <ADC_DMAError>:
 8000986:	b510      	push	{r4, lr}
 8000988:	6a80      	ldr	r0, [r0, #40]	@ 0x28
 800098a:	6d83      	ldr	r3, [r0, #88]	@ 0x58
 800098c:	2240      	movs	r2, #64	@ 0x40
 800098e:	4313      	orrs	r3, r2
 8000990:	6583      	str	r3, [r0, #88]	@ 0x58
 8000992:	6dc3      	ldr	r3, [r0, #92]	@ 0x5c
 8000994:	3a3c      	subs	r2, #60	@ 0x3c
 8000996:	4313      	orrs	r3, r2
 8000998:	65c3      	str	r3, [r0, #92]	@ 0x5c
 800099a:	f7ff fff3 	bl	8000984 <HAL_ADC_ErrorCallback>
 800099e:	bd10      	pop	{r4, pc}

080009a0 <ADC_DMAConvCplt>:
 80009a0:	b510      	push	{r4, lr}
 80009a2:	0003      	movs	r3, r0
 80009a4:	6a80      	ldr	r0, [r0, #40]	@ 0x28
 80009a6:	6d82      	ldr	r2, [r0, #88]	@ 0x58
 80009a8:	2150      	movs	r1, #80	@ 0x50
 80009aa:	4211      	tst	r1, r2
 80009ac:	d12a      	bne.n	8000a04 <ADC_DMAConvCplt+0x64>
 80009ae:	6d82      	ldr	r2, [r0, #88]	@ 0x58
 80009b0:	2380      	movs	r3, #128	@ 0x80
 80009b2:	009b      	lsls	r3, r3, #2
 80009b4:	4313      	orrs	r3, r2
 80009b6:	6583      	str	r3, [r0, #88]	@ 0x58
 80009b8:	6803      	ldr	r3, [r0, #0]
 80009ba:	68d9      	ldr	r1, [r3, #12]
 80009bc:	22c0      	movs	r2, #192	@ 0xc0
 80009be:	0112      	lsls	r2, r2, #4
 80009c0:	4211      	tst	r1, r2
 80009c2:	d113      	bne.n	80009ec <ADC_DMAConvCplt+0x4c>
 80009c4:	7e82      	ldrb	r2, [r0, #26]
 80009c6:	2a00      	cmp	r2, #0
 80009c8:	d110      	bne.n	80009ec <ADC_DMAConvCplt+0x4c>
 80009ca:	681a      	ldr	r2, [r3, #0]
 80009cc:	0712      	lsls	r2, r2, #28
 80009ce:	d50d      	bpl.n	80009ec <ADC_DMAConvCplt+0x4c>
 80009d0:	689a      	ldr	r2, [r3, #8]
 80009d2:	0752      	lsls	r2, r2, #29
 80009d4:	d40d      	bmi.n	80009f2 <ADC_DMAConvCplt+0x52>
 80009d6:	685a      	ldr	r2, [r3, #4]
 80009d8:	210c      	movs	r1, #12
 80009da:	438a      	bics	r2, r1
 80009dc:	605a      	str	r2, [r3, #4]
 80009de:	6d83      	ldr	r3, [r0, #88]	@ 0x58
 80009e0:	4a0e      	ldr	r2, [pc, #56]	@ (8000a1c <ADC_DMAConvCplt+0x7c>)
 80009e2:	4013      	ands	r3, r2
 80009e4:	3204      	adds	r2, #4
 80009e6:	32ff      	adds	r2, #255	@ 0xff
 80009e8:	4313      	orrs	r3, r2
 80009ea:	6583      	str	r3, [r0, #88]	@ 0x58
 80009ec:	f7ff fd64 	bl	80004b8 <HAL_ADC_ConvCpltCallback>
 80009f0:	bd10      	pop	{r4, pc}
 80009f2:	6d83      	ldr	r3, [r0, #88]	@ 0x58
 80009f4:	2220      	movs	r2, #32
 80009f6:	4313      	orrs	r3, r2
 80009f8:	6583      	str	r3, [r0, #88]	@ 0x58
 80009fa:	6dc3      	ldr	r3, [r0, #92]	@ 0x5c
 80009fc:	3a1f      	subs	r2, #31
 80009fe:	4313      	orrs	r3, r2
 8000a00:	65c3      	str	r3, [r0, #92]	@ 0x5c
 8000a02:	e7f3      	b.n	80009ec <ADC_DMAConvCplt+0x4c>
 8000a04:	6d82      	ldr	r2, [r0, #88]	@ 0x58
 8000a06:	06d2      	lsls	r2, r2, #27
 8000a08:	d404      	bmi.n	8000a14 <ADC_DMAConvCplt+0x74>
 8000a0a:	6d02      	ldr	r2, [r0, #80]	@ 0x50
 8000a0c:	6b52      	ldr	r2, [r2, #52]	@ 0x34
 8000a0e:	0018      	movs	r0, r3
 8000a10:	4790      	blx	r2
 8000a12:	e7ed      	b.n	80009f0 <ADC_DMAConvCplt+0x50>
 8000a14:	f7ff ffb6 	bl	8000984 <HAL_ADC_ErrorCallback>
 8000a18:	e7ea      	b.n	80009f0 <ADC_DMAConvCplt+0x50>
 8000a1a:	46c0      	nop			@ (mov r8, r8)
 8000a1c:	fffffefe 	.word	0xfffffefe

08000a20 <HAL_ADC_ConfigChannel>:
 8000a20:	b5f0      	push	{r4, r5, r6, r7, lr}
 8000a22:	b083      	sub	sp, #12
 8000a24:	0004      	movs	r4, r0
 8000a26:	2300      	movs	r3, #0
 8000a28:	9301      	str	r3, [sp, #4]
 8000a2a:	6905      	ldr	r5, [r0, #16]
 8000a2c:	3354      	adds	r3, #84	@ 0x54
 8000a2e:	5cc3      	ldrb	r3, [r0, r3]
 8000a30:	2b01      	cmp	r3, #1
 8000a32:	d100      	bne.n	8000a36 <HAL_ADC_ConfigChannel+0x16>
 8000a34:	e121      	b.n	8000c7a <HAL_ADC_ConfigChannel+0x25a>
 8000a36:	2354      	movs	r3, #84	@ 0x54
 8000a38:	2201      	movs	r2, #1
 8000a3a:	54c2      	strb	r2, [r0, r3]
 8000a3c:	6800      	ldr	r0, [r0, #0]
 8000a3e:	6883      	ldr	r3, [r0, #8]
 8000a40:	3203      	adds	r2, #3
 8000a42:	0016      	movs	r6, r2
 8000a44:	401e      	ands	r6, r3
 8000a46:	421a      	tst	r2, r3
 8000a48:	d009      	beq.n	8000a5e <HAL_ADC_ConfigChannel+0x3e>
 8000a4a:	6da3      	ldr	r3, [r4, #88]	@ 0x58
 8000a4c:	321c      	adds	r2, #28
 8000a4e:	4313      	orrs	r3, r2
 8000a50:	65a3      	str	r3, [r4, #88]	@ 0x58
 8000a52:	2001      	movs	r0, #1
 8000a54:	2354      	movs	r3, #84	@ 0x54
 8000a56:	2200      	movs	r2, #0
 8000a58:	54e2      	strb	r2, [r4, r3]
 8000a5a:	b003      	add	sp, #12
 8000a5c:	bdf0      	pop	{r4, r5, r6, r7, pc}
 8000a5e:	684b      	ldr	r3, [r1, #4]
 8000a60:	2b02      	cmp	r3, #2
 8000a62:	d100      	bne.n	8000a66 <HAL_ADC_ConfigChannel+0x46>
 8000a64:	e0d5      	b.n	8000c12 <HAL_ADC_ConfigChannel+0x1f2>
 8000a66:	2280      	movs	r2, #128	@ 0x80
 8000a68:	0612      	lsls	r2, r2, #24
 8000a6a:	4295      	cmp	r5, r2
 8000a6c:	d025      	beq.n	8000aba <HAL_ADC_ConfigChannel+0x9a>
 8000a6e:	4a84      	ldr	r2, [pc, #528]	@ (8000c80 <HAL_ADC_ConfigChannel+0x260>)
 8000a70:	4295      	cmp	r5, r2
 8000a72:	d022      	beq.n	8000aba <HAL_ADC_ConfigChannel+0x9a>
 8000a74:	6e22      	ldr	r2, [r4, #96]	@ 0x60
 8000a76:	271f      	movs	r7, #31
 8000a78:	401f      	ands	r7, r3
 8000a7a:	250f      	movs	r5, #15
 8000a7c:	40bd      	lsls	r5, r7
 8000a7e:	43aa      	bics	r2, r5
 8000a80:	680b      	ldr	r3, [r1, #0]
 8000a82:	025d      	lsls	r5, r3, #9
 8000a84:	d12f      	bne.n	8000ae6 <HAL_ADC_ConfigChannel+0xc6>
 8000a86:	0e9b      	lsrs	r3, r3, #26
 8000a88:	261f      	movs	r6, #31
 8000a8a:	401e      	ands	r6, r3
 8000a8c:	40be      	lsls	r6, r7
 8000a8e:	4332      	orrs	r2, r6
 8000a90:	6622      	str	r2, [r4, #96]	@ 0x60
 8000a92:	684d      	ldr	r5, [r1, #4]
 8000a94:	08ab      	lsrs	r3, r5, #2
 8000a96:	3301      	adds	r3, #1
 8000a98:	69e2      	ldr	r2, [r4, #28]
 8000a9a:	4293      	cmp	r3, r2
 8000a9c:	d813      	bhi.n	8000ac6 <HAL_ADC_ConfigChannel+0xa6>
 8000a9e:	680e      	ldr	r6, [r1, #0]
 8000aa0:	6a82      	ldr	r2, [r0, #40]	@ 0x28
 8000aa2:	231f      	movs	r3, #31
 8000aa4:	401d      	ands	r5, r3
 8000aa6:	3b10      	subs	r3, #16
 8000aa8:	001f      	movs	r7, r3
 8000aaa:	40af      	lsls	r7, r5
 8000aac:	43ba      	bics	r2, r7
 8000aae:	0eb6      	lsrs	r6, r6, #26
 8000ab0:	4033      	ands	r3, r6
 8000ab2:	40ab      	lsls	r3, r5
 8000ab4:	4313      	orrs	r3, r2
 8000ab6:	6283      	str	r3, [r0, #40]	@ 0x28
 8000ab8:	e005      	b.n	8000ac6 <HAL_ADC_ConfigChannel+0xa6>
 8000aba:	680b      	ldr	r3, [r1, #0]
 8000abc:	6a82      	ldr	r2, [r0, #40]	@ 0x28
 8000abe:	025b      	lsls	r3, r3, #9
 8000ac0:	0a5b      	lsrs	r3, r3, #9
 8000ac2:	4313      	orrs	r3, r2
 8000ac4:	6283      	str	r3, [r0, #40]	@ 0x28
 8000ac6:	6820      	ldr	r0, [r4, #0]
 8000ac8:	680b      	ldr	r3, [r1, #0]
 8000aca:	688d      	ldr	r5, [r1, #8]
 8000acc:	6942      	ldr	r2, [r0, #20]
 8000ace:	021b      	lsls	r3, r3, #8
 8000ad0:	439a      	bics	r2, r3
 8000ad2:	402b      	ands	r3, r5
 8000ad4:	4d6b      	ldr	r5, [pc, #428]	@ (8000c84 <HAL_ADC_ConfigChannel+0x264>)
 8000ad6:	402b      	ands	r3, r5
 8000ad8:	4313      	orrs	r3, r2
 8000ada:	6143      	str	r3, [r0, #20]
 8000adc:	680b      	ldr	r3, [r1, #0]
 8000ade:	2b00      	cmp	r3, #0
 8000ae0:	db5f      	blt.n	8000ba2 <HAL_ADC_ConfigChannel+0x182>
 8000ae2:	2000      	movs	r0, #0
 8000ae4:	e7b6      	b.n	8000a54 <HAL_ADC_ConfigChannel+0x34>
 8000ae6:	07dd      	lsls	r5, r3, #31
 8000ae8:	d4d0      	bmi.n	8000a8c <HAL_ADC_ConfigChannel+0x6c>
 8000aea:	079d      	lsls	r5, r3, #30
 8000aec:	d42f      	bmi.n	8000b4e <HAL_ADC_ConfigChannel+0x12e>
 8000aee:	075d      	lsls	r5, r3, #29
 8000af0:	d42f      	bmi.n	8000b52 <HAL_ADC_ConfigChannel+0x132>
 8000af2:	071d      	lsls	r5, r3, #28
 8000af4:	d42f      	bmi.n	8000b56 <HAL_ADC_ConfigChannel+0x136>
 8000af6:	06dd      	lsls	r5, r3, #27
 8000af8:	d42f      	bmi.n	8000b5a <HAL_ADC_ConfigChannel+0x13a>
 8000afa:	069d      	lsls	r5, r3, #26
 8000afc:	d42f      	bmi.n	8000b5e <HAL_ADC_ConfigChannel+0x13e>
 8000afe:	065d      	lsls	r5, r3, #25
 8000b00:	d42f      	bmi.n	8000b62 <HAL_ADC_ConfigChannel+0x142>
 8000b02:	061d      	lsls	r5, r3, #24
 8000b04:	d42f      	bmi.n	8000b66 <HAL_ADC_ConfigChannel+0x146>
 8000b06:	05dd      	lsls	r5, r3, #23
 8000b08:	d42f      	bmi.n	8000b6a <HAL_ADC_ConfigChannel+0x14a>
 8000b0a:	059d      	lsls	r5, r3, #22
 8000b0c:	d42f      	bmi.n	8000b6e <HAL_ADC_ConfigChannel+0x14e>
 8000b0e:	055d      	lsls	r5, r3, #21
 8000b10:	d42f      	bmi.n	8000b72 <HAL_ADC_ConfigChannel+0x152>
 8000b12:	051d      	lsls	r5, r3, #20
 8000b14:	d42f      	bmi.n	8000b76 <HAL_ADC_ConfigChannel+0x156>
 8000b16:	04dd      	lsls	r5, r3, #19
 8000b18:	d42f      	bmi.n	8000b7a <HAL_ADC_ConfigChannel+0x15a>
 8000b1a:	049d      	lsls	r5, r3, #18
 8000b1c:	d42f      	bmi.n	8000b7e <HAL_ADC_ConfigChannel+0x15e>
 8000b1e:	045d      	lsls	r5, r3, #17
 8000b20:	d42f      	bmi.n	8000b82 <HAL_ADC_ConfigChannel+0x162>
 8000b22:	041d      	lsls	r5, r3, #16
 8000b24:	d42f      	bmi.n	8000b86 <HAL_ADC_ConfigChannel+0x166>
 8000b26:	03dd      	lsls	r5, r3, #15
 8000b28:	d42f      	bmi.n	8000b8a <HAL_ADC_ConfigChannel+0x16a>
 8000b2a:	039d      	lsls	r5, r3, #14
 8000b2c:	d42f      	bmi.n	8000b8e <HAL_ADC_ConfigChannel+0x16e>
 8000b2e:	035d      	lsls	r5, r3, #13
 8000b30:	d42f      	bmi.n	8000b92 <HAL_ADC_ConfigChannel+0x172>
 8000b32:	031d      	lsls	r5, r3, #12
 8000b34:	d42f      	bmi.n	8000b96 <HAL_ADC_ConfigChannel+0x176>
 8000b36:	02dd      	lsls	r5, r3, #11
 8000b38:	d42f      	bmi.n	8000b9a <HAL_ADC_ConfigChannel+0x17a>
 8000b3a:	029d      	lsls	r5, r3, #10
 8000b3c:	d42f      	bmi.n	8000b9e <HAL_ADC_ConfigChannel+0x17e>
 8000b3e:	2580      	movs	r5, #128	@ 0x80
 8000b40:	03ed      	lsls	r5, r5, #15
 8000b42:	001e      	movs	r6, r3
 8000b44:	402e      	ands	r6, r5
 8000b46:	422b      	tst	r3, r5
 8000b48:	d0a0      	beq.n	8000a8c <HAL_ADC_ConfigChannel+0x6c>
 8000b4a:	2616      	movs	r6, #22
 8000b4c:	e79e      	b.n	8000a8c <HAL_ADC_ConfigChannel+0x6c>
 8000b4e:	2601      	movs	r6, #1
 8000b50:	e79c      	b.n	8000a8c <HAL_ADC_ConfigChannel+0x6c>
 8000b52:	2602      	movs	r6, #2
 8000b54:	e79a      	b.n	8000a8c <HAL_ADC_ConfigChannel+0x6c>
 8000b56:	2603      	movs	r6, #3
 8000b58:	e798      	b.n	8000a8c <HAL_ADC_ConfigChannel+0x6c>
 8000b5a:	2604      	movs	r6, #4
 8000b5c:	e796      	b.n	8000a8c <HAL_ADC_ConfigChannel+0x6c>
 8000b5e:	2605      	movs	r6, #5
 8000b60:	e794      	b.n	8000a8c <HAL_ADC_ConfigChannel+0x6c>
 8000b62:	2606      	movs	r6, #6
 8000b64:	e792      	b.n	8000a8c <HAL_ADC_ConfigChannel+0x6c>
 8000b66:	2607      	movs	r6, #7
 8000b68:	e790      	b.n	8000a8c <HAL_ADC_ConfigChannel+0x6c>
 8000b6a:	2608      	movs	r6, #8
 8000b6c:	e78e      	b.n	8000a8c <HAL_ADC_ConfigChannel+0x6c>
 8000b6e:	2609      	movs	r6, #9
 8000b70:	e78c      	b.n	8000a8c <HAL_ADC_ConfigChannel+0x6c>
 8000b72:	260a      	movs	r6, #10
 8000b74:	e78a      	b.n	8000a8c <HAL_ADC_ConfigChannel+0x6c>
 8000b76:	260b      	movs	r6, #11
 8000b78:	e788      	b.n	8000a8c <HAL_ADC_ConfigChannel+0x6c>
 8000b7a:	260c      	movs	r6, #12
 8000b7c:	e786      	b.n	8000a8c <HAL_ADC_ConfigChannel+0x6c>
 8000b7e:	260d      	movs	r6, #13
 8000b80:	e784      	b.n	8000a8c <HAL_ADC_ConfigChannel+0x6c>
 8000b82:	260e      	movs	r6, #14
 8000b84:	e782      	b.n	8000a8c <HAL_ADC_ConfigChannel+0x6c>
 8000b86:	260f      	movs	r6, #15
 8000b88:	e780      	b.n	8000a8c <HAL_ADC_ConfigChannel+0x6c>
 8000b8a:	2610      	movs	r6, #16
 8000b8c:	e77e      	b.n	8000a8c <HAL_ADC_ConfigChannel+0x6c>
 8000b8e:	2611      	movs	r6, #17
 8000b90:	e77c      	b.n	8000a8c <HAL_ADC_ConfigChannel+0x6c>
 8000b92:	2612      	movs	r6, #18
 8000b94:	e77a      	b.n	8000a8c <HAL_ADC_ConfigChannel+0x6c>
 8000b96:	2613      	movs	r6, #19
 8000b98:	e778      	b.n	8000a8c <HAL_ADC_ConfigChannel+0x6c>
 8000b9a:	2614      	movs	r6, #20
 8000b9c:	e776      	b.n	8000a8c <HAL_ADC_ConfigChannel+0x6c>
 8000b9e:	2615      	movs	r6, #21
 8000ba0:	e774      	b.n	8000a8c <HAL_ADC_ConfigChannel+0x6c>
 8000ba2:	4a39      	ldr	r2, [pc, #228]	@ (8000c88 <HAL_ADC_ConfigChannel+0x268>)
 8000ba4:	6811      	ldr	r1, [r2, #0]
 8000ba6:	22c0      	movs	r2, #192	@ 0xc0
 8000ba8:	0412      	lsls	r2, r2, #16
 8000baa:	400a      	ands	r2, r1
 8000bac:	4837      	ldr	r0, [pc, #220]	@ (8000c8c <HAL_ADC_ConfigChannel+0x26c>)
 8000bae:	4283      	cmp	r3, r0
 8000bb0:	d004      	beq.n	8000bbc <HAL_ADC_ConfigChannel+0x19c>
 8000bb2:	4837      	ldr	r0, [pc, #220]	@ (8000c90 <HAL_ADC_ConfigChannel+0x270>)
 8000bb4:	4283      	cmp	r3, r0
 8000bb6:	d01f      	beq.n	8000bf8 <HAL_ADC_ConfigChannel+0x1d8>
 8000bb8:	2000      	movs	r0, #0
 8000bba:	e74b      	b.n	8000a54 <HAL_ADC_ConfigChannel+0x34>
 8000bbc:	0208      	lsls	r0, r1, #8
 8000bbe:	d4f8      	bmi.n	8000bb2 <HAL_ADC_ConfigChannel+0x192>
 8000bc0:	2380      	movs	r3, #128	@ 0x80
 8000bc2:	041b      	lsls	r3, r3, #16
 8000bc4:	4313      	orrs	r3, r2
 8000bc6:	4930      	ldr	r1, [pc, #192]	@ (8000c88 <HAL_ADC_ConfigChannel+0x268>)
 8000bc8:	680a      	ldr	r2, [r1, #0]
 8000bca:	4832      	ldr	r0, [pc, #200]	@ (8000c94 <HAL_ADC_ConfigChannel+0x274>)
 8000bcc:	4002      	ands	r2, r0
 8000bce:	4313      	orrs	r3, r2
 8000bd0:	600b      	str	r3, [r1, #0]
 8000bd2:	4b31      	ldr	r3, [pc, #196]	@ (8000c98 <HAL_ADC_ConfigChannel+0x278>)
 8000bd4:	6818      	ldr	r0, [r3, #0]
 8000bd6:	4931      	ldr	r1, [pc, #196]	@ (8000c9c <HAL_ADC_ConfigChannel+0x27c>)
 8000bd8:	f7ff fa84 	bl	80000e4 <__udivsi3>
 8000bdc:	0043      	lsls	r3, r0, #1
 8000bde:	181b      	adds	r3, r3, r0
 8000be0:	009b      	lsls	r3, r3, #2
 8000be2:	3301      	adds	r3, #1
 8000be4:	9301      	str	r3, [sp, #4]
 8000be6:	e002      	b.n	8000bee <HAL_ADC_ConfigChannel+0x1ce>
 8000be8:	9b01      	ldr	r3, [sp, #4]
 8000bea:	3b01      	subs	r3, #1
 8000bec:	9301      	str	r3, [sp, #4]
 8000bee:	9b01      	ldr	r3, [sp, #4]
 8000bf0:	2b00      	cmp	r3, #0
 8000bf2:	d1f9      	bne.n	8000be8 <HAL_ADC_ConfigChannel+0x1c8>
 8000bf4:	2000      	movs	r0, #0
 8000bf6:	e72d      	b.n	8000a54 <HAL_ADC_ConfigChannel+0x34>
 8000bf8:	0249      	lsls	r1, r1, #9
 8000bfa:	d43c      	bmi.n	8000c76 <HAL_ADC_ConfigChannel+0x256>
 8000bfc:	2380      	movs	r3, #128	@ 0x80
 8000bfe:	03db      	lsls	r3, r3, #15
 8000c00:	4313      	orrs	r3, r2
 8000c02:	4921      	ldr	r1, [pc, #132]	@ (8000c88 <HAL_ADC_ConfigChannel+0x268>)
 8000c04:	680a      	ldr	r2, [r1, #0]
 8000c06:	4823      	ldr	r0, [pc, #140]	@ (8000c94 <HAL_ADC_ConfigChannel+0x274>)
 8000c08:	4002      	ands	r2, r0
 8000c0a:	4313      	orrs	r3, r2
 8000c0c:	600b      	str	r3, [r1, #0]
 8000c0e:	2000      	movs	r0, #0
 8000c10:	e720      	b.n	8000a54 <HAL_ADC_ConfigChannel+0x34>
 8000c12:	2380      	movs	r3, #128	@ 0x80
 8000c14:	061b      	lsls	r3, r3, #24
 8000c16:	429d      	cmp	r5, r3
 8000c18:	d002      	beq.n	8000c20 <HAL_ADC_ConfigChannel+0x200>
 8000c1a:	4b19      	ldr	r3, [pc, #100]	@ (8000c80 <HAL_ADC_ConfigChannel+0x260>)
 8000c1c:	429d      	cmp	r5, r3
 8000c1e:	d105      	bne.n	8000c2c <HAL_ADC_ConfigChannel+0x20c>
 8000c20:	680b      	ldr	r3, [r1, #0]
 8000c22:	6a82      	ldr	r2, [r0, #40]	@ 0x28
 8000c24:	025b      	lsls	r3, r3, #9
 8000c26:	0a5b      	lsrs	r3, r3, #9
 8000c28:	439a      	bics	r2, r3
 8000c2a:	6282      	str	r2, [r0, #40]	@ 0x28
 8000c2c:	680b      	ldr	r3, [r1, #0]
 8000c2e:	2b00      	cmp	r3, #0
 8000c30:	db01      	blt.n	8000c36 <HAL_ADC_ConfigChannel+0x216>
 8000c32:	2000      	movs	r0, #0
 8000c34:	e70e      	b.n	8000a54 <HAL_ADC_ConfigChannel+0x34>
 8000c36:	4a14      	ldr	r2, [pc, #80]	@ (8000c88 <HAL_ADC_ConfigChannel+0x268>)
 8000c38:	6812      	ldr	r2, [r2, #0]
 8000c3a:	4914      	ldr	r1, [pc, #80]	@ (8000c8c <HAL_ADC_ConfigChannel+0x26c>)
 8000c3c:	428b      	cmp	r3, r1
 8000c3e:	d004      	beq.n	8000c4a <HAL_ADC_ConfigChannel+0x22a>
 8000c40:	4913      	ldr	r1, [pc, #76]	@ (8000c90 <HAL_ADC_ConfigChannel+0x270>)
 8000c42:	428b      	cmp	r3, r1
 8000c44:	d00c      	beq.n	8000c60 <HAL_ADC_ConfigChannel+0x240>
 8000c46:	2000      	movs	r0, #0
 8000c48:	e704      	b.n	8000a54 <HAL_ADC_ConfigChannel+0x34>
 8000c4a:	2380      	movs	r3, #128	@ 0x80
 8000c4c:	03db      	lsls	r3, r3, #15
 8000c4e:	401a      	ands	r2, r3
 8000c50:	490d      	ldr	r1, [pc, #52]	@ (8000c88 <HAL_ADC_ConfigChannel+0x268>)
 8000c52:	680b      	ldr	r3, [r1, #0]
 8000c54:	480f      	ldr	r0, [pc, #60]	@ (8000c94 <HAL_ADC_ConfigChannel+0x274>)
 8000c56:	4003      	ands	r3, r0
 8000c58:	431a      	orrs	r2, r3
 8000c5a:	600a      	str	r2, [r1, #0]
 8000c5c:	2000      	movs	r0, #0
 8000c5e:	e6f9      	b.n	8000a54 <HAL_ADC_ConfigChannel+0x34>
 8000c60:	2380      	movs	r3, #128	@ 0x80
 8000c62:	041b      	lsls	r3, r3, #16
 8000c64:	401a      	ands	r2, r3
 8000c66:	4908      	ldr	r1, [pc, #32]	@ (8000c88 <HAL_ADC_ConfigChannel+0x268>)
 8000c68:	680b      	ldr	r3, [r1, #0]
 8000c6a:	480a      	ldr	r0, [pc, #40]	@ (8000c94 <HAL_ADC_ConfigChannel+0x274>)
 8000c6c:	4003      	ands	r3, r0
 8000c6e:	431a      	orrs	r2, r3
 8000c70:	600a      	str	r2, [r1, #0]
 8000c72:	2000      	movs	r0, #0
 8000c74:	e6ee      	b.n	8000a54 <HAL_ADC_ConfigChannel+0x34>
 8000c76:	2000      	movs	r0, #0
 8000c78:	e6ec      	b.n	8000a54 <HAL_ADC_ConfigChannel+0x34>
 8000c7a:	2002      	movs	r0, #2
 8000c7c:	e6ed      	b.n	8000a5a <HAL_ADC_ConfigChannel+0x3a>
 8000c7e:	46c0      	nop			@ (mov r8, r8)
 8000c80:	80000004 	.word	0x80000004
 8000c84:	7fffff00 	.word	0x7fffff00
 8000c88:	40012708 	.word	0x40012708
 8000c8c:	a4000200 	.word	0xa4000200
 8000c90:	a8000400 	.word	0xa8000400
 8000c94:	ff3fffff 	.word	0xff3fffff
 8000c98:	20000008 	.word	0x20000008
 8000c9c:	00030d40 	.word	0x00030d40

08000ca0 <ADC_Enable>:
 8000ca0:	b530      	push	{r4, r5, lr}
 8000ca2:	b083      	sub	sp, #12
 8000ca4:	0004      	movs	r4, r0
 8000ca6:	2300      	movs	r3, #0
 8000ca8:	9301      	str	r3, [sp, #4]
 8000caa:	6803      	ldr	r3, [r0, #0]
 8000cac:	689a      	ldr	r2, [r3, #8]
 8000cae:	07d2      	lsls	r2, r2, #31
 8000cb0:	d44d      	bmi.n	8000d4e <ADC_Enable+0xae>
 8000cb2:	6899      	ldr	r1, [r3, #8]
 8000cb4:	4a27      	ldr	r2, [pc, #156]	@ (8000d54 <ADC_Enable+0xb4>)
 8000cb6:	4211      	tst	r1, r2
 8000cb8:	d117      	bne.n	8000cea <ADC_Enable+0x4a>
 8000cba:	689a      	ldr	r2, [r3, #8]
 8000cbc:	4926      	ldr	r1, [pc, #152]	@ (8000d58 <ADC_Enable+0xb8>)
 8000cbe:	400a      	ands	r2, r1
 8000cc0:	2101      	movs	r1, #1
 8000cc2:	430a      	orrs	r2, r1
 8000cc4:	609a      	str	r2, [r3, #8]
 8000cc6:	4b25      	ldr	r3, [pc, #148]	@ (8000d5c <ADC_Enable+0xbc>)
 8000cc8:	681b      	ldr	r3, [r3, #0]
 8000cca:	021b      	lsls	r3, r3, #8
 8000ccc:	d517      	bpl.n	8000cfe <ADC_Enable+0x5e>
 8000cce:	4b24      	ldr	r3, [pc, #144]	@ (8000d60 <ADC_Enable+0xc0>)
 8000cd0:	6818      	ldr	r0, [r3, #0]
 8000cd2:	4924      	ldr	r1, [pc, #144]	@ (8000d64 <ADC_Enable+0xc4>)
 8000cd4:	f7ff fa06 	bl	80000e4 <__udivsi3>
 8000cd8:	3001      	adds	r0, #1
 8000cda:	9001      	str	r0, [sp, #4]
 8000cdc:	9b01      	ldr	r3, [sp, #4]
 8000cde:	2b00      	cmp	r3, #0
 8000ce0:	d00d      	beq.n	8000cfe <ADC_Enable+0x5e>
 8000ce2:	9b01      	ldr	r3, [sp, #4]
 8000ce4:	3b01      	subs	r3, #1
 8000ce6:	9301      	str	r3, [sp, #4]
 8000ce8:	e7f8      	b.n	8000cdc <ADC_Enable+0x3c>
 8000cea:	6d83      	ldr	r3, [r0, #88]	@ 0x58
 8000cec:	2210      	movs	r2, #16
 8000cee:	4313      	orrs	r3, r2
 8000cf0:	6583      	str	r3, [r0, #88]	@ 0x58
 8000cf2:	6dc3      	ldr	r3, [r0, #92]	@ 0x5c
 8000cf4:	3a0f      	subs	r2, #15
 8000cf6:	4313      	orrs	r3, r2
 8000cf8:	65c3      	str	r3, [r0, #92]	@ 0x5c
 8000cfa:	2001      	movs	r0, #1
 8000cfc:	e028      	b.n	8000d50 <ADC_Enable+0xb0>
 8000cfe:	7e63      	ldrb	r3, [r4, #25]
 8000d00:	2b01      	cmp	r3, #1
 8000d02:	d101      	bne.n	8000d08 <ADC_Enable+0x68>
 8000d04:	2000      	movs	r0, #0
 8000d06:	e023      	b.n	8000d50 <ADC_Enable+0xb0>
 8000d08:	f7ff fd10 	bl	800072c <HAL_GetTick>
 8000d0c:	0005      	movs	r5, r0
 8000d0e:	e004      	b.n	8000d1a <ADC_Enable+0x7a>
 8000d10:	f7ff fd0c 	bl	800072c <HAL_GetTick>
 8000d14:	1b40      	subs	r0, r0, r5
 8000d16:	2802      	cmp	r0, #2
 8000d18:	d80d      	bhi.n	8000d36 <ADC_Enable+0x96>
 8000d1a:	6823      	ldr	r3, [r4, #0]
 8000d1c:	681a      	ldr	r2, [r3, #0]
 8000d1e:	07d2      	lsls	r2, r2, #31
 8000d20:	d413      	bmi.n	8000d4a <ADC_Enable+0xaa>
 8000d22:	689a      	ldr	r2, [r3, #8]
 8000d24:	07d2      	lsls	r2, r2, #31
 8000d26:	d4f3      	bmi.n	8000d10 <ADC_Enable+0x70>
 8000d28:	689a      	ldr	r2, [r3, #8]
 8000d2a:	490b      	ldr	r1, [pc, #44]	@ (8000d58 <ADC_Enable+0xb8>)
 8000d2c:	400a      	ands	r2, r1
 8000d2e:	2101      	movs	r1, #1
 8000d30:	430a      	orrs	r2, r1
 8000d32:	609a      	str	r2, [r3, #8]
 8000d34:	e7ec      	b.n	8000d10 <ADC_Enable+0x70>
 8000d36:	6da3      	ldr	r3, [r4, #88]	@ 0x58
 8000d38:	2210      	movs	r2, #16
 8000d3a:	4313      	orrs	r3, r2
 8000d3c:	65a3      	str	r3, [r4, #88]	@ 0x58
 8000d3e:	6de3      	ldr	r3, [r4, #92]	@ 0x5c
 8000d40:	3a0f      	subs	r2, #15
 8000d42:	4313      	orrs	r3, r2
 8000d44:	65e3      	str	r3, [r4, #92]	@ 0x5c
 8000d46:	2001      	movs	r0, #1
 8000d48:	e002      	b.n	8000d50 <ADC_Enable+0xb0>
 8000d4a:	2000      	movs	r0, #0
 8000d4c:	e000      	b.n	8000d50 <ADC_Enable+0xb0>
 8000d4e:	2000      	movs	r0, #0
 8000d50:	b003      	add	sp, #12
 8000d52:	bd30      	pop	{r4, r5, pc}
 8000d54:	80000017 	.word	0x80000017
 8000d58:	7fffffe8 	.word	0x7fffffe8
 8000d5c:	40012708 	.word	0x40012708
 8000d60:	20000008 	.word	0x20000008
 8000d64:	00030d40 	.word	0x00030d40

08000d68 <HAL_ADC_Start_DMA>:
 8000d68:	b570      	push	{r4, r5, r6, lr}
 8000d6a:	0004      	movs	r4, r0
 8000d6c:	000d      	movs	r5, r1
 8000d6e:	0016      	movs	r6, r2
 8000d70:	6802      	ldr	r2, [r0, #0]
 8000d72:	6893      	ldr	r3, [r2, #8]
 8000d74:	075b      	lsls	r3, r3, #29
 8000d76:	d447      	bmi.n	8000e08 <HAL_ADC_Start_DMA+0xa0>
 8000d78:	2354      	movs	r3, #84	@ 0x54
 8000d7a:	5cc3      	ldrb	r3, [r0, r3]
 8000d7c:	2b01      	cmp	r3, #1
 8000d7e:	d045      	beq.n	8000e0c <HAL_ADC_Start_DMA+0xa4>
 8000d80:	2301      	movs	r3, #1
 8000d82:	2154      	movs	r1, #84	@ 0x54
 8000d84:	5443      	strb	r3, [r0, r1]
 8000d86:	68d1      	ldr	r1, [r2, #12]
 8000d88:	420b      	tst	r3, r1
 8000d8a:	d10d      	bne.n	8000da8 <HAL_ADC_Start_DMA+0x40>
 8000d8c:	6893      	ldr	r3, [r2, #8]
 8000d8e:	07db      	lsls	r3, r3, #31
 8000d90:	d505      	bpl.n	8000d9e <HAL_ADC_Start_DMA+0x36>
 8000d92:	6893      	ldr	r3, [r2, #8]
 8000d94:	491e      	ldr	r1, [pc, #120]	@ (8000e10 <HAL_ADC_Start_DMA+0xa8>)
 8000d96:	400b      	ands	r3, r1
 8000d98:	2102      	movs	r1, #2
 8000d9a:	430b      	orrs	r3, r1
 8000d9c:	6093      	str	r3, [r2, #8]
 8000d9e:	6822      	ldr	r2, [r4, #0]
 8000da0:	68d3      	ldr	r3, [r2, #12]
 8000da2:	2101      	movs	r1, #1
 8000da4:	430b      	orrs	r3, r1
 8000da6:	60d3      	str	r3, [r2, #12]
 8000da8:	0020      	movs	r0, r4
 8000daa:	f7ff ff79 	bl	8000ca0 <ADC_Enable>
 8000dae:	2800      	cmp	r0, #0
 8000db0:	d12b      	bne.n	8000e0a <HAL_ADC_Start_DMA+0xa2>
 8000db2:	6da2      	ldr	r2, [r4, #88]	@ 0x58
 8000db4:	4b17      	ldr	r3, [pc, #92]	@ (8000e14 <HAL_ADC_Start_DMA+0xac>)
 8000db6:	401a      	ands	r2, r3
 8000db8:	2380      	movs	r3, #128	@ 0x80
 8000dba:	005b      	lsls	r3, r3, #1
 8000dbc:	4313      	orrs	r3, r2
 8000dbe:	65a3      	str	r3, [r4, #88]	@ 0x58
 8000dc0:	2300      	movs	r3, #0
 8000dc2:	65e3      	str	r3, [r4, #92]	@ 0x5c
 8000dc4:	6d22      	ldr	r2, [r4, #80]	@ 0x50
 8000dc6:	4914      	ldr	r1, [pc, #80]	@ (8000e18 <HAL_ADC_Start_DMA+0xb0>)
 8000dc8:	62d1      	str	r1, [r2, #44]	@ 0x2c
 8000dca:	6d22      	ldr	r2, [r4, #80]	@ 0x50
 8000dcc:	4913      	ldr	r1, [pc, #76]	@ (8000e1c <HAL_ADC_Start_DMA+0xb4>)
 8000dce:	6311      	str	r1, [r2, #48]	@ 0x30
 8000dd0:	6d22      	ldr	r2, [r4, #80]	@ 0x50
 8000dd2:	4913      	ldr	r1, [pc, #76]	@ (8000e20 <HAL_ADC_Start_DMA+0xb8>)
 8000dd4:	6351      	str	r1, [r2, #52]	@ 0x34
 8000dd6:	6822      	ldr	r2, [r4, #0]
 8000dd8:	211c      	movs	r1, #28
 8000dda:	6011      	str	r1, [r2, #0]
 8000ddc:	2254      	movs	r2, #84	@ 0x54
 8000dde:	54a3      	strb	r3, [r4, r2]
 8000de0:	6822      	ldr	r2, [r4, #0]
 8000de2:	6853      	ldr	r3, [r2, #4]
 8000de4:	390c      	subs	r1, #12
 8000de6:	430b      	orrs	r3, r1
 8000de8:	6053      	str	r3, [r2, #4]
 8000dea:	6821      	ldr	r1, [r4, #0]
 8000dec:	3140      	adds	r1, #64	@ 0x40
 8000dee:	6d20      	ldr	r0, [r4, #80]	@ 0x50
 8000df0:	0033      	movs	r3, r6
 8000df2:	002a      	movs	r2, r5
 8000df4:	f000 fa26 	bl	8001244 <HAL_DMA_Start_IT>
 8000df8:	6822      	ldr	r2, [r4, #0]
 8000dfa:	6893      	ldr	r3, [r2, #8]
 8000dfc:	4904      	ldr	r1, [pc, #16]	@ (8000e10 <HAL_ADC_Start_DMA+0xa8>)
 8000dfe:	400b      	ands	r3, r1
 8000e00:	2104      	movs	r1, #4
 8000e02:	430b      	orrs	r3, r1
 8000e04:	6093      	str	r3, [r2, #8]
 8000e06:	e000      	b.n	8000e0a <HAL_ADC_Start_DMA+0xa2>
 8000e08:	2002      	movs	r0, #2
 8000e0a:	bd70      	pop	{r4, r5, r6, pc}
 8000e0c:	2002      	movs	r0, #2
 8000e0e:	e7fc      	b.n	8000e0a <HAL_ADC_Start_DMA+0xa2>
 8000e10:	7fffffe8 	.word	0x7fffffe8
 8000e14:	fffff0fe 	.word	0xfffff0fe
 8000e18:	080009a1 	.word	0x080009a1
 8000e1c:	0800097b 	.word	0x0800097b
 8000e20:	08000987 	.word	0x08000987

08000e24 <ADC_Disable>:
 8000e24:	b570      	push	{r4, r5, r6, lr}
 8000e26:	0004      	movs	r4, r0
 8000e28:	6803      	ldr	r3, [r0, #0]
 8000e2a:	689a      	ldr	r2, [r3, #8]
 8000e2c:	2102      	movs	r1, #2
 8000e2e:	0008      	movs	r0, r1
 8000e30:	4010      	ands	r0, r2
 8000e32:	4211      	tst	r1, r2
 8000e34:	d000      	beq.n	8000e38 <ADC_Disable+0x14>
 8000e36:	2001      	movs	r0, #1
 8000e38:	689a      	ldr	r2, [r3, #8]
 8000e3a:	07d2      	lsls	r2, r2, #31
 8000e3c:	d531      	bpl.n	8000ea2 <ADC_Disable+0x7e>
 8000e3e:	2800      	cmp	r0, #0
 8000e40:	d131      	bne.n	8000ea6 <ADC_Disable+0x82>
 8000e42:	6899      	ldr	r1, [r3, #8]
 8000e44:	2205      	movs	r2, #5
 8000e46:	400a      	ands	r2, r1
 8000e48:	2a01      	cmp	r2, #1
 8000e4a:	d009      	beq.n	8000e60 <ADC_Disable+0x3c>
 8000e4c:	6da3      	ldr	r3, [r4, #88]	@ 0x58
 8000e4e:	2210      	movs	r2, #16
 8000e50:	4313      	orrs	r3, r2
 8000e52:	65a3      	str	r3, [r4, #88]	@ 0x58
 8000e54:	6de3      	ldr	r3, [r4, #92]	@ 0x5c
 8000e56:	3a0f      	subs	r2, #15
 8000e58:	4313      	orrs	r3, r2
 8000e5a:	65e3      	str	r3, [r4, #92]	@ 0x5c
 8000e5c:	2001      	movs	r0, #1
 8000e5e:	e021      	b.n	8000ea4 <ADC_Disable+0x80>
 8000e60:	689a      	ldr	r2, [r3, #8]
 8000e62:	4912      	ldr	r1, [pc, #72]	@ (8000eac <ADC_Disable+0x88>)
 8000e64:	400a      	ands	r2, r1
 8000e66:	2102      	movs	r1, #2
 8000e68:	430a      	orrs	r2, r1
 8000e6a:	609a      	str	r2, [r3, #8]
 8000e6c:	6823      	ldr	r3, [r4, #0]
 8000e6e:	2203      	movs	r2, #3
 8000e70:	601a      	str	r2, [r3, #0]
 8000e72:	f7ff fc5b 	bl	800072c <HAL_GetTick>
 8000e76:	0005      	movs	r5, r0
 8000e78:	6823      	ldr	r3, [r4, #0]
 8000e7a:	689b      	ldr	r3, [r3, #8]
 8000e7c:	07db      	lsls	r3, r3, #31
 8000e7e:	d50e      	bpl.n	8000e9e <ADC_Disable+0x7a>
 8000e80:	f7ff fc54 	bl	800072c <HAL_GetTick>
 8000e84:	1b40      	subs	r0, r0, r5
 8000e86:	2802      	cmp	r0, #2
 8000e88:	d9f6      	bls.n	8000e78 <ADC_Disable+0x54>
 8000e8a:	6da3      	ldr	r3, [r4, #88]	@ 0x58
 8000e8c:	2210      	movs	r2, #16
 8000e8e:	4313      	orrs	r3, r2
 8000e90:	65a3      	str	r3, [r4, #88]	@ 0x58
 8000e92:	6de3      	ldr	r3, [r4, #92]	@ 0x5c
 8000e94:	3a0f      	subs	r2, #15
 8000e96:	4313      	orrs	r3, r2
 8000e98:	65e3      	str	r3, [r4, #92]	@ 0x5c
 8000e9a:	2001      	movs	r0, #1
 8000e9c:	e002      	b.n	8000ea4 <ADC_Disable+0x80>
 8000e9e:	2000      	movs	r0, #0
 8000ea0:	e000      	b.n	8000ea4 <ADC_Disable+0x80>
 8000ea2:	2000      	movs	r0, #0
 8000ea4:	bd70      	pop	{r4, r5, r6, pc}
 8000ea6:	2000      	movs	r0, #0
 8000ea8:	e7fc      	b.n	8000ea4 <ADC_Disable+0x80>
 8000eaa:	46c0      	nop			@ (mov r8, r8)
 8000eac:	7fffffe8 	.word	0x7fffffe8

08000eb0 <HAL_ADCEx_Calibration_Start>:
 8000eb0:	b5f0      	push	{r4, r5, r6, r7, lr}
 8000eb2:	b083      	sub	sp, #12
 8000eb4:	0004      	movs	r4, r0
 8000eb6:	2300      	movs	r3, #0
 8000eb8:	9301      	str	r3, [sp, #4]
 8000eba:	3354      	adds	r3, #84	@ 0x54
 8000ebc:	5cc3      	ldrb	r3, [r0, r3]
 8000ebe:	2b01      	cmp	r3, #1
 8000ec0:	d100      	bne.n	8000ec4 <HAL_ADCEx_Calibration_Start+0x14>
 8000ec2:	e0a6      	b.n	8001012 <HAL_ADCEx_Calibration_Start+0x162>
 8000ec4:	2601      	movs	r6, #1
 8000ec6:	2354      	movs	r3, #84	@ 0x54
 8000ec8:	54c6      	strb	r6, [r0, r3]
 8000eca:	f7ff ffab 	bl	8000e24 <ADC_Disable>
 8000ece:	0005      	movs	r5, r0
 8000ed0:	6823      	ldr	r3, [r4, #0]
 8000ed2:	689a      	ldr	r2, [r3, #8]
 8000ed4:	0031      	movs	r1, r6
 8000ed6:	4011      	ands	r1, r2
 8000ed8:	4216      	tst	r6, r2
 8000eda:	d009      	beq.n	8000ef0 <HAL_ADCEx_Calibration_Start+0x40>
 8000edc:	6da3      	ldr	r3, [r4, #88]	@ 0x58
 8000ede:	2210      	movs	r2, #16
 8000ee0:	4313      	orrs	r3, r2
 8000ee2:	65a3      	str	r3, [r4, #88]	@ 0x58
 8000ee4:	2354      	movs	r3, #84	@ 0x54
 8000ee6:	2200      	movs	r2, #0
 8000ee8:	54e2      	strb	r2, [r4, r3]
 8000eea:	0028      	movs	r0, r5
 8000eec:	b003      	add	sp, #12
 8000eee:	bdf0      	pop	{r4, r5, r6, r7, pc}
 8000ef0:	6da2      	ldr	r2, [r4, #88]	@ 0x58
 8000ef2:	4849      	ldr	r0, [pc, #292]	@ (8001018 <HAL_ADCEx_Calibration_Start+0x168>)
 8000ef4:	4002      	ands	r2, r0
 8000ef6:	3006      	adds	r0, #6
 8000ef8:	30ff      	adds	r0, #255	@ 0xff
 8000efa:	4302      	orrs	r2, r0
 8000efc:	65a2      	str	r2, [r4, #88]	@ 0x58
 8000efe:	68de      	ldr	r6, [r3, #12]
 8000f00:	4a46      	ldr	r2, [pc, #280]	@ (800101c <HAL_ADCEx_Calibration_Start+0x16c>)
 8000f02:	4016      	ands	r6, r2
 8000f04:	68da      	ldr	r2, [r3, #12]
 8000f06:	4846      	ldr	r0, [pc, #280]	@ (8001020 <HAL_ADCEx_Calibration_Start+0x170>)
 8000f08:	4002      	ands	r2, r0
 8000f0a:	60da      	str	r2, [r3, #12]
 8000f0c:	0008      	movs	r0, r1
 8000f0e:	e006      	b.n	8000f1e <HAL_ADCEx_Calibration_Start+0x6e>
 8000f10:	22b4      	movs	r2, #180	@ 0xb4
 8000f12:	589a      	ldr	r2, [r3, r2]
 8000f14:	237f      	movs	r3, #127	@ 0x7f
 8000f16:	4013      	ands	r3, r2
 8000f18:	3301      	adds	r3, #1
 8000f1a:	18c0      	adds	r0, r0, r3
 8000f1c:	3101      	adds	r1, #1
 8000f1e:	2907      	cmp	r1, #7
 8000f20:	d81d      	bhi.n	8000f5e <HAL_ADCEx_Calibration_Start+0xae>
 8000f22:	6827      	ldr	r7, [r4, #0]
 8000f24:	68ba      	ldr	r2, [r7, #8]
 8000f26:	4b3f      	ldr	r3, [pc, #252]	@ (8001024 <HAL_ADCEx_Calibration_Start+0x174>)
 8000f28:	401a      	ands	r2, r3
 8000f2a:	3318      	adds	r3, #24
 8000f2c:	4313      	orrs	r3, r2
 8000f2e:	60bb      	str	r3, [r7, #8]
 8000f30:	6823      	ldr	r3, [r4, #0]
 8000f32:	689a      	ldr	r2, [r3, #8]
 8000f34:	2a00      	cmp	r2, #0
 8000f36:	daeb      	bge.n	8000f10 <HAL_ADCEx_Calibration_Start+0x60>
 8000f38:	9b01      	ldr	r3, [sp, #4]
 8000f3a:	3301      	adds	r3, #1
 8000f3c:	9301      	str	r3, [sp, #4]
 8000f3e:	9a01      	ldr	r2, [sp, #4]
 8000f40:	23ae      	movs	r3, #174	@ 0xae
 8000f42:	029b      	lsls	r3, r3, #10
 8000f44:	429a      	cmp	r2, r3
 8000f46:	d3f3      	bcc.n	8000f30 <HAL_ADCEx_Calibration_Start+0x80>
 8000f48:	6da3      	ldr	r3, [r4, #88]	@ 0x58
 8000f4a:	2212      	movs	r2, #18
 8000f4c:	4393      	bics	r3, r2
 8000f4e:	3a02      	subs	r2, #2
 8000f50:	4313      	orrs	r3, r2
 8000f52:	65a3      	str	r3, [r4, #88]	@ 0x58
 8000f54:	2354      	movs	r3, #84	@ 0x54
 8000f56:	2200      	movs	r2, #0
 8000f58:	54e2      	strb	r2, [r4, r3]
 8000f5a:	2501      	movs	r5, #1
 8000f5c:	e7c5      	b.n	8000eea <HAL_ADCEx_Calibration_Start+0x3a>
 8000f5e:	084b      	lsrs	r3, r1, #1
 8000f60:	1818      	adds	r0, r3, r0
 8000f62:	f7ff f8bf 	bl	80000e4 <__udivsi3>
 8000f66:	6822      	ldr	r2, [r4, #0]
 8000f68:	6893      	ldr	r3, [r2, #8]
 8000f6a:	492e      	ldr	r1, [pc, #184]	@ (8001024 <HAL_ADCEx_Calibration_Start+0x174>)
 8000f6c:	400b      	ands	r3, r1
 8000f6e:	2101      	movs	r1, #1
 8000f70:	430b      	orrs	r3, r1
 8000f72:	6093      	str	r3, [r2, #8]
 8000f74:	6822      	ldr	r2, [r4, #0]
 8000f76:	6911      	ldr	r1, [r2, #16]
 8000f78:	2380      	movs	r3, #128	@ 0x80
 8000f7a:	05db      	lsls	r3, r3, #23
 8000f7c:	4299      	cmp	r1, r3
 8000f7e:	d217      	bcs.n	8000fb0 <HAL_ADCEx_Calibration_Start+0x100>
 8000f80:	4b29      	ldr	r3, [pc, #164]	@ (8001028 <HAL_ADCEx_Calibration_Start+0x178>)
 8000f82:	681b      	ldr	r3, [r3, #0]
 8000f84:	21f0      	movs	r1, #240	@ 0xf0
 8000f86:	0389      	lsls	r1, r1, #14
 8000f88:	400b      	ands	r3, r1
 8000f8a:	21e0      	movs	r1, #224	@ 0xe0
 8000f8c:	0349      	lsls	r1, r1, #13
 8000f8e:	428b      	cmp	r3, r1
 8000f90:	d30e      	bcc.n	8000fb0 <HAL_ADCEx_Calibration_Start+0x100>
 8000f92:	0c9b      	lsrs	r3, r3, #18
 8000f94:	3b03      	subs	r3, #3
 8000f96:	2101      	movs	r1, #1
 8000f98:	4099      	lsls	r1, r3
 8000f9a:	9100      	str	r1, [sp, #0]
 8000f9c:	9b00      	ldr	r3, [sp, #0]
 8000f9e:	085b      	lsrs	r3, r3, #1
 8000fa0:	9300      	str	r3, [sp, #0]
 8000fa2:	e002      	b.n	8000faa <HAL_ADCEx_Calibration_Start+0xfa>
 8000fa4:	9b00      	ldr	r3, [sp, #0]
 8000fa6:	3b01      	subs	r3, #1
 8000fa8:	9300      	str	r3, [sp, #0]
 8000faa:	9b00      	ldr	r3, [sp, #0]
 8000fac:	2b00      	cmp	r3, #0
 8000fae:	d1f9      	bne.n	8000fa4 <HAL_ADCEx_Calibration_Start+0xf4>
 8000fb0:	21b4      	movs	r1, #180	@ 0xb4
 8000fb2:	5853      	ldr	r3, [r2, r1]
 8000fb4:	277f      	movs	r7, #127	@ 0x7f
 8000fb6:	43bb      	bics	r3, r7
 8000fb8:	4318      	orrs	r0, r3
 8000fba:	5050      	str	r0, [r2, r1]
 8000fbc:	6822      	ldr	r2, [r4, #0]
 8000fbe:	6893      	ldr	r3, [r2, #8]
 8000fc0:	4918      	ldr	r1, [pc, #96]	@ (8001024 <HAL_ADCEx_Calibration_Start+0x174>)
 8000fc2:	400b      	ands	r3, r1
 8000fc4:	2102      	movs	r1, #2
 8000fc6:	430b      	orrs	r3, r1
 8000fc8:	6093      	str	r3, [r2, #8]
 8000fca:	f7ff fbaf 	bl	800072c <HAL_GetTick>
 8000fce:	0007      	movs	r7, r0
 8000fd0:	6823      	ldr	r3, [r4, #0]
 8000fd2:	689a      	ldr	r2, [r3, #8]
 8000fd4:	07d2      	lsls	r2, r2, #31
 8000fd6:	d409      	bmi.n	8000fec <HAL_ADCEx_Calibration_Start+0x13c>
 8000fd8:	68da      	ldr	r2, [r3, #12]
 8000fda:	4332      	orrs	r2, r6
 8000fdc:	60da      	str	r2, [r3, #12]
 8000fde:	6da3      	ldr	r3, [r4, #88]	@ 0x58
 8000fe0:	2203      	movs	r2, #3
 8000fe2:	4393      	bics	r3, r2
 8000fe4:	3a02      	subs	r2, #2
 8000fe6:	4313      	orrs	r3, r2
 8000fe8:	65a3      	str	r3, [r4, #88]	@ 0x58
 8000fea:	e77b      	b.n	8000ee4 <HAL_ADCEx_Calibration_Start+0x34>
 8000fec:	f7ff fb9e 	bl	800072c <HAL_GetTick>
 8000ff0:	1bc0      	subs	r0, r0, r7
 8000ff2:	2802      	cmp	r0, #2
 8000ff4:	d9ec      	bls.n	8000fd0 <HAL_ADCEx_Calibration_Start+0x120>
 8000ff6:	6823      	ldr	r3, [r4, #0]
 8000ff8:	689b      	ldr	r3, [r3, #8]
 8000ffa:	07db      	lsls	r3, r3, #31
 8000ffc:	d5e8      	bpl.n	8000fd0 <HAL_ADCEx_Calibration_Start+0x120>
 8000ffe:	6da3      	ldr	r3, [r4, #88]	@ 0x58
 8001000:	2210      	movs	r2, #16
 8001002:	4313      	orrs	r3, r2
 8001004:	65a3      	str	r3, [r4, #88]	@ 0x58
 8001006:	6de3      	ldr	r3, [r4, #92]	@ 0x5c
 8001008:	3a0f      	subs	r2, #15
 800100a:	4313      	orrs	r3, r2
 800100c:	65e3      	str	r3, [r4, #92]	@ 0x5c
 800100e:	2501      	movs	r5, #1
 8001010:	e76b      	b.n	8000eea <HAL_ADCEx_Calibration_Start+0x3a>
 8001012:	2502      	movs	r5, #2
 8001014:	e769      	b.n	8000eea <HAL_ADCEx_Calibration_Start+0x3a>
 8001016:	46c0      	nop			@ (mov r8, r8)
 8001018:	fffffefd 	.word	0xfffffefd
 800101c:	00008003 	.word	0x00008003
 8001020:	ffff7ffc 	.word	0xffff7ffc
 8001024:	7fffffe8 	.word	0x7fffffe8
 8001028:	40012708 	.word	0x40012708

0800102c <__NVIC_SetPriority>:
 800102c:	b570      	push	{r4, r5, r6, lr}
 800102e:	2800      	cmp	r0, #0
 8001030:	db11      	blt.n	8001056 <__NVIC_SetPriority+0x2a>
 8001032:	0883      	lsrs	r3, r0, #2
 8001034:	4d13      	ldr	r5, [pc, #76]	@ (8001084 <__NVIC_SetPriority+0x58>)
 8001036:	33c0      	adds	r3, #192	@ 0xc0
 8001038:	009b      	lsls	r3, r3, #2
 800103a:	595c      	ldr	r4, [r3, r5]
 800103c:	2203      	movs	r2, #3
 800103e:	4010      	ands	r0, r2
 8001040:	00c0      	lsls	r0, r0, #3
 8001042:	32fc      	adds	r2, #252	@ 0xfc
 8001044:	0016      	movs	r6, r2
 8001046:	4086      	lsls	r6, r0
 8001048:	43b4      	bics	r4, r6
 800104a:	0189      	lsls	r1, r1, #6
 800104c:	400a      	ands	r2, r1
 800104e:	4082      	lsls	r2, r0
 8001050:	4322      	orrs	r2, r4
 8001052:	515a      	str	r2, [r3, r5]
 8001054:	bd70      	pop	{r4, r5, r6, pc}
 8001056:	230f      	movs	r3, #15
 8001058:	4003      	ands	r3, r0
 800105a:	3b08      	subs	r3, #8
 800105c:	089b      	lsrs	r3, r3, #2
 800105e:	3306      	adds	r3, #6
 8001060:	009b      	lsls	r3, r3, #2
 8001062:	4a09      	ldr	r2, [pc, #36]	@ (8001088 <__NVIC_SetPriority+0x5c>)
 8001064:	4694      	mov	ip, r2
 8001066:	4463      	add	r3, ip
 8001068:	685c      	ldr	r4, [r3, #4]
 800106a:	2203      	movs	r2, #3
 800106c:	4010      	ands	r0, r2
 800106e:	00c0      	lsls	r0, r0, #3
 8001070:	32fc      	adds	r2, #252	@ 0xfc
 8001072:	0015      	movs	r5, r2
 8001074:	4085      	lsls	r5, r0
 8001076:	43ac      	bics	r4, r5
 8001078:	0189      	lsls	r1, r1, #6
 800107a:	400a      	ands	r2, r1
 800107c:	4082      	lsls	r2, r0
 800107e:	4322      	orrs	r2, r4
 8001080:	605a      	str	r2, [r3, #4]
 8001082:	e7e7      	b.n	8001054 <__NVIC_SetPriority+0x28>
 8001084:	e000e100 	.word	0xe000e100
 8001088:	e000ed00 	.word	0xe000ed00

0800108c <SysTick_Config>:
 800108c:	3801      	subs	r0, #1
 800108e:	2380      	movs	r3, #128	@ 0x80
 8001090:	045b      	lsls	r3, r3, #17
 8001092:	4298      	cmp	r0, r3
 8001094:	d20f      	bcs.n	80010b6 <SysTick_Config+0x2a>
 8001096:	4a09      	ldr	r2, [pc, #36]	@ (80010bc <SysTick_Config+0x30>)
 8001098:	6050      	str	r0, [r2, #4]
 800109a:	4809      	ldr	r0, [pc, #36]	@ (80010c0 <SysTick_Config+0x34>)
 800109c:	6a03      	ldr	r3, [r0, #32]
 800109e:	021b      	lsls	r3, r3, #8
 80010a0:	0a1b      	lsrs	r3, r3, #8
 80010a2:	21c0      	movs	r1, #192	@ 0xc0
 80010a4:	0609      	lsls	r1, r1, #24
 80010a6:	430b      	orrs	r3, r1
 80010a8:	6203      	str	r3, [r0, #32]
 80010aa:	2300      	movs	r3, #0
 80010ac:	6093      	str	r3, [r2, #8]
 80010ae:	3307      	adds	r3, #7
 80010b0:	6013      	str	r3, [r2, #0]
 80010b2:	2000      	movs	r0, #0
 80010b4:	4770      	bx	lr
 80010b6:	2001      	movs	r0, #1
 80010b8:	e7fc      	b.n	80010b4 <SysTick_Config+0x28>
 80010ba:	46c0      	nop			@ (mov r8, r8)
 80010bc:	e000e010 	.word	0xe000e010
 80010c0:	e000ed00 	.word	0xe000ed00

080010c4 <HAL_NVIC_SetPriority>:
 80010c4:	b510      	push	{r4, lr}
 80010c6:	f7ff ffb1 	bl	800102c <__NVIC_SetPriority>
 80010ca:	bd10      	pop	{r4, pc}

080010cc <HAL_NVIC_EnableIRQ>:
 80010cc:	2800      	cmp	r0, #0
 80010ce:	db05      	blt.n	80010dc <HAL_NVIC_EnableIRQ+0x10>
 80010d0:	221f      	movs	r2, #31
 80010d2:	4002      	ands	r2, r0
 80010d4:	2301      	movs	r3, #1
 80010d6:	4093      	lsls	r3, r2
 80010d8:	4a01      	ldr	r2, [pc, #4]	@ (80010e0 <HAL_NVIC_EnableIRQ+0x14>)
 80010da:	6013      	str	r3, [r2, #0]
 80010dc:	4770      	bx	lr
 80010de:	46c0      	nop			@ (mov r8, r8)
 80010e0:	e000e100 	.word	0xe000e100

080010e4 <HAL_SYSTICK_Config>:
 80010e4:	b510      	push	{r4, lr}
 80010e6:	f7ff ffd1 	bl	800108c <SysTick_Config>
 80010ea:	bd10      	pop	{r4, pc}

080010ec <DMA_SetConfig>:
 80010ec:	b5f0      	push	{r4, r5, r6, r7, lr}
 80010ee:	6c84      	ldr	r4, [r0, #72]	@ 0x48
 80010f0:	6cc5      	ldr	r5, [r0, #76]	@ 0x4c
 80010f2:	6065      	str	r5, [r4, #4]
 80010f4:	6d04      	ldr	r4, [r0, #80]	@ 0x50
 80010f6:	2c00      	cmp	r4, #0
 80010f8:	d002      	beq.n	8001100 <DMA_SetConfig+0x14>
 80010fa:	6d44      	ldr	r4, [r0, #84]	@ 0x54
 80010fc:	6d85      	ldr	r5, [r0, #88]	@ 0x58
 80010fe:	6065      	str	r5, [r4, #4]
 8001100:	4f0b      	ldr	r7, [pc, #44]	@ (8001130 <DMA_SetConfig+0x44>)
 8001102:	687c      	ldr	r4, [r7, #4]
 8001104:	6c05      	ldr	r5, [r0, #64]	@ 0x40
 8001106:	261c      	movs	r6, #28
 8001108:	402e      	ands	r6, r5
 800110a:	2501      	movs	r5, #1
 800110c:	40b5      	lsls	r5, r6
 800110e:	432c      	orrs	r4, r5
 8001110:	607c      	str	r4, [r7, #4]
 8001112:	6804      	ldr	r4, [r0, #0]
 8001114:	6063      	str	r3, [r4, #4]
 8001116:	6883      	ldr	r3, [r0, #8]
 8001118:	2b10      	cmp	r3, #16
 800111a:	d004      	beq.n	8001126 <DMA_SetConfig+0x3a>
 800111c:	6803      	ldr	r3, [r0, #0]
 800111e:	6099      	str	r1, [r3, #8]
 8001120:	6803      	ldr	r3, [r0, #0]
 8001122:	60da      	str	r2, [r3, #12]
 8001124:	bdf0      	pop	{r4, r5, r6, r7, pc}
 8001126:	6803      	ldr	r3, [r0, #0]
 8001128:	609a      	str	r2, [r3, #8]
 800112a:	6803      	ldr	r3, [r0, #0]
 800112c:	60d9      	str	r1, [r3, #12]
 800112e:	e7f9      	b.n	8001124 <DMA_SetConfig+0x38>
 8001130:	40020000 	.word	0x40020000

08001134 <DMA_CalcDMAMUXChannelBaseAndMask>:
 8001134:	b510      	push	{r4, lr}
 8001136:	0004      	movs	r4, r0
 8001138:	6803      	ldr	r3, [r0, #0]
 800113a:	20ff      	movs	r0, #255	@ 0xff
 800113c:	4018      	ands	r0, r3
 800113e:	3808      	subs	r0, #8
 8001140:	2114      	movs	r1, #20
 8001142:	f7fe ffcf 	bl	80000e4 <__udivsi3>
 8001146:	6c23      	ldr	r3, [r4, #64]	@ 0x40
 8001148:	089b      	lsrs	r3, r3, #2
 800114a:	4a06      	ldr	r2, [pc, #24]	@ (8001164 <DMA_CalcDMAMUXChannelBaseAndMask+0x30>)
 800114c:	4694      	mov	ip, r2
 800114e:	4463      	add	r3, ip
 8001150:	009b      	lsls	r3, r3, #2
 8001152:	6463      	str	r3, [r4, #68]	@ 0x44
 8001154:	4b04      	ldr	r3, [pc, #16]	@ (8001168 <DMA_CalcDMAMUXChannelBaseAndMask+0x34>)
 8001156:	64a3      	str	r3, [r4, #72]	@ 0x48
 8001158:	231c      	movs	r3, #28
 800115a:	4018      	ands	r0, r3
 800115c:	3b1b      	subs	r3, #27
 800115e:	4083      	lsls	r3, r0
 8001160:	64e3      	str	r3, [r4, #76]	@ 0x4c
 8001162:	bd10      	pop	{r4, pc}
 8001164:	10008200 	.word	0x10008200
 8001168:	40020880 	.word	0x40020880

0800116c <DMA_CalcDMAMUXRequestGenBaseAndMask>:
 800116c:	6842      	ldr	r2, [r0, #4]
 800116e:	23ff      	movs	r3, #255	@ 0xff
 8001170:	4013      	ands	r3, r2
 8001172:	4a06      	ldr	r2, [pc, #24]	@ (800118c <DMA_CalcDMAMUXRequestGenBaseAndMask+0x20>)
 8001174:	189a      	adds	r2, r3, r2
 8001176:	0092      	lsls	r2, r2, #2
 8001178:	6502      	str	r2, [r0, #80]	@ 0x50
 800117a:	4a05      	ldr	r2, [pc, #20]	@ (8001190 <DMA_CalcDMAMUXRequestGenBaseAndMask+0x24>)
 800117c:	6542      	str	r2, [r0, #84]	@ 0x54
 800117e:	3b01      	subs	r3, #1
 8001180:	2203      	movs	r2, #3
 8001182:	401a      	ands	r2, r3
 8001184:	2301      	movs	r3, #1
 8001186:	4093      	lsls	r3, r2
 8001188:	6583      	str	r3, [r0, #88]	@ 0x58
 800118a:	4770      	bx	lr
 800118c:	1000823f 	.word	0x1000823f
 8001190:	40020940 	.word	0x40020940

08001194 <HAL_DMA_Init>:
 8001194:	b570      	push	{r4, r5, r6, lr}
 8001196:	1e04      	subs	r4, r0, #0
 8001198:	d04d      	beq.n	8001236 <HAL_DMA_Init+0xa2>
 800119a:	6805      	ldr	r5, [r0, #0]
 800119c:	4b27      	ldr	r3, [pc, #156]	@ (800123c <HAL_DMA_Init+0xa8>)
 800119e:	18e8      	adds	r0, r5, r3
 80011a0:	2114      	movs	r1, #20
 80011a2:	f7fe ff9f 	bl	80000e4 <__udivsi3>
 80011a6:	0080      	lsls	r0, r0, #2
 80011a8:	6420      	str	r0, [r4, #64]	@ 0x40
 80011aa:	2325      	movs	r3, #37	@ 0x25
 80011ac:	2202      	movs	r2, #2
 80011ae:	54e2      	strb	r2, [r4, r3]
 80011b0:	682b      	ldr	r3, [r5, #0]
 80011b2:	4a23      	ldr	r2, [pc, #140]	@ (8001240 <HAL_DMA_Init+0xac>)
 80011b4:	4013      	ands	r3, r2
 80011b6:	602b      	str	r3, [r5, #0]
 80011b8:	6821      	ldr	r1, [r4, #0]
 80011ba:	680a      	ldr	r2, [r1, #0]
 80011bc:	68a3      	ldr	r3, [r4, #8]
 80011be:	68e0      	ldr	r0, [r4, #12]
 80011c0:	4303      	orrs	r3, r0
 80011c2:	6920      	ldr	r0, [r4, #16]
 80011c4:	4303      	orrs	r3, r0
 80011c6:	6960      	ldr	r0, [r4, #20]
 80011c8:	4303      	orrs	r3, r0
 80011ca:	69a0      	ldr	r0, [r4, #24]
 80011cc:	4303      	orrs	r3, r0
 80011ce:	69e0      	ldr	r0, [r4, #28]
 80011d0:	4303      	orrs	r3, r0
 80011d2:	6a20      	ldr	r0, [r4, #32]
 80011d4:	4303      	orrs	r3, r0
 80011d6:	4313      	orrs	r3, r2
 80011d8:	600b      	str	r3, [r1, #0]
 80011da:	0020      	movs	r0, r4
 80011dc:	f7ff ffaa 	bl	8001134 <DMA_CalcDMAMUXChannelBaseAndMask>
 80011e0:	68a2      	ldr	r2, [r4, #8]
 80011e2:	2380      	movs	r3, #128	@ 0x80
 80011e4:	01db      	lsls	r3, r3, #7
 80011e6:	429a      	cmp	r2, r3
 80011e8:	d018      	beq.n	800121c <HAL_DMA_Init+0x88>
 80011ea:	6861      	ldr	r1, [r4, #4]
 80011ec:	6c62      	ldr	r2, [r4, #68]	@ 0x44
 80011ee:	23ff      	movs	r3, #255	@ 0xff
 80011f0:	400b      	ands	r3, r1
 80011f2:	6013      	str	r3, [r2, #0]
 80011f4:	6ca3      	ldr	r3, [r4, #72]	@ 0x48
 80011f6:	6ce2      	ldr	r2, [r4, #76]	@ 0x4c
 80011f8:	605a      	str	r2, [r3, #4]
 80011fa:	6863      	ldr	r3, [r4, #4]
 80011fc:	3b01      	subs	r3, #1
 80011fe:	2b03      	cmp	r3, #3
 8001200:	d90f      	bls.n	8001222 <HAL_DMA_Init+0x8e>
 8001202:	2300      	movs	r3, #0
 8001204:	6523      	str	r3, [r4, #80]	@ 0x50
 8001206:	6563      	str	r3, [r4, #84]	@ 0x54
 8001208:	65a3      	str	r3, [r4, #88]	@ 0x58
 800120a:	2300      	movs	r3, #0
 800120c:	63e3      	str	r3, [r4, #60]	@ 0x3c
 800120e:	2225      	movs	r2, #37	@ 0x25
 8001210:	2101      	movs	r1, #1
 8001212:	54a1      	strb	r1, [r4, r2]
 8001214:	3a01      	subs	r2, #1
 8001216:	54a3      	strb	r3, [r4, r2]
 8001218:	2000      	movs	r0, #0
 800121a:	bd70      	pop	{r4, r5, r6, pc}
 800121c:	2300      	movs	r3, #0
 800121e:	6063      	str	r3, [r4, #4]
 8001220:	e7e3      	b.n	80011ea <HAL_DMA_Init+0x56>
 8001222:	0020      	movs	r0, r4
 8001224:	f7ff ffa2 	bl	800116c <DMA_CalcDMAMUXRequestGenBaseAndMask>
 8001228:	6d23      	ldr	r3, [r4, #80]	@ 0x50
 800122a:	2200      	movs	r2, #0
 800122c:	601a      	str	r2, [r3, #0]
 800122e:	6d63      	ldr	r3, [r4, #84]	@ 0x54
 8001230:	6da2      	ldr	r2, [r4, #88]	@ 0x58
 8001232:	605a      	str	r2, [r3, #4]
 8001234:	e7e9      	b.n	800120a <HAL_DMA_Init+0x76>
 8001236:	2001      	movs	r0, #1
 8001238:	e7ef      	b.n	800121a <HAL_DMA_Init+0x86>
 800123a:	46c0      	nop			@ (mov r8, r8)
 800123c:	bffdfff8 	.word	0xbffdfff8
 8001240:	ffff800f 	.word	0xffff800f

08001244 <HAL_DMA_Start_IT>:
 8001244:	b570      	push	{r4, r5, r6, lr}
 8001246:	0004      	movs	r4, r0
 8001248:	2024      	movs	r0, #36	@ 0x24
 800124a:	5c20      	ldrb	r0, [r4, r0]
 800124c:	2801      	cmp	r0, #1
 800124e:	d046      	beq.n	80012de <HAL_DMA_Start_IT+0x9a>
 8001250:	2024      	movs	r0, #36	@ 0x24
 8001252:	2501      	movs	r5, #1
 8001254:	5425      	strb	r5, [r4, r0]
 8001256:	3001      	adds	r0, #1
 8001258:	5c20      	ldrb	r0, [r4, r0]
 800125a:	2801      	cmp	r0, #1
 800125c:	d007      	beq.n	800126e <HAL_DMA_Start_IT+0x2a>
 800125e:	2324      	movs	r3, #36	@ 0x24
 8001260:	2200      	movs	r2, #0
 8001262:	54e2      	strb	r2, [r4, r3]
 8001264:	2002      	movs	r0, #2
 8001266:	2324      	movs	r3, #36	@ 0x24
 8001268:	2200      	movs	r2, #0
 800126a:	54e2      	strb	r2, [r4, r3]
 800126c:	bd70      	pop	{r4, r5, r6, pc}
 800126e:	3024      	adds	r0, #36	@ 0x24
 8001270:	3501      	adds	r5, #1
 8001272:	5425      	strb	r5, [r4, r0]
 8001274:	2000      	movs	r0, #0
 8001276:	63e0      	str	r0, [r4, #60]	@ 0x3c
 8001278:	6825      	ldr	r5, [r4, #0]
 800127a:	6828      	ldr	r0, [r5, #0]
 800127c:	2601      	movs	r6, #1
 800127e:	43b0      	bics	r0, r6
 8001280:	6028      	str	r0, [r5, #0]
 8001282:	0020      	movs	r0, r4
 8001284:	f7ff ff32 	bl	80010ec <DMA_SetConfig>
 8001288:	6b23      	ldr	r3, [r4, #48]	@ 0x30
 800128a:	2b00      	cmp	r3, #0
 800128c:	d01c      	beq.n	80012c8 <HAL_DMA_Start_IT+0x84>
 800128e:	6822      	ldr	r2, [r4, #0]
 8001290:	6813      	ldr	r3, [r2, #0]
 8001292:	210e      	movs	r1, #14
 8001294:	430b      	orrs	r3, r1
 8001296:	6013      	str	r3, [r2, #0]
 8001298:	6c62      	ldr	r2, [r4, #68]	@ 0x44
 800129a:	6813      	ldr	r3, [r2, #0]
 800129c:	03db      	lsls	r3, r3, #15
 800129e:	d504      	bpl.n	80012aa <HAL_DMA_Start_IT+0x66>
 80012a0:	6811      	ldr	r1, [r2, #0]
 80012a2:	2380      	movs	r3, #128	@ 0x80
 80012a4:	005b      	lsls	r3, r3, #1
 80012a6:	430b      	orrs	r3, r1
 80012a8:	6013      	str	r3, [r2, #0]
 80012aa:	6d23      	ldr	r3, [r4, #80]	@ 0x50
 80012ac:	2b00      	cmp	r3, #0
 80012ae:	d004      	beq.n	80012ba <HAL_DMA_Start_IT+0x76>
 80012b0:	6819      	ldr	r1, [r3, #0]
 80012b2:	2280      	movs	r2, #128	@ 0x80
 80012b4:	0052      	lsls	r2, r2, #1
 80012b6:	430a      	orrs	r2, r1
 80012b8:	601a      	str	r2, [r3, #0]
 80012ba:	6822      	ldr	r2, [r4, #0]
 80012bc:	6813      	ldr	r3, [r2, #0]
 80012be:	2101      	movs	r1, #1
 80012c0:	430b      	orrs	r3, r1
 80012c2:	6013      	str	r3, [r2, #0]
 80012c4:	2000      	movs	r0, #0
 80012c6:	e7ce      	b.n	8001266 <HAL_DMA_Start_IT+0x22>
 80012c8:	6822      	ldr	r2, [r4, #0]
 80012ca:	6813      	ldr	r3, [r2, #0]
 80012cc:	2104      	movs	r1, #4
 80012ce:	438b      	bics	r3, r1
 80012d0:	6013      	str	r3, [r2, #0]
 80012d2:	6822      	ldr	r2, [r4, #0]
 80012d4:	6813      	ldr	r3, [r2, #0]
 80012d6:	3106      	adds	r1, #6
 80012d8:	430b      	orrs	r3, r1
 80012da:	6013      	str	r3, [r2, #0]
 80012dc:	e7dc      	b.n	8001298 <HAL_DMA_Start_IT+0x54>
 80012de:	2002      	movs	r0, #2
 80012e0:	e7c4      	b.n	800126c <HAL_DMA_Start_IT+0x28>
	...

080012e4 <HAL_DMA_IRQHandler>:
 80012e4:	b570      	push	{r4, r5, r6, lr}
 80012e6:	4b31      	ldr	r3, [pc, #196]	@ (80013ac <HAL_DMA_IRQHandler+0xc8>)
 80012e8:	6819      	ldr	r1, [r3, #0]
 80012ea:	6804      	ldr	r4, [r0, #0]
 80012ec:	6825      	ldr	r5, [r4, #0]
 80012ee:	6c02      	ldr	r2, [r0, #64]	@ 0x40
 80012f0:	231c      	movs	r3, #28
 80012f2:	4013      	ands	r3, r2
 80012f4:	2204      	movs	r2, #4
 80012f6:	409a      	lsls	r2, r3
 80012f8:	4211      	tst	r1, r2
 80012fa:	d016      	beq.n	800132a <HAL_DMA_IRQHandler+0x46>
 80012fc:	076a      	lsls	r2, r5, #29
 80012fe:	d514      	bpl.n	800132a <HAL_DMA_IRQHandler+0x46>
 8001300:	6823      	ldr	r3, [r4, #0]
 8001302:	069b      	lsls	r3, r3, #26
 8001304:	d403      	bmi.n	800130e <HAL_DMA_IRQHandler+0x2a>
 8001306:	6823      	ldr	r3, [r4, #0]
 8001308:	2204      	movs	r2, #4
 800130a:	4393      	bics	r3, r2
 800130c:	6023      	str	r3, [r4, #0]
 800130e:	4c27      	ldr	r4, [pc, #156]	@ (80013ac <HAL_DMA_IRQHandler+0xc8>)
 8001310:	6863      	ldr	r3, [r4, #4]
 8001312:	6c02      	ldr	r2, [r0, #64]	@ 0x40
 8001314:	211c      	movs	r1, #28
 8001316:	4011      	ands	r1, r2
 8001318:	2204      	movs	r2, #4
 800131a:	408a      	lsls	r2, r1
 800131c:	4313      	orrs	r3, r2
 800131e:	6063      	str	r3, [r4, #4]
 8001320:	6b03      	ldr	r3, [r0, #48]	@ 0x30
 8001322:	2b00      	cmp	r3, #0
 8001324:	d000      	beq.n	8001328 <HAL_DMA_IRQHandler+0x44>
 8001326:	4798      	blx	r3
 8001328:	bd70      	pop	{r4, r5, r6, pc}
 800132a:	2202      	movs	r2, #2
 800132c:	409a      	lsls	r2, r3
 800132e:	4211      	tst	r1, r2
 8001330:	d01c      	beq.n	800136c <HAL_DMA_IRQHandler+0x88>
 8001332:	07aa      	lsls	r2, r5, #30
 8001334:	d51a      	bpl.n	800136c <HAL_DMA_IRQHandler+0x88>
 8001336:	6823      	ldr	r3, [r4, #0]
 8001338:	069b      	lsls	r3, r3, #26
 800133a:	d406      	bmi.n	800134a <HAL_DMA_IRQHandler+0x66>
 800133c:	6823      	ldr	r3, [r4, #0]
 800133e:	220a      	movs	r2, #10
 8001340:	4393      	bics	r3, r2
 8001342:	6023      	str	r3, [r4, #0]
 8001344:	2325      	movs	r3, #37	@ 0x25
 8001346:	3a09      	subs	r2, #9
 8001348:	54c2      	strb	r2, [r0, r3]
 800134a:	4c18      	ldr	r4, [pc, #96]	@ (80013ac <HAL_DMA_IRQHandler+0xc8>)
 800134c:	6863      	ldr	r3, [r4, #4]
 800134e:	6c02      	ldr	r2, [r0, #64]	@ 0x40
 8001350:	211c      	movs	r1, #28
 8001352:	4011      	ands	r1, r2
 8001354:	2202      	movs	r2, #2
 8001356:	408a      	lsls	r2, r1
 8001358:	4313      	orrs	r3, r2
 800135a:	6063      	str	r3, [r4, #4]
 800135c:	2324      	movs	r3, #36	@ 0x24
 800135e:	2200      	movs	r2, #0
 8001360:	54c2      	strb	r2, [r0, r3]
 8001362:	6ac3      	ldr	r3, [r0, #44]	@ 0x2c
 8001364:	2b00      	cmp	r3, #0
 8001366:	d0df      	beq.n	8001328 <HAL_DMA_IRQHandler+0x44>
 8001368:	4798      	blx	r3
 800136a:	e7dd      	b.n	8001328 <HAL_DMA_IRQHandler+0x44>
 800136c:	2208      	movs	r2, #8
 800136e:	409a      	lsls	r2, r3
 8001370:	4211      	tst	r1, r2
 8001372:	d0d9      	beq.n	8001328 <HAL_DMA_IRQHandler+0x44>
 8001374:	072d      	lsls	r5, r5, #28
 8001376:	d5d7      	bpl.n	8001328 <HAL_DMA_IRQHandler+0x44>
 8001378:	6823      	ldr	r3, [r4, #0]
 800137a:	220e      	movs	r2, #14
 800137c:	4393      	bics	r3, r2
 800137e:	6023      	str	r3, [r4, #0]
 8001380:	4c0a      	ldr	r4, [pc, #40]	@ (80013ac <HAL_DMA_IRQHandler+0xc8>)
 8001382:	6862      	ldr	r2, [r4, #4]
 8001384:	6c03      	ldr	r3, [r0, #64]	@ 0x40
 8001386:	211c      	movs	r1, #28
 8001388:	4019      	ands	r1, r3
 800138a:	2301      	movs	r3, #1
 800138c:	001d      	movs	r5, r3
 800138e:	408d      	lsls	r5, r1
 8001390:	432a      	orrs	r2, r5
 8001392:	6062      	str	r2, [r4, #4]
 8001394:	63c3      	str	r3, [r0, #60]	@ 0x3c
 8001396:	2225      	movs	r2, #37	@ 0x25
 8001398:	5483      	strb	r3, [r0, r2]
 800139a:	3323      	adds	r3, #35	@ 0x23
 800139c:	2200      	movs	r2, #0
 800139e:	54c2      	strb	r2, [r0, r3]
 80013a0:	6b43      	ldr	r3, [r0, #52]	@ 0x34
 80013a2:	2b00      	cmp	r3, #0
 80013a4:	d0c0      	beq.n	8001328 <HAL_DMA_IRQHandler+0x44>
 80013a6:	4798      	blx	r3
 80013a8:	e7be      	b.n	8001328 <HAL_DMA_IRQHandler+0x44>
 80013aa:	46c0      	nop			@ (mov r8, r8)
 80013ac:	40020000 	.word	0x40020000

080013b0 <HAL_EXTI_RegisterCallback>:
 80013b0:	2901      	cmp	r1, #1
 80013b2:	d007      	beq.n	80013c4 <HAL_EXTI_RegisterCallback+0x14>
 80013b4:	2902      	cmp	r1, #2
 80013b6:	d008      	beq.n	80013ca <HAL_EXTI_RegisterCallback+0x1a>
 80013b8:	2900      	cmp	r1, #0
 80013ba:	d109      	bne.n	80013d0 <HAL_EXTI_RegisterCallback+0x20>
 80013bc:	6042      	str	r2, [r0, #4]
 80013be:	6082      	str	r2, [r0, #8]
 80013c0:	0008      	movs	r0, r1
 80013c2:	4770      	bx	lr
 80013c4:	6042      	str	r2, [r0, #4]
 80013c6:	2000      	movs	r0, #0
 80013c8:	e7fb      	b.n	80013c2 <HAL_EXTI_RegisterCallback+0x12>
 80013ca:	6082      	str	r2, [r0, #8]
 80013cc:	2000      	movs	r0, #0
 80013ce:	e7f8      	b.n	80013c2 <HAL_EXTI_RegisterCallback+0x12>
 80013d0:	2001      	movs	r0, #1
 80013d2:	e7f6      	b.n	80013c2 <HAL_EXTI_RegisterCallback+0x12>

080013d4 <HAL_EXTI_GetHandle>:
 80013d4:	2800      	cmp	r0, #0
 80013d6:	d002      	beq.n	80013de <HAL_EXTI_GetHandle+0xa>
 80013d8:	6001      	str	r1, [r0, #0]
 80013da:	2000      	movs	r0, #0
 80013dc:	4770      	bx	lr
 80013de:	2001      	movs	r0, #1
 80013e0:	e7fc      	b.n	80013dc <HAL_EXTI_GetHandle+0x8>
	...

080013e4 <HAL_EXTI_IRQHandler>:
 80013e4:	b570      	push	{r4, r5, r6, lr}
 80013e6:	0006      	movs	r6, r0
 80013e8:	6802      	ldr	r2, [r0, #0]
 80013ea:	0c14      	lsrs	r4, r2, #16
 80013ec:	2501      	movs	r5, #1
 80013ee:	402c      	ands	r4, r5
 80013f0:	231f      	movs	r3, #31
 80013f2:	4013      	ands	r3, r2
 80013f4:	409d      	lsls	r5, r3
 80013f6:	0164      	lsls	r4, r4, #5
 80013f8:	4b0a      	ldr	r3, [pc, #40]	@ (8001424 <HAL_EXTI_IRQHandler+0x40>)
 80013fa:	18e3      	adds	r3, r4, r3
 80013fc:	681a      	ldr	r2, [r3, #0]
 80013fe:	4215      	tst	r5, r2
 8001400:	d004      	beq.n	800140c <HAL_EXTI_IRQHandler+0x28>
 8001402:	601d      	str	r5, [r3, #0]
 8001404:	6843      	ldr	r3, [r0, #4]
 8001406:	2b00      	cmp	r3, #0
 8001408:	d000      	beq.n	800140c <HAL_EXTI_IRQHandler+0x28>
 800140a:	4798      	blx	r3
 800140c:	4b06      	ldr	r3, [pc, #24]	@ (8001428 <HAL_EXTI_IRQHandler+0x44>)
 800140e:	469c      	mov	ip, r3
 8001410:	4464      	add	r4, ip
 8001412:	6823      	ldr	r3, [r4, #0]
 8001414:	421d      	tst	r5, r3
 8001416:	d004      	beq.n	8001422 <HAL_EXTI_IRQHandler+0x3e>
 8001418:	6025      	str	r5, [r4, #0]
 800141a:	68b3      	ldr	r3, [r6, #8]
 800141c:	2b00      	cmp	r3, #0
 800141e:	d000      	beq.n	8001422 <HAL_EXTI_IRQHandler+0x3e>
 8001420:	4798      	blx	r3
 8001422:	bd70      	pop	{r4, r5, r6, pc}
 8001424:	4002180c 	.word	0x4002180c
 8001428:	40021810 	.word	0x40021810

0800142c <HAL_GPIO_Init>:
 800142c:	b5f0      	push	{r4, r5, r6, r7, lr}
 800142e:	46d6      	mov	lr, sl
 8001430:	464f      	mov	r7, r9
 8001432:	4646      	mov	r6, r8
 8001434:	b5c0      	push	{r6, r7, lr}
 8001436:	2300      	movs	r3, #0
 8001438:	e03b      	b.n	80014b2 <HAL_GPIO_Init+0x86>
 800143a:	2505      	movs	r5, #5
 800143c:	e000      	b.n	8001440 <HAL_GPIO_Init+0x14>
 800143e:	2500      	movs	r5, #0
 8001440:	40a5      	lsls	r5, r4
 8001442:	002c      	movs	r4, r5
 8001444:	433c      	orrs	r4, r7
 8001446:	4d63      	ldr	r5, [pc, #396]	@ (80015d4 <HAL_GPIO_Init+0x1a8>)
 8001448:	3218      	adds	r2, #24
 800144a:	0092      	lsls	r2, r2, #2
 800144c:	5154      	str	r4, [r2, r5]
 800144e:	2280      	movs	r2, #128	@ 0x80
 8001450:	58af      	ldr	r7, [r5, r2]
 8001452:	464a      	mov	r2, r9
 8001454:	43d2      	mvns	r2, r2
 8001456:	003d      	movs	r5, r7
 8001458:	464c      	mov	r4, r9
 800145a:	43a5      	bics	r5, r4
 800145c:	684c      	ldr	r4, [r1, #4]
 800145e:	03e4      	lsls	r4, r4, #15
 8001460:	d502      	bpl.n	8001468 <HAL_GPIO_Init+0x3c>
 8001462:	003d      	movs	r5, r7
 8001464:	464c      	mov	r4, r9
 8001466:	4325      	orrs	r5, r4
 8001468:	4c5a      	ldr	r4, [pc, #360]	@ (80015d4 <HAL_GPIO_Init+0x1a8>)
 800146a:	2780      	movs	r7, #128	@ 0x80
 800146c:	51e5      	str	r5, [r4, r7]
 800146e:	2584      	movs	r5, #132	@ 0x84
 8001470:	5967      	ldr	r7, [r4, r5]
 8001472:	003d      	movs	r5, r7
 8001474:	4015      	ands	r5, r2
 8001476:	684c      	ldr	r4, [r1, #4]
 8001478:	03a4      	lsls	r4, r4, #14
 800147a:	d502      	bpl.n	8001482 <HAL_GPIO_Init+0x56>
 800147c:	003d      	movs	r5, r7
 800147e:	464c      	mov	r4, r9
 8001480:	4325      	orrs	r5, r4
 8001482:	4c54      	ldr	r4, [pc, #336]	@ (80015d4 <HAL_GPIO_Init+0x1a8>)
 8001484:	2784      	movs	r7, #132	@ 0x84
 8001486:	51e5      	str	r5, [r4, r7]
 8001488:	6827      	ldr	r7, [r4, #0]
 800148a:	003d      	movs	r5, r7
 800148c:	4015      	ands	r5, r2
 800148e:	684c      	ldr	r4, [r1, #4]
 8001490:	02e4      	lsls	r4, r4, #11
 8001492:	d502      	bpl.n	800149a <HAL_GPIO_Init+0x6e>
 8001494:	003d      	movs	r5, r7
 8001496:	464c      	mov	r4, r9
 8001498:	4325      	orrs	r5, r4
 800149a:	4c4e      	ldr	r4, [pc, #312]	@ (80015d4 <HAL_GPIO_Init+0x1a8>)
 800149c:	6025      	str	r5, [r4, #0]
 800149e:	6865      	ldr	r5, [r4, #4]
 80014a0:	402a      	ands	r2, r5
 80014a2:	684c      	ldr	r4, [r1, #4]
 80014a4:	02a4      	lsls	r4, r4, #10
 80014a6:	d501      	bpl.n	80014ac <HAL_GPIO_Init+0x80>
 80014a8:	464a      	mov	r2, r9
 80014aa:	432a      	orrs	r2, r5
 80014ac:	4c49      	ldr	r4, [pc, #292]	@ (80015d4 <HAL_GPIO_Init+0x1a8>)
 80014ae:	6062      	str	r2, [r4, #4]
 80014b0:	3301      	adds	r3, #1
 80014b2:	680c      	ldr	r4, [r1, #0]
 80014b4:	0022      	movs	r2, r4
 80014b6:	40da      	lsrs	r2, r3
 80014b8:	d100      	bne.n	80014bc <HAL_GPIO_Init+0x90>
 80014ba:	e086      	b.n	80015ca <HAL_GPIO_Init+0x19e>
 80014bc:	2201      	movs	r2, #1
 80014be:	409a      	lsls	r2, r3
 80014c0:	0026      	movs	r6, r4
 80014c2:	4016      	ands	r6, r2
 80014c4:	46b1      	mov	r9, r6
 80014c6:	4214      	tst	r4, r2
 80014c8:	d0f2      	beq.n	80014b0 <HAL_GPIO_Init+0x84>
 80014ca:	684c      	ldr	r4, [r1, #4]
 80014cc:	2c02      	cmp	r4, #2
 80014ce:	d001      	beq.n	80014d4 <HAL_GPIO_Init+0xa8>
 80014d0:	2c12      	cmp	r4, #18
 80014d2:	d118      	bne.n	8001506 <HAL_GPIO_Init+0xda>
 80014d4:	08dd      	lsrs	r5, r3, #3
 80014d6:	3508      	adds	r5, #8
 80014d8:	00ad      	lsls	r5, r5, #2
 80014da:	582c      	ldr	r4, [r5, r0]
 80014dc:	46a4      	mov	ip, r4
 80014de:	2707      	movs	r7, #7
 80014e0:	401f      	ands	r7, r3
 80014e2:	00bf      	lsls	r7, r7, #2
 80014e4:	240f      	movs	r4, #15
 80014e6:	46a2      	mov	sl, r4
 80014e8:	0026      	movs	r6, r4
 80014ea:	40be      	lsls	r6, r7
 80014ec:	46b0      	mov	r8, r6
 80014ee:	4666      	mov	r6, ip
 80014f0:	4644      	mov	r4, r8
 80014f2:	43a6      	bics	r6, r4
 80014f4:	46b4      	mov	ip, r6
 80014f6:	690c      	ldr	r4, [r1, #16]
 80014f8:	4656      	mov	r6, sl
 80014fa:	4026      	ands	r6, r4
 80014fc:	0034      	movs	r4, r6
 80014fe:	40bc      	lsls	r4, r7
 8001500:	4666      	mov	r6, ip
 8001502:	4334      	orrs	r4, r6
 8001504:	502c      	str	r4, [r5, r0]
 8001506:	6804      	ldr	r4, [r0, #0]
 8001508:	46a4      	mov	ip, r4
 800150a:	005d      	lsls	r5, r3, #1
 800150c:	2403      	movs	r4, #3
 800150e:	46a2      	mov	sl, r4
 8001510:	0027      	movs	r7, r4
 8001512:	40af      	lsls	r7, r5
 8001514:	46b8      	mov	r8, r7
 8001516:	43ff      	mvns	r7, r7
 8001518:	4666      	mov	r6, ip
 800151a:	4644      	mov	r4, r8
 800151c:	43a6      	bics	r6, r4
 800151e:	46b4      	mov	ip, r6
 8001520:	684c      	ldr	r4, [r1, #4]
 8001522:	4656      	mov	r6, sl
 8001524:	4026      	ands	r6, r4
 8001526:	0034      	movs	r4, r6
 8001528:	40ac      	lsls	r4, r5
 800152a:	4666      	mov	r6, ip
 800152c:	4334      	orrs	r4, r6
 800152e:	6004      	str	r4, [r0, #0]
 8001530:	684c      	ldr	r4, [r1, #4]
 8001532:	1e66      	subs	r6, r4, #1
 8001534:	2e01      	cmp	r6, #1
 8001536:	d903      	bls.n	8001540 <HAL_GPIO_Init+0x114>
 8001538:	2c11      	cmp	r4, #17
 800153a:	d001      	beq.n	8001540 <HAL_GPIO_Init+0x114>
 800153c:	2c12      	cmp	r4, #18
 800153e:	d112      	bne.n	8001566 <HAL_GPIO_Init+0x13a>
 8001540:	6884      	ldr	r4, [r0, #8]
 8001542:	403c      	ands	r4, r7
 8001544:	46a4      	mov	ip, r4
 8001546:	68cc      	ldr	r4, [r1, #12]
 8001548:	40ac      	lsls	r4, r5
 800154a:	4666      	mov	r6, ip
 800154c:	4334      	orrs	r4, r6
 800154e:	6084      	str	r4, [r0, #8]
 8001550:	6844      	ldr	r4, [r0, #4]
 8001552:	4394      	bics	r4, r2
 8001554:	684a      	ldr	r2, [r1, #4]
 8001556:	0912      	lsrs	r2, r2, #4
 8001558:	4694      	mov	ip, r2
 800155a:	2201      	movs	r2, #1
 800155c:	4666      	mov	r6, ip
 800155e:	4032      	ands	r2, r6
 8001560:	409a      	lsls	r2, r3
 8001562:	4322      	orrs	r2, r4
 8001564:	6042      	str	r2, [r0, #4]
 8001566:	684a      	ldr	r2, [r1, #4]
 8001568:	2a03      	cmp	r2, #3
 800156a:	d005      	beq.n	8001578 <HAL_GPIO_Init+0x14c>
 800156c:	68c4      	ldr	r4, [r0, #12]
 800156e:	403c      	ands	r4, r7
 8001570:	688a      	ldr	r2, [r1, #8]
 8001572:	40aa      	lsls	r2, r5
 8001574:	4322      	orrs	r2, r4
 8001576:	60c2      	str	r2, [r0, #12]
 8001578:	684a      	ldr	r2, [r1, #4]
 800157a:	00d2      	lsls	r2, r2, #3
 800157c:	d598      	bpl.n	80014b0 <HAL_GPIO_Init+0x84>
 800157e:	089a      	lsrs	r2, r3, #2
 8001580:	0014      	movs	r4, r2
 8001582:	3418      	adds	r4, #24
 8001584:	00a4      	lsls	r4, r4, #2
 8001586:	4d13      	ldr	r5, [pc, #76]	@ (80015d4 <HAL_GPIO_Init+0x1a8>)
 8001588:	5967      	ldr	r7, [r4, r5]
 800158a:	2403      	movs	r4, #3
 800158c:	401c      	ands	r4, r3
 800158e:	00e4      	lsls	r4, r4, #3
 8001590:	250f      	movs	r5, #15
 8001592:	40a5      	lsls	r5, r4
 8001594:	43af      	bics	r7, r5
 8001596:	25a0      	movs	r5, #160	@ 0xa0
 8001598:	05ed      	lsls	r5, r5, #23
 800159a:	42a8      	cmp	r0, r5
 800159c:	d100      	bne.n	80015a0 <HAL_GPIO_Init+0x174>
 800159e:	e74e      	b.n	800143e <HAL_GPIO_Init+0x12>
 80015a0:	4d0d      	ldr	r5, [pc, #52]	@ (80015d8 <HAL_GPIO_Init+0x1ac>)
 80015a2:	42a8      	cmp	r0, r5
 80015a4:	d00b      	beq.n	80015be <HAL_GPIO_Init+0x192>
 80015a6:	4d0d      	ldr	r5, [pc, #52]	@ (80015dc <HAL_GPIO_Init+0x1b0>)
 80015a8:	42a8      	cmp	r0, r5
 80015aa:	d00a      	beq.n	80015c2 <HAL_GPIO_Init+0x196>
 80015ac:	4d0c      	ldr	r5, [pc, #48]	@ (80015e0 <HAL_GPIO_Init+0x1b4>)
 80015ae:	42a8      	cmp	r0, r5
 80015b0:	d009      	beq.n	80015c6 <HAL_GPIO_Init+0x19a>
 80015b2:	4d0c      	ldr	r5, [pc, #48]	@ (80015e4 <HAL_GPIO_Init+0x1b8>)
 80015b4:	42a8      	cmp	r0, r5
 80015b6:	d100      	bne.n	80015ba <HAL_GPIO_Init+0x18e>
 80015b8:	e73f      	b.n	800143a <HAL_GPIO_Init+0xe>
 80015ba:	2506      	movs	r5, #6
 80015bc:	e740      	b.n	8001440 <HAL_GPIO_Init+0x14>
 80015be:	2501      	movs	r5, #1
 80015c0:	e73e      	b.n	8001440 <HAL_GPIO_Init+0x14>
 80015c2:	2502      	movs	r5, #2
 80015c4:	e73c      	b.n	8001440 <HAL_GPIO_Init+0x14>
 80015c6:	2503      	movs	r5, #3
 80015c8:	e73a      	b.n	8001440 <HAL_GPIO_Init+0x14>
 80015ca:	bce0      	pop	{r5, r6, r7}
 80015cc:	46ba      	mov	sl, r7
 80015ce:	46b1      	mov	r9, r6
 80015d0:	46a8      	mov	r8, r5
 80015d2:	bdf0      	pop	{r4, r5, r6, r7, pc}
 80015d4:	40021800 	.word	0x40021800
 80015d8:	50000400 	.word	0x50000400
 80015dc:	50000800 	.word	0x50000800
 80015e0:	50000c00 	.word	0x50000c00
 80015e4:	50001400 	.word	0x50001400

080015e8 <HAL_GPIO_ReadPin>:
 80015e8:	6903      	ldr	r3, [r0, #16]
 80015ea:	420b      	tst	r3, r1
 80015ec:	d001      	beq.n	80015f2 <HAL_GPIO_ReadPin+0xa>
 80015ee:	2001      	movs	r0, #1
 80015f0:	4770      	bx	lr
 80015f2:	2000      	movs	r0, #0
 80015f4:	e7fc      	b.n	80015f0 <HAL_GPIO_ReadPin+0x8>

080015f6 <HAL_GPIO_WritePin>:
 80015f6:	2a00      	cmp	r2, #0
 80015f8:	d001      	beq.n	80015fe <HAL_GPIO_WritePin+0x8>
 80015fa:	6181      	str	r1, [r0, #24]
 80015fc:	4770      	bx	lr
 80015fe:	6281      	str	r1, [r0, #40]	@ 0x28
 8001600:	e7fc      	b.n	80015fc <HAL_GPIO_WritePin+0x6>
	...

08001604 <HAL_MspInit>:
 8001604:	b082      	sub	sp, #8
 8001606:	4b0a      	ldr	r3, [pc, #40]	@ (8001630 <HAL_MspInit+0x2c>)
 8001608:	6c19      	ldr	r1, [r3, #64]	@ 0x40
 800160a:	2201      	movs	r2, #1
 800160c:	4311      	orrs	r1, r2
 800160e:	6419      	str	r1, [r3, #64]	@ 0x40
 8001610:	6c19      	ldr	r1, [r3, #64]	@ 0x40
 8001612:	400a      	ands	r2, r1
 8001614:	9200      	str	r2, [sp, #0]
 8001616:	9a00      	ldr	r2, [sp, #0]
 8001618:	6bda      	ldr	r2, [r3, #60]	@ 0x3c
 800161a:	2180      	movs	r1, #128	@ 0x80
 800161c:	0549      	lsls	r1, r1, #21
 800161e:	430a      	orrs	r2, r1
 8001620:	63da      	str	r2, [r3, #60]	@ 0x3c
 8001622:	6bdb      	ldr	r3, [r3, #60]	@ 0x3c
 8001624:	400b      	ands	r3, r1
 8001626:	9301      	str	r3, [sp, #4]
 8001628:	9b01      	ldr	r3, [sp, #4]
 800162a:	b002      	add	sp, #8
 800162c:	4770      	bx	lr
 800162e:	46c0      	nop			@ (mov r8, r8)
 8001630:	40021000 	.word	0x40021000

08001634 <HAL_ADC_MspInit>:
 8001634:	b530      	push	{r4, r5, lr}
 8001636:	b08f      	sub	sp, #60	@ 0x3c
 8001638:	0004      	movs	r4, r0
 800163a:	2214      	movs	r2, #20
 800163c:	2100      	movs	r1, #0
 800163e:	a809      	add	r0, sp, #36	@ 0x24
 8001640:	f000 ffc8 	bl	80025d4 <memset>
 8001644:	221c      	movs	r2, #28
 8001646:	2100      	movs	r1, #0
 8001648:	a802      	add	r0, sp, #8
 800164a:	f000 ffc3 	bl	80025d4 <memset>
 800164e:	6822      	ldr	r2, [r4, #0]
 8001650:	4b23      	ldr	r3, [pc, #140]	@ (80016e0 <HAL_ADC_MspInit+0xac>)
 8001652:	429a      	cmp	r2, r3
 8001654:	d001      	beq.n	800165a <HAL_ADC_MspInit+0x26>
 8001656:	b00f      	add	sp, #60	@ 0x3c
 8001658:	bd30      	pop	{r4, r5, pc}
 800165a:	2320      	movs	r3, #32
 800165c:	9302      	str	r3, [sp, #8]
 800165e:	a802      	add	r0, sp, #8
 8001660:	f000 faf0 	bl	8001c44 <HAL_RCCEx_PeriphCLKConfig>
 8001664:	2800      	cmp	r0, #0
 8001666:	d135      	bne.n	80016d4 <HAL_ADC_MspInit+0xa0>
 8001668:	4b1e      	ldr	r3, [pc, #120]	@ (80016e4 <HAL_ADC_MspInit+0xb0>)
 800166a:	6c1a      	ldr	r2, [r3, #64]	@ 0x40
 800166c:	2180      	movs	r1, #128	@ 0x80
 800166e:	0349      	lsls	r1, r1, #13
 8001670:	430a      	orrs	r2, r1
 8001672:	641a      	str	r2, [r3, #64]	@ 0x40
 8001674:	6c1a      	ldr	r2, [r3, #64]	@ 0x40
 8001676:	400a      	ands	r2, r1
 8001678:	9200      	str	r2, [sp, #0]
 800167a:	9a00      	ldr	r2, [sp, #0]
 800167c:	6b59      	ldr	r1, [r3, #52]	@ 0x34
 800167e:	2201      	movs	r2, #1
 8001680:	4311      	orrs	r1, r2
 8001682:	6359      	str	r1, [r3, #52]	@ 0x34
 8001684:	6b5b      	ldr	r3, [r3, #52]	@ 0x34
 8001686:	401a      	ands	r2, r3
 8001688:	9201      	str	r2, [sp, #4]
 800168a:	9b01      	ldr	r3, [sp, #4]
 800168c:	a909      	add	r1, sp, #36	@ 0x24
 800168e:	2302      	movs	r3, #2
 8001690:	9309      	str	r3, [sp, #36]	@ 0x24
 8001692:	3301      	adds	r3, #1
 8001694:	604b      	str	r3, [r1, #4]
 8001696:	2500      	movs	r5, #0
 8001698:	608d      	str	r5, [r1, #8]
 800169a:	20a0      	movs	r0, #160	@ 0xa0
 800169c:	05c0      	lsls	r0, r0, #23
 800169e:	f7ff fec5 	bl	800142c <HAL_GPIO_Init>
 80016a2:	4811      	ldr	r0, [pc, #68]	@ (80016e8 <HAL_ADC_MspInit+0xb4>)
 80016a4:	4b11      	ldr	r3, [pc, #68]	@ (80016ec <HAL_ADC_MspInit+0xb8>)
 80016a6:	6003      	str	r3, [r0, #0]
 80016a8:	2305      	movs	r3, #5
 80016aa:	6043      	str	r3, [r0, #4]
 80016ac:	6085      	str	r5, [r0, #8]
 80016ae:	60c5      	str	r5, [r0, #12]
 80016b0:	337b      	adds	r3, #123	@ 0x7b
 80016b2:	6103      	str	r3, [r0, #16]
 80016b4:	3380      	adds	r3, #128	@ 0x80
 80016b6:	6143      	str	r3, [r0, #20]
 80016b8:	2380      	movs	r3, #128	@ 0x80
 80016ba:	00db      	lsls	r3, r3, #3
 80016bc:	6183      	str	r3, [r0, #24]
 80016be:	2320      	movs	r3, #32
 80016c0:	61c3      	str	r3, [r0, #28]
 80016c2:	6205      	str	r5, [r0, #32]
 80016c4:	f7ff fd66 	bl	8001194 <HAL_DMA_Init>
 80016c8:	2800      	cmp	r0, #0
 80016ca:	d106      	bne.n	80016da <HAL_ADC_MspInit+0xa6>
 80016cc:	4b06      	ldr	r3, [pc, #24]	@ (80016e8 <HAL_ADC_MspInit+0xb4>)
 80016ce:	6523      	str	r3, [r4, #80]	@ 0x50
 80016d0:	629c      	str	r4, [r3, #40]	@ 0x28
 80016d2:	e7c0      	b.n	8001656 <HAL_ADC_MspInit+0x22>
 80016d4:	f7fe ff1e 	bl	8000514 <Error_Handler>
 80016d8:	e7c6      	b.n	8001668 <HAL_ADC_MspInit+0x34>
 80016da:	f7fe ff1b 	bl	8000514 <Error_Handler>
 80016de:	e7f5      	b.n	80016cc <HAL_ADC_MspInit+0x98>
 80016e0:	40012400 	.word	0x40012400
 80016e4:	40021000 	.word	0x40021000
 80016e8:	2000018c 	.word	0x2000018c
 80016ec:	40020008 	.word	0x40020008

080016f0 <HAL_UART_MspInit>:
 80016f0:	b510      	push	{r4, lr}
 80016f2:	b088      	sub	sp, #32
 80016f4:	0004      	movs	r4, r0
 80016f6:	2214      	movs	r2, #20
 80016f8:	2100      	movs	r1, #0
 80016fa:	a803      	add	r0, sp, #12
 80016fc:	f000 ff6a 	bl	80025d4 <memset>
 8001700:	6822      	ldr	r2, [r4, #0]
 8001702:	4b11      	ldr	r3, [pc, #68]	@ (8001748 <HAL_UART_MspInit+0x58>)
 8001704:	429a      	cmp	r2, r3
 8001706:	d001      	beq.n	800170c <HAL_UART_MspInit+0x1c>
 8001708:	b008      	add	sp, #32
 800170a:	bd10      	pop	{r4, pc}
 800170c:	4b0f      	ldr	r3, [pc, #60]	@ (800174c <HAL_UART_MspInit+0x5c>)
 800170e:	6bda      	ldr	r2, [r3, #60]	@ 0x3c
 8001710:	2180      	movs	r1, #128	@ 0x80
 8001712:	0289      	lsls	r1, r1, #10
 8001714:	430a      	orrs	r2, r1
 8001716:	63da      	str	r2, [r3, #60]	@ 0x3c
 8001718:	6bda      	ldr	r2, [r3, #60]	@ 0x3c
 800171a:	400a      	ands	r2, r1
 800171c:	9201      	str	r2, [sp, #4]
 800171e:	9a01      	ldr	r2, [sp, #4]
 8001720:	6b59      	ldr	r1, [r3, #52]	@ 0x34
 8001722:	2201      	movs	r2, #1
 8001724:	4311      	orrs	r1, r2
 8001726:	6359      	str	r1, [r3, #52]	@ 0x34
 8001728:	6b5b      	ldr	r3, [r3, #52]	@ 0x34
 800172a:	4013      	ands	r3, r2
 800172c:	9302      	str	r3, [sp, #8]
 800172e:	9b02      	ldr	r3, [sp, #8]
 8001730:	a903      	add	r1, sp, #12
 8001732:	230c      	movs	r3, #12
 8001734:	9303      	str	r3, [sp, #12]
 8001736:	3b0a      	subs	r3, #10
 8001738:	604b      	str	r3, [r1, #4]
 800173a:	610a      	str	r2, [r1, #16]
 800173c:	20a0      	movs	r0, #160	@ 0xa0
 800173e:	05c0      	lsls	r0, r0, #23
 8001740:	f7ff fe74 	bl	800142c <HAL_GPIO_Init>
 8001744:	e7e0      	b.n	8001708 <HAL_UART_MspInit+0x18>
 8001746:	46c0      	nop			@ (mov r8, r8)
 8001748:	40004400 	.word	0x40004400
 800174c:	40021000 	.word	0x40021000

08001750 <HAL_RCC_OscConfig>:
 8001750:	b570      	push	{r4, r5, r6, lr}
 8001752:	1e04      	subs	r4, r0, #0
 8001754:	d100      	bne.n	8001758 <HAL_RCC_OscConfig+0x8>
 8001756:	e139      	b.n	80019cc <HAL_RCC_OscConfig+0x27c>
 8001758:	6803      	ldr	r3, [r0, #0]
 800175a:	07db      	lsls	r3, r3, #31
 800175c:	d52c      	bpl.n	80017b8 <HAL_RCC_OscConfig+0x68>
 800175e:	4ba1      	ldr	r3, [pc, #644]	@ (80019e4 <HAL_RCC_OscConfig+0x294>)
 8001760:	689a      	ldr	r2, [r3, #8]
 8001762:	2338      	movs	r3, #56	@ 0x38
 8001764:	4013      	ands	r3, r2
 8001766:	2b08      	cmp	r3, #8
 8001768:	d022      	beq.n	80017b0 <HAL_RCC_OscConfig+0x60>
 800176a:	6843      	ldr	r3, [r0, #4]
 800176c:	2280      	movs	r2, #128	@ 0x80
 800176e:	0252      	lsls	r2, r2, #9
 8001770:	4293      	cmp	r3, r2
 8001772:	d02e      	beq.n	80017d2 <HAL_RCC_OscConfig+0x82>
 8001774:	22a0      	movs	r2, #160	@ 0xa0
 8001776:	02d2      	lsls	r2, r2, #11
 8001778:	4293      	cmp	r3, r2
 800177a:	d031      	beq.n	80017e0 <HAL_RCC_OscConfig+0x90>
 800177c:	4b99      	ldr	r3, [pc, #612]	@ (80019e4 <HAL_RCC_OscConfig+0x294>)
 800177e:	681a      	ldr	r2, [r3, #0]
 8001780:	4999      	ldr	r1, [pc, #612]	@ (80019e8 <HAL_RCC_OscConfig+0x298>)
 8001782:	400a      	ands	r2, r1
 8001784:	601a      	str	r2, [r3, #0]
 8001786:	681a      	ldr	r2, [r3, #0]
 8001788:	4998      	ldr	r1, [pc, #608]	@ (80019ec <HAL_RCC_OscConfig+0x29c>)
 800178a:	400a      	ands	r2, r1
 800178c:	601a      	str	r2, [r3, #0]
 800178e:	6863      	ldr	r3, [r4, #4]
 8001790:	2b00      	cmp	r3, #0
 8001792:	d031      	beq.n	80017f8 <HAL_RCC_OscConfig+0xa8>
 8001794:	f7fe ffca 	bl	800072c <HAL_GetTick>
 8001798:	0005      	movs	r5, r0
 800179a:	4b92      	ldr	r3, [pc, #584]	@ (80019e4 <HAL_RCC_OscConfig+0x294>)
 800179c:	681b      	ldr	r3, [r3, #0]
 800179e:	039b      	lsls	r3, r3, #14
 80017a0:	d40a      	bmi.n	80017b8 <HAL_RCC_OscConfig+0x68>
 80017a2:	f7fe ffc3 	bl	800072c <HAL_GetTick>
 80017a6:	1b40      	subs	r0, r0, r5
 80017a8:	2864      	cmp	r0, #100	@ 0x64
 80017aa:	d9f6      	bls.n	800179a <HAL_RCC_OscConfig+0x4a>
 80017ac:	2003      	movs	r0, #3
 80017ae:	e10e      	b.n	80019ce <HAL_RCC_OscConfig+0x27e>
 80017b0:	6843      	ldr	r3, [r0, #4]
 80017b2:	2b00      	cmp	r3, #0
 80017b4:	d100      	bne.n	80017b8 <HAL_RCC_OscConfig+0x68>
 80017b6:	e10b      	b.n	80019d0 <HAL_RCC_OscConfig+0x280>
 80017b8:	6823      	ldr	r3, [r4, #0]
 80017ba:	079b      	lsls	r3, r3, #30
 80017bc:	d547      	bpl.n	800184e <HAL_RCC_OscConfig+0xfe>
 80017be:	4b89      	ldr	r3, [pc, #548]	@ (80019e4 <HAL_RCC_OscConfig+0x294>)
 80017c0:	689b      	ldr	r3, [r3, #8]
 80017c2:	2238      	movs	r2, #56	@ 0x38
 80017c4:	421a      	tst	r2, r3
 80017c6:	d161      	bne.n	800188c <HAL_RCC_OscConfig+0x13c>
 80017c8:	68e3      	ldr	r3, [r4, #12]
 80017ca:	2b00      	cmp	r3, #0
 80017cc:	d122      	bne.n	8001814 <HAL_RCC_OscConfig+0xc4>
 80017ce:	2001      	movs	r0, #1
 80017d0:	e0fd      	b.n	80019ce <HAL_RCC_OscConfig+0x27e>
 80017d2:	4a84      	ldr	r2, [pc, #528]	@ (80019e4 <HAL_RCC_OscConfig+0x294>)
 80017d4:	6811      	ldr	r1, [r2, #0]
 80017d6:	2380      	movs	r3, #128	@ 0x80
 80017d8:	025b      	lsls	r3, r3, #9
 80017da:	430b      	orrs	r3, r1
 80017dc:	6013      	str	r3, [r2, #0]
 80017de:	e7d6      	b.n	800178e <HAL_RCC_OscConfig+0x3e>
 80017e0:	4b80      	ldr	r3, [pc, #512]	@ (80019e4 <HAL_RCC_OscConfig+0x294>)
 80017e2:	6819      	ldr	r1, [r3, #0]
 80017e4:	2280      	movs	r2, #128	@ 0x80
 80017e6:	02d2      	lsls	r2, r2, #11
 80017e8:	430a      	orrs	r2, r1
 80017ea:	601a      	str	r2, [r3, #0]
 80017ec:	6819      	ldr	r1, [r3, #0]
 80017ee:	2280      	movs	r2, #128	@ 0x80
 80017f0:	0252      	lsls	r2, r2, #9
 80017f2:	430a      	orrs	r2, r1
 80017f4:	601a      	str	r2, [r3, #0]
 80017f6:	e7ca      	b.n	800178e <HAL_RCC_OscConfig+0x3e>
 80017f8:	f7fe ff98 	bl	800072c <HAL_GetTick>
 80017fc:	0005      	movs	r5, r0
 80017fe:	4b79      	ldr	r3, [pc, #484]	@ (80019e4 <HAL_RCC_OscConfig+0x294>)
 8001800:	681b      	ldr	r3, [r3, #0]
 8001802:	039b      	lsls	r3, r3, #14
 8001804:	d5d8      	bpl.n	80017b8 <HAL_RCC_OscConfig+0x68>
 8001806:	f7fe ff91 	bl	800072c <HAL_GetTick>
 800180a:	1b40      	subs	r0, r0, r5
 800180c:	2864      	cmp	r0, #100	@ 0x64
 800180e:	d9f6      	bls.n	80017fe <HAL_RCC_OscConfig+0xae>
 8001810:	2003      	movs	r0, #3
 8001812:	e0dc      	b.n	80019ce <HAL_RCC_OscConfig+0x27e>
 8001814:	4b73      	ldr	r3, [pc, #460]	@ (80019e4 <HAL_RCC_OscConfig+0x294>)
 8001816:	685a      	ldr	r2, [r3, #4]
 8001818:	4975      	ldr	r1, [pc, #468]	@ (80019f0 <HAL_RCC_OscConfig+0x2a0>)
 800181a:	400a      	ands	r2, r1
 800181c:	6961      	ldr	r1, [r4, #20]
 800181e:	0209      	lsls	r1, r1, #8
 8001820:	430a      	orrs	r2, r1
 8001822:	605a      	str	r2, [r3, #4]
 8001824:	681a      	ldr	r2, [r3, #0]
 8001826:	4973      	ldr	r1, [pc, #460]	@ (80019f4 <HAL_RCC_OscConfig+0x2a4>)
 8001828:	400a      	ands	r2, r1
 800182a:	6921      	ldr	r1, [r4, #16]
 800182c:	430a      	orrs	r2, r1
 800182e:	601a      	str	r2, [r3, #0]
 8001830:	681b      	ldr	r3, [r3, #0]
 8001832:	0adb      	lsrs	r3, r3, #11
 8001834:	2207      	movs	r2, #7
 8001836:	401a      	ands	r2, r3
 8001838:	4b6f      	ldr	r3, [pc, #444]	@ (80019f8 <HAL_RCC_OscConfig+0x2a8>)
 800183a:	40d3      	lsrs	r3, r2
 800183c:	4a6f      	ldr	r2, [pc, #444]	@ (80019fc <HAL_RCC_OscConfig+0x2ac>)
 800183e:	6013      	str	r3, [r2, #0]
 8001840:	4b6f      	ldr	r3, [pc, #444]	@ (8001a00 <HAL_RCC_OscConfig+0x2b0>)
 8001842:	6818      	ldr	r0, [r3, #0]
 8001844:	f7fe ff2e 	bl	80006a4 <HAL_InitTick>
 8001848:	2800      	cmp	r0, #0
 800184a:	d000      	beq.n	800184e <HAL_RCC_OscConfig+0xfe>
 800184c:	e0c2      	b.n	80019d4 <HAL_RCC_OscConfig+0x284>
 800184e:	6823      	ldr	r3, [r4, #0]
 8001850:	071b      	lsls	r3, r3, #28
 8001852:	d557      	bpl.n	8001904 <HAL_RCC_OscConfig+0x1b4>
 8001854:	4b63      	ldr	r3, [pc, #396]	@ (80019e4 <HAL_RCC_OscConfig+0x294>)
 8001856:	689a      	ldr	r2, [r3, #8]
 8001858:	2338      	movs	r3, #56	@ 0x38
 800185a:	4013      	ands	r3, r2
 800185c:	2b18      	cmp	r3, #24
 800185e:	d04e      	beq.n	80018fe <HAL_RCC_OscConfig+0x1ae>
 8001860:	69a3      	ldr	r3, [r4, #24]
 8001862:	2b00      	cmp	r3, #0
 8001864:	d077      	beq.n	8001956 <HAL_RCC_OscConfig+0x206>
 8001866:	4a5f      	ldr	r2, [pc, #380]	@ (80019e4 <HAL_RCC_OscConfig+0x294>)
 8001868:	6e13      	ldr	r3, [r2, #96]	@ 0x60
 800186a:	2101      	movs	r1, #1
 800186c:	430b      	orrs	r3, r1
 800186e:	6613      	str	r3, [r2, #96]	@ 0x60
 8001870:	f7fe ff5c 	bl	800072c <HAL_GetTick>
 8001874:	0005      	movs	r5, r0
 8001876:	4b5b      	ldr	r3, [pc, #364]	@ (80019e4 <HAL_RCC_OscConfig+0x294>)
 8001878:	6e1b      	ldr	r3, [r3, #96]	@ 0x60
 800187a:	079b      	lsls	r3, r3, #30
 800187c:	d442      	bmi.n	8001904 <HAL_RCC_OscConfig+0x1b4>
 800187e:	f7fe ff55 	bl	800072c <HAL_GetTick>
 8001882:	1b40      	subs	r0, r0, r5
 8001884:	2802      	cmp	r0, #2
 8001886:	d9f6      	bls.n	8001876 <HAL_RCC_OscConfig+0x126>
 8001888:	2003      	movs	r0, #3
 800188a:	e0a0      	b.n	80019ce <HAL_RCC_OscConfig+0x27e>
 800188c:	68e3      	ldr	r3, [r4, #12]
 800188e:	2b00      	cmp	r3, #0
 8001890:	d022      	beq.n	80018d8 <HAL_RCC_OscConfig+0x188>
 8001892:	4a54      	ldr	r2, [pc, #336]	@ (80019e4 <HAL_RCC_OscConfig+0x294>)
 8001894:	6813      	ldr	r3, [r2, #0]
 8001896:	4957      	ldr	r1, [pc, #348]	@ (80019f4 <HAL_RCC_OscConfig+0x2a4>)
 8001898:	400b      	ands	r3, r1
 800189a:	6921      	ldr	r1, [r4, #16]
 800189c:	430b      	orrs	r3, r1
 800189e:	6013      	str	r3, [r2, #0]
 80018a0:	6811      	ldr	r1, [r2, #0]
 80018a2:	2380      	movs	r3, #128	@ 0x80
 80018a4:	005b      	lsls	r3, r3, #1
 80018a6:	430b      	orrs	r3, r1
 80018a8:	6013      	str	r3, [r2, #0]
 80018aa:	f7fe ff3f 	bl	800072c <HAL_GetTick>
 80018ae:	0005      	movs	r5, r0
 80018b0:	4b4c      	ldr	r3, [pc, #304]	@ (80019e4 <HAL_RCC_OscConfig+0x294>)
 80018b2:	681b      	ldr	r3, [r3, #0]
 80018b4:	055b      	lsls	r3, r3, #21
 80018b6:	d406      	bmi.n	80018c6 <HAL_RCC_OscConfig+0x176>
 80018b8:	f7fe ff38 	bl	800072c <HAL_GetTick>
 80018bc:	1b40      	subs	r0, r0, r5
 80018be:	2802      	cmp	r0, #2
 80018c0:	d9f6      	bls.n	80018b0 <HAL_RCC_OscConfig+0x160>
 80018c2:	2003      	movs	r0, #3
 80018c4:	e083      	b.n	80019ce <HAL_RCC_OscConfig+0x27e>
 80018c6:	4947      	ldr	r1, [pc, #284]	@ (80019e4 <HAL_RCC_OscConfig+0x294>)
 80018c8:	684b      	ldr	r3, [r1, #4]
 80018ca:	4a49      	ldr	r2, [pc, #292]	@ (80019f0 <HAL_RCC_OscConfig+0x2a0>)
 80018cc:	4013      	ands	r3, r2
 80018ce:	6962      	ldr	r2, [r4, #20]
 80018d0:	0212      	lsls	r2, r2, #8
 80018d2:	4313      	orrs	r3, r2
 80018d4:	604b      	str	r3, [r1, #4]
 80018d6:	e7ba      	b.n	800184e <HAL_RCC_OscConfig+0xfe>
 80018d8:	4a42      	ldr	r2, [pc, #264]	@ (80019e4 <HAL_RCC_OscConfig+0x294>)
 80018da:	6813      	ldr	r3, [r2, #0]
 80018dc:	4949      	ldr	r1, [pc, #292]	@ (8001a04 <HAL_RCC_OscConfig+0x2b4>)
 80018de:	400b      	ands	r3, r1
 80018e0:	6013      	str	r3, [r2, #0]
 80018e2:	f7fe ff23 	bl	800072c <HAL_GetTick>
 80018e6:	0005      	movs	r5, r0
 80018e8:	4b3e      	ldr	r3, [pc, #248]	@ (80019e4 <HAL_RCC_OscConfig+0x294>)
 80018ea:	681b      	ldr	r3, [r3, #0]
 80018ec:	055b      	lsls	r3, r3, #21
 80018ee:	d5ae      	bpl.n	800184e <HAL_RCC_OscConfig+0xfe>
 80018f0:	f7fe ff1c 	bl	800072c <HAL_GetTick>
 80018f4:	1b40      	subs	r0, r0, r5
 80018f6:	2802      	cmp	r0, #2
 80018f8:	d9f6      	bls.n	80018e8 <HAL_RCC_OscConfig+0x198>
 80018fa:	2003      	movs	r0, #3
 80018fc:	e067      	b.n	80019ce <HAL_RCC_OscConfig+0x27e>
 80018fe:	69a3      	ldr	r3, [r4, #24]
 8001900:	2b00      	cmp	r3, #0
 8001902:	d069      	beq.n	80019d8 <HAL_RCC_OscConfig+0x288>
 8001904:	6823      	ldr	r3, [r4, #0]
 8001906:	075b      	lsls	r3, r3, #29
 8001908:	d568      	bpl.n	80019dc <HAL_RCC_OscConfig+0x28c>
 800190a:	4b36      	ldr	r3, [pc, #216]	@ (80019e4 <HAL_RCC_OscConfig+0x294>)
 800190c:	689a      	ldr	r2, [r3, #8]
 800190e:	2338      	movs	r3, #56	@ 0x38
 8001910:	4013      	ands	r3, r2
 8001912:	2b20      	cmp	r3, #32
 8001914:	d032      	beq.n	800197c <HAL_RCC_OscConfig+0x22c>
 8001916:	68a3      	ldr	r3, [r4, #8]
 8001918:	2b01      	cmp	r3, #1
 800191a:	d034      	beq.n	8001986 <HAL_RCC_OscConfig+0x236>
 800191c:	2b05      	cmp	r3, #5
 800191e:	d038      	beq.n	8001992 <HAL_RCC_OscConfig+0x242>
 8001920:	4b30      	ldr	r3, [pc, #192]	@ (80019e4 <HAL_RCC_OscConfig+0x294>)
 8001922:	6dda      	ldr	r2, [r3, #92]	@ 0x5c
 8001924:	2101      	movs	r1, #1
 8001926:	438a      	bics	r2, r1
 8001928:	65da      	str	r2, [r3, #92]	@ 0x5c
 800192a:	6dda      	ldr	r2, [r3, #92]	@ 0x5c
 800192c:	3103      	adds	r1, #3
 800192e:	438a      	bics	r2, r1
 8001930:	65da      	str	r2, [r3, #92]	@ 0x5c
 8001932:	68a3      	ldr	r3, [r4, #8]
 8001934:	2b00      	cmp	r3, #0
 8001936:	d038      	beq.n	80019aa <HAL_RCC_OscConfig+0x25a>
 8001938:	f7fe fef8 	bl	800072c <HAL_GetTick>
 800193c:	0004      	movs	r4, r0
 800193e:	4b29      	ldr	r3, [pc, #164]	@ (80019e4 <HAL_RCC_OscConfig+0x294>)
 8001940:	6ddb      	ldr	r3, [r3, #92]	@ 0x5c
 8001942:	079b      	lsls	r3, r3, #30
 8001944:	d42f      	bmi.n	80019a6 <HAL_RCC_OscConfig+0x256>
 8001946:	f7fe fef1 	bl	800072c <HAL_GetTick>
 800194a:	1b00      	subs	r0, r0, r4
 800194c:	4b2e      	ldr	r3, [pc, #184]	@ (8001a08 <HAL_RCC_OscConfig+0x2b8>)
 800194e:	4298      	cmp	r0, r3
 8001950:	d9f5      	bls.n	800193e <HAL_RCC_OscConfig+0x1ee>
 8001952:	2003      	movs	r0, #3
 8001954:	e03b      	b.n	80019ce <HAL_RCC_OscConfig+0x27e>
 8001956:	4a23      	ldr	r2, [pc, #140]	@ (80019e4 <HAL_RCC_OscConfig+0x294>)
 8001958:	6e13      	ldr	r3, [r2, #96]	@ 0x60
 800195a:	2101      	movs	r1, #1
 800195c:	438b      	bics	r3, r1
 800195e:	6613      	str	r3, [r2, #96]	@ 0x60
 8001960:	f7fe fee4 	bl	800072c <HAL_GetTick>
 8001964:	0005      	movs	r5, r0
 8001966:	4b1f      	ldr	r3, [pc, #124]	@ (80019e4 <HAL_RCC_OscConfig+0x294>)
 8001968:	6e1b      	ldr	r3, [r3, #96]	@ 0x60
 800196a:	079b      	lsls	r3, r3, #30
 800196c:	d5ca      	bpl.n	8001904 <HAL_RCC_OscConfig+0x1b4>
 800196e:	f7fe fedd 	bl	800072c <HAL_GetTick>
 8001972:	1b40      	subs	r0, r0, r5
 8001974:	2802      	cmp	r0, #2
 8001976:	d9f6      	bls.n	8001966 <HAL_RCC_OscConfig+0x216>
 8001978:	2003      	movs	r0, #3
 800197a:	e028      	b.n	80019ce <HAL_RCC_OscConfig+0x27e>
 800197c:	68a3      	ldr	r3, [r4, #8]
 800197e:	2b00      	cmp	r3, #0
 8001980:	d02e      	beq.n	80019e0 <HAL_RCC_OscConfig+0x290>
 8001982:	2000      	movs	r0, #0
 8001984:	e023      	b.n	80019ce <HAL_RCC_OscConfig+0x27e>
 8001986:	4a17      	ldr	r2, [pc, #92]	@ (80019e4 <HAL_RCC_OscConfig+0x294>)
 8001988:	6dd3      	ldr	r3, [r2, #92]	@ 0x5c
 800198a:	2101      	movs	r1, #1
 800198c:	430b      	orrs	r3, r1
 800198e:	65d3      	str	r3, [r2, #92]	@ 0x5c
 8001990:	e7cf      	b.n	8001932 <HAL_RCC_OscConfig+0x1e2>
 8001992:	4b14      	ldr	r3, [pc, #80]	@ (80019e4 <HAL_RCC_OscConfig+0x294>)
 8001994:	6dda      	ldr	r2, [r3, #92]	@ 0x5c
 8001996:	2104      	movs	r1, #4
 8001998:	430a      	orrs	r2, r1
 800199a:	65da      	str	r2, [r3, #92]	@ 0x5c
 800199c:	6dda      	ldr	r2, [r3, #92]	@ 0x5c
 800199e:	3903      	subs	r1, #3
 80019a0:	430a      	orrs	r2, r1
 80019a2:	65da      	str	r2, [r3, #92]	@ 0x5c
 80019a4:	e7c5      	b.n	8001932 <HAL_RCC_OscConfig+0x1e2>
 80019a6:	2000      	movs	r0, #0
 80019a8:	e011      	b.n	80019ce <HAL_RCC_OscConfig+0x27e>
 80019aa:	f7fe febf 	bl	800072c <HAL_GetTick>
 80019ae:	0004      	movs	r4, r0
 80019b0:	4b0c      	ldr	r3, [pc, #48]	@ (80019e4 <HAL_RCC_OscConfig+0x294>)
 80019b2:	6ddb      	ldr	r3, [r3, #92]	@ 0x5c
 80019b4:	079b      	lsls	r3, r3, #30
 80019b6:	d507      	bpl.n	80019c8 <HAL_RCC_OscConfig+0x278>
 80019b8:	f7fe feb8 	bl	800072c <HAL_GetTick>
 80019bc:	1b00      	subs	r0, r0, r4
 80019be:	4b12      	ldr	r3, [pc, #72]	@ (8001a08 <HAL_RCC_OscConfig+0x2b8>)
 80019c0:	4298      	cmp	r0, r3
 80019c2:	d9f5      	bls.n	80019b0 <HAL_RCC_OscConfig+0x260>
 80019c4:	2003      	movs	r0, #3
 80019c6:	e002      	b.n	80019ce <HAL_RCC_OscConfig+0x27e>
 80019c8:	2000      	movs	r0, #0
 80019ca:	e000      	b.n	80019ce <HAL_RCC_OscConfig+0x27e>
 80019cc:	2001      	movs	r0, #1
 80019ce:	bd70      	pop	{r4, r5, r6, pc}
 80019d0:	2001      	movs	r0, #1
 80019d2:	e7fc      	b.n	80019ce <HAL_RCC_OscConfig+0x27e>
 80019d4:	2001      	movs	r0, #1
 80019d6:	e7fa      	b.n	80019ce <HAL_RCC_OscConfig+0x27e>
 80019d8:	2001      	movs	r0, #1
 80019da:	e7f8      	b.n	80019ce <HAL_RCC_OscConfig+0x27e>
 80019dc:	2000      	movs	r0, #0
 80019de:	e7f6      	b.n	80019ce <HAL_RCC_OscConfig+0x27e>
 80019e0:	2001      	movs	r0, #1
 80019e2:	e7f4      	b.n	80019ce <HAL_RCC_OscConfig+0x27e>
 80019e4:	40021000 	.word	0x40021000
 80019e8:	fffeffff 	.word	0xfffeffff
 80019ec:	fffbffff 	.word	0xfffbffff
 80019f0:	ffff80ff 	.word	0xffff80ff
 80019f4:	ffffc7ff 	.word	0xffffc7ff
 80019f8:	02dc6c00 	.word	0x02dc6c00
 80019fc:	20000008 	.word	0x20000008
 8001a00:	20000004 	.word	0x20000004
 8001a04:	fffffeff 	.word	0xfffffeff
 8001a08:	00001388 	.word	0x00001388

08001a0c <HAL_RCC_GetSysClockFreq>:
 8001a0c:	4b14      	ldr	r3, [pc, #80]	@ (8001a60 <HAL_RCC_GetSysClockFreq+0x54>)
 8001a0e:	689b      	ldr	r3, [r3, #8]
 8001a10:	2238      	movs	r2, #56	@ 0x38
 8001a12:	421a      	tst	r2, r3
 8001a14:	d107      	bne.n	8001a26 <HAL_RCC_GetSysClockFreq+0x1a>
 8001a16:	4b12      	ldr	r3, [pc, #72]	@ (8001a60 <HAL_RCC_GetSysClockFreq+0x54>)
 8001a18:	681a      	ldr	r2, [r3, #0]
 8001a1a:	0ad2      	lsrs	r2, r2, #11
 8001a1c:	2307      	movs	r3, #7
 8001a1e:	4013      	ands	r3, r2
 8001a20:	4810      	ldr	r0, [pc, #64]	@ (8001a64 <HAL_RCC_GetSysClockFreq+0x58>)
 8001a22:	40d8      	lsrs	r0, r3
 8001a24:	4770      	bx	lr
 8001a26:	4b0e      	ldr	r3, [pc, #56]	@ (8001a60 <HAL_RCC_GetSysClockFreq+0x54>)
 8001a28:	689a      	ldr	r2, [r3, #8]
 8001a2a:	2338      	movs	r3, #56	@ 0x38
 8001a2c:	4013      	ands	r3, r2
 8001a2e:	2b08      	cmp	r3, #8
 8001a30:	d010      	beq.n	8001a54 <HAL_RCC_GetSysClockFreq+0x48>
 8001a32:	4b0b      	ldr	r3, [pc, #44]	@ (8001a60 <HAL_RCC_GetSysClockFreq+0x54>)
 8001a34:	689a      	ldr	r2, [r3, #8]
 8001a36:	2338      	movs	r3, #56	@ 0x38
 8001a38:	4013      	ands	r3, r2
 8001a3a:	2b20      	cmp	r3, #32
 8001a3c:	d00c      	beq.n	8001a58 <HAL_RCC_GetSysClockFreq+0x4c>
 8001a3e:	4b08      	ldr	r3, [pc, #32]	@ (8001a60 <HAL_RCC_GetSysClockFreq+0x54>)
 8001a40:	689a      	ldr	r2, [r3, #8]
 8001a42:	2338      	movs	r3, #56	@ 0x38
 8001a44:	4013      	ands	r3, r2
 8001a46:	2b18      	cmp	r3, #24
 8001a48:	d001      	beq.n	8001a4e <HAL_RCC_GetSysClockFreq+0x42>
 8001a4a:	2000      	movs	r0, #0
 8001a4c:	e7ea      	b.n	8001a24 <HAL_RCC_GetSysClockFreq+0x18>
 8001a4e:	20fa      	movs	r0, #250	@ 0xfa
 8001a50:	01c0      	lsls	r0, r0, #7
 8001a52:	e7e7      	b.n	8001a24 <HAL_RCC_GetSysClockFreq+0x18>
 8001a54:	4803      	ldr	r0, [pc, #12]	@ (8001a64 <HAL_RCC_GetSysClockFreq+0x58>)
 8001a56:	e7e5      	b.n	8001a24 <HAL_RCC_GetSysClockFreq+0x18>
 8001a58:	2080      	movs	r0, #128	@ 0x80
 8001a5a:	0200      	lsls	r0, r0, #8
 8001a5c:	e7e2      	b.n	8001a24 <HAL_RCC_GetSysClockFreq+0x18>
 8001a5e:	46c0      	nop			@ (mov r8, r8)
 8001a60:	40021000 	.word	0x40021000
 8001a64:	02dc6c00 	.word	0x02dc6c00

08001a68 <HAL_RCC_ClockConfig>:
 8001a68:	b570      	push	{r4, r5, r6, lr}
 8001a6a:	0004      	movs	r4, r0
 8001a6c:	000d      	movs	r5, r1
 8001a6e:	2800      	cmp	r0, #0
 8001a70:	d100      	bne.n	8001a74 <HAL_RCC_ClockConfig+0xc>
 8001a72:	e0a4      	b.n	8001bbe <HAL_RCC_ClockConfig+0x156>
 8001a74:	4b54      	ldr	r3, [pc, #336]	@ (8001bc8 <HAL_RCC_ClockConfig+0x160>)
 8001a76:	681a      	ldr	r2, [r3, #0]
 8001a78:	2307      	movs	r3, #7
 8001a7a:	4013      	ands	r3, r2
 8001a7c:	428b      	cmp	r3, r1
 8001a7e:	d321      	bcc.n	8001ac4 <HAL_RCC_ClockConfig+0x5c>
 8001a80:	6823      	ldr	r3, [r4, #0]
 8001a82:	079a      	lsls	r2, r3, #30
 8001a84:	d510      	bpl.n	8001aa8 <HAL_RCC_ClockConfig+0x40>
 8001a86:	075b      	lsls	r3, r3, #29
 8001a88:	d507      	bpl.n	8001a9a <HAL_RCC_ClockConfig+0x32>
 8001a8a:	4950      	ldr	r1, [pc, #320]	@ (8001bcc <HAL_RCC_ClockConfig+0x164>)
 8001a8c:	688a      	ldr	r2, [r1, #8]
 8001a8e:	4b50      	ldr	r3, [pc, #320]	@ (8001bd0 <HAL_RCC_ClockConfig+0x168>)
 8001a90:	401a      	ands	r2, r3
 8001a92:	23b0      	movs	r3, #176	@ 0xb0
 8001a94:	011b      	lsls	r3, r3, #4
 8001a96:	4313      	orrs	r3, r2
 8001a98:	608b      	str	r3, [r1, #8]
 8001a9a:	4a4c      	ldr	r2, [pc, #304]	@ (8001bcc <HAL_RCC_ClockConfig+0x164>)
 8001a9c:	6893      	ldr	r3, [r2, #8]
 8001a9e:	494d      	ldr	r1, [pc, #308]	@ (8001bd4 <HAL_RCC_ClockConfig+0x16c>)
 8001aa0:	400b      	ands	r3, r1
 8001aa2:	68e1      	ldr	r1, [r4, #12]
 8001aa4:	430b      	orrs	r3, r1
 8001aa6:	6093      	str	r3, [r2, #8]
 8001aa8:	6823      	ldr	r3, [r4, #0]
 8001aaa:	07db      	lsls	r3, r3, #31
 8001aac:	d54c      	bpl.n	8001b48 <HAL_RCC_ClockConfig+0xe0>
 8001aae:	6863      	ldr	r3, [r4, #4]
 8001ab0:	2b01      	cmp	r3, #1
 8001ab2:	d01e      	beq.n	8001af2 <HAL_RCC_ClockConfig+0x8a>
 8001ab4:	2b00      	cmp	r3, #0
 8001ab6:	d139      	bne.n	8001b2c <HAL_RCC_ClockConfig+0xc4>
 8001ab8:	4a44      	ldr	r2, [pc, #272]	@ (8001bcc <HAL_RCC_ClockConfig+0x164>)
 8001aba:	6812      	ldr	r2, [r2, #0]
 8001abc:	0552      	lsls	r2, r2, #21
 8001abe:	d41c      	bmi.n	8001afa <HAL_RCC_ClockConfig+0x92>
 8001ac0:	2001      	movs	r0, #1
 8001ac2:	e064      	b.n	8001b8e <HAL_RCC_ClockConfig+0x126>
 8001ac4:	4a40      	ldr	r2, [pc, #256]	@ (8001bc8 <HAL_RCC_ClockConfig+0x160>)
 8001ac6:	6813      	ldr	r3, [r2, #0]
 8001ac8:	2107      	movs	r1, #7
 8001aca:	438b      	bics	r3, r1
 8001acc:	432b      	orrs	r3, r5
 8001ace:	6013      	str	r3, [r2, #0]
 8001ad0:	f7fe fe2c 	bl	800072c <HAL_GetTick>
 8001ad4:	0006      	movs	r6, r0
 8001ad6:	4b3c      	ldr	r3, [pc, #240]	@ (8001bc8 <HAL_RCC_ClockConfig+0x160>)
 8001ad8:	681a      	ldr	r2, [r3, #0]
 8001ada:	2307      	movs	r3, #7
 8001adc:	4013      	ands	r3, r2
 8001ade:	42ab      	cmp	r3, r5
 8001ae0:	d0ce      	beq.n	8001a80 <HAL_RCC_ClockConfig+0x18>
 8001ae2:	f7fe fe23 	bl	800072c <HAL_GetTick>
 8001ae6:	1b80      	subs	r0, r0, r6
 8001ae8:	4a3b      	ldr	r2, [pc, #236]	@ (8001bd8 <HAL_RCC_ClockConfig+0x170>)
 8001aea:	4290      	cmp	r0, r2
 8001aec:	d9f3      	bls.n	8001ad6 <HAL_RCC_ClockConfig+0x6e>
 8001aee:	2003      	movs	r0, #3
 8001af0:	e04d      	b.n	8001b8e <HAL_RCC_ClockConfig+0x126>
 8001af2:	4a36      	ldr	r2, [pc, #216]	@ (8001bcc <HAL_RCC_ClockConfig+0x164>)
 8001af4:	6812      	ldr	r2, [r2, #0]
 8001af6:	0392      	lsls	r2, r2, #14
 8001af8:	d563      	bpl.n	8001bc2 <HAL_RCC_ClockConfig+0x15a>
 8001afa:	4934      	ldr	r1, [pc, #208]	@ (8001bcc <HAL_RCC_ClockConfig+0x164>)
 8001afc:	688a      	ldr	r2, [r1, #8]
 8001afe:	2007      	movs	r0, #7
 8001b00:	4382      	bics	r2, r0
 8001b02:	4313      	orrs	r3, r2
 8001b04:	608b      	str	r3, [r1, #8]
 8001b06:	f7fe fe11 	bl	800072c <HAL_GetTick>
 8001b0a:	0006      	movs	r6, r0
 8001b0c:	4b2f      	ldr	r3, [pc, #188]	@ (8001bcc <HAL_RCC_ClockConfig+0x164>)
 8001b0e:	689b      	ldr	r3, [r3, #8]
 8001b10:	2238      	movs	r2, #56	@ 0x38
 8001b12:	401a      	ands	r2, r3
 8001b14:	6863      	ldr	r3, [r4, #4]
 8001b16:	00db      	lsls	r3, r3, #3
 8001b18:	429a      	cmp	r2, r3
 8001b1a:	d015      	beq.n	8001b48 <HAL_RCC_ClockConfig+0xe0>
 8001b1c:	f7fe fe06 	bl	800072c <HAL_GetTick>
 8001b20:	1b80      	subs	r0, r0, r6
 8001b22:	4b2d      	ldr	r3, [pc, #180]	@ (8001bd8 <HAL_RCC_ClockConfig+0x170>)
 8001b24:	4298      	cmp	r0, r3
 8001b26:	d9f1      	bls.n	8001b0c <HAL_RCC_ClockConfig+0xa4>
 8001b28:	2003      	movs	r0, #3
 8001b2a:	e030      	b.n	8001b8e <HAL_RCC_ClockConfig+0x126>
 8001b2c:	2b03      	cmp	r3, #3
 8001b2e:	d005      	beq.n	8001b3c <HAL_RCC_ClockConfig+0xd4>
 8001b30:	4a26      	ldr	r2, [pc, #152]	@ (8001bcc <HAL_RCC_ClockConfig+0x164>)
 8001b32:	6dd2      	ldr	r2, [r2, #92]	@ 0x5c
 8001b34:	0792      	lsls	r2, r2, #30
 8001b36:	d4e0      	bmi.n	8001afa <HAL_RCC_ClockConfig+0x92>
 8001b38:	2001      	movs	r0, #1
 8001b3a:	e028      	b.n	8001b8e <HAL_RCC_ClockConfig+0x126>
 8001b3c:	4a23      	ldr	r2, [pc, #140]	@ (8001bcc <HAL_RCC_ClockConfig+0x164>)
 8001b3e:	6e12      	ldr	r2, [r2, #96]	@ 0x60
 8001b40:	0792      	lsls	r2, r2, #30
 8001b42:	d4da      	bmi.n	8001afa <HAL_RCC_ClockConfig+0x92>
 8001b44:	2001      	movs	r0, #1
 8001b46:	e022      	b.n	8001b8e <HAL_RCC_ClockConfig+0x126>
 8001b48:	4b1f      	ldr	r3, [pc, #124]	@ (8001bc8 <HAL_RCC_ClockConfig+0x160>)
 8001b4a:	681a      	ldr	r2, [r3, #0]
 8001b4c:	2307      	movs	r3, #7
 8001b4e:	4013      	ands	r3, r2
 8001b50:	42ab      	cmp	r3, r5
 8001b52:	d81d      	bhi.n	8001b90 <HAL_RCC_ClockConfig+0x128>
 8001b54:	6823      	ldr	r3, [r4, #0]
 8001b56:	075b      	lsls	r3, r3, #29
 8001b58:	d506      	bpl.n	8001b68 <HAL_RCC_ClockConfig+0x100>
 8001b5a:	4a1c      	ldr	r2, [pc, #112]	@ (8001bcc <HAL_RCC_ClockConfig+0x164>)
 8001b5c:	6893      	ldr	r3, [r2, #8]
 8001b5e:	491f      	ldr	r1, [pc, #124]	@ (8001bdc <HAL_RCC_ClockConfig+0x174>)
 8001b60:	400b      	ands	r3, r1
 8001b62:	6921      	ldr	r1, [r4, #16]
 8001b64:	430b      	orrs	r3, r1
 8001b66:	6093      	str	r3, [r2, #8]
 8001b68:	f7ff ff50 	bl	8001a0c <HAL_RCC_GetSysClockFreq>
 8001b6c:	4b17      	ldr	r3, [pc, #92]	@ (8001bcc <HAL_RCC_ClockConfig+0x164>)
 8001b6e:	689a      	ldr	r2, [r3, #8]
 8001b70:	0a12      	lsrs	r2, r2, #8
 8001b72:	230f      	movs	r3, #15
 8001b74:	4013      	ands	r3, r2
 8001b76:	4a1a      	ldr	r2, [pc, #104]	@ (8001be0 <HAL_RCC_ClockConfig+0x178>)
 8001b78:	009b      	lsls	r3, r3, #2
 8001b7a:	589a      	ldr	r2, [r3, r2]
 8001b7c:	231f      	movs	r3, #31
 8001b7e:	4013      	ands	r3, r2
 8001b80:	40d8      	lsrs	r0, r3
 8001b82:	4b18      	ldr	r3, [pc, #96]	@ (8001be4 <HAL_RCC_ClockConfig+0x17c>)
 8001b84:	6018      	str	r0, [r3, #0]
 8001b86:	4b18      	ldr	r3, [pc, #96]	@ (8001be8 <HAL_RCC_ClockConfig+0x180>)
 8001b88:	6818      	ldr	r0, [r3, #0]
 8001b8a:	f7fe fd8b 	bl	80006a4 <HAL_InitTick>
 8001b8e:	bd70      	pop	{r4, r5, r6, pc}
 8001b90:	4a0d      	ldr	r2, [pc, #52]	@ (8001bc8 <HAL_RCC_ClockConfig+0x160>)
 8001b92:	6813      	ldr	r3, [r2, #0]
 8001b94:	2107      	movs	r1, #7
 8001b96:	438b      	bics	r3, r1
 8001b98:	432b      	orrs	r3, r5
 8001b9a:	6013      	str	r3, [r2, #0]
 8001b9c:	f7fe fdc6 	bl	800072c <HAL_GetTick>
 8001ba0:	0006      	movs	r6, r0
 8001ba2:	4b09      	ldr	r3, [pc, #36]	@ (8001bc8 <HAL_RCC_ClockConfig+0x160>)
 8001ba4:	681a      	ldr	r2, [r3, #0]
 8001ba6:	2307      	movs	r3, #7
 8001ba8:	4013      	ands	r3, r2
 8001baa:	42ab      	cmp	r3, r5
 8001bac:	d0d2      	beq.n	8001b54 <HAL_RCC_ClockConfig+0xec>
 8001bae:	f7fe fdbd 	bl	800072c <HAL_GetTick>
 8001bb2:	1b80      	subs	r0, r0, r6
 8001bb4:	4b08      	ldr	r3, [pc, #32]	@ (8001bd8 <HAL_RCC_ClockConfig+0x170>)
 8001bb6:	4298      	cmp	r0, r3
 8001bb8:	d9f3      	bls.n	8001ba2 <HAL_RCC_ClockConfig+0x13a>
 8001bba:	2003      	movs	r0, #3
 8001bbc:	e7e7      	b.n	8001b8e <HAL_RCC_ClockConfig+0x126>
 8001bbe:	2001      	movs	r0, #1
 8001bc0:	e7e5      	b.n	8001b8e <HAL_RCC_ClockConfig+0x126>
 8001bc2:	2001      	movs	r0, #1
 8001bc4:	e7e3      	b.n	8001b8e <HAL_RCC_ClockConfig+0x126>
 8001bc6:	46c0      	nop			@ (mov r8, r8)
 8001bc8:	40022000 	.word	0x40022000
 8001bcc:	40021000 	.word	0x40021000
 8001bd0:	ffff84ff 	.word	0xffff84ff
 8001bd4:	fffff0ff 	.word	0xfffff0ff
 8001bd8:	00001388 	.word	0x00001388
 8001bdc:	ffff8fff 	.word	0xffff8fff
 8001be0:	08002f48 	.word	0x08002f48
 8001be4:	20000008 	.word	0x20000008
 8001be8:	20000004 	.word	0x20000004

08001bec <HAL_RCC_GetHCLKFreq>:
 8001bec:	b510      	push	{r4, lr}
 8001bee:	f7ff ff0d 	bl	8001a0c <HAL_RCC_GetSysClockFreq>
 8001bf2:	4b07      	ldr	r3, [pc, #28]	@ (8001c10 <HAL_RCC_GetHCLKFreq+0x24>)
 8001bf4:	689a      	ldr	r2, [r3, #8]
 8001bf6:	0a12      	lsrs	r2, r2, #8
 8001bf8:	230f      	movs	r3, #15
 8001bfa:	4013      	ands	r3, r2
 8001bfc:	4a05      	ldr	r2, [pc, #20]	@ (8001c14 <HAL_RCC_GetHCLKFreq+0x28>)
 8001bfe:	009b      	lsls	r3, r3, #2
 8001c00:	589a      	ldr	r2, [r3, r2]
 8001c02:	231f      	movs	r3, #31
 8001c04:	4013      	ands	r3, r2
 8001c06:	40d8      	lsrs	r0, r3
 8001c08:	4b03      	ldr	r3, [pc, #12]	@ (8001c18 <HAL_RCC_GetHCLKFreq+0x2c>)
 8001c0a:	6018      	str	r0, [r3, #0]
 8001c0c:	bd10      	pop	{r4, pc}
 8001c0e:	46c0      	nop			@ (mov r8, r8)
 8001c10:	40021000 	.word	0x40021000
 8001c14:	08002f48 	.word	0x08002f48
 8001c18:	20000008 	.word	0x20000008

08001c1c <HAL_RCC_GetPCLK1Freq>:
 8001c1c:	b510      	push	{r4, lr}
 8001c1e:	f7ff ffe5 	bl	8001bec <HAL_RCC_GetHCLKFreq>
 8001c22:	4b06      	ldr	r3, [pc, #24]	@ (8001c3c <HAL_RCC_GetPCLK1Freq+0x20>)
 8001c24:	689a      	ldr	r2, [r3, #8]
 8001c26:	0b12      	lsrs	r2, r2, #12
 8001c28:	2307      	movs	r3, #7
 8001c2a:	4013      	ands	r3, r2
 8001c2c:	4a04      	ldr	r2, [pc, #16]	@ (8001c40 <HAL_RCC_GetPCLK1Freq+0x24>)
 8001c2e:	009b      	lsls	r3, r3, #2
 8001c30:	589a      	ldr	r2, [r3, r2]
 8001c32:	231f      	movs	r3, #31
 8001c34:	4013      	ands	r3, r2
 8001c36:	40d8      	lsrs	r0, r3
 8001c38:	bd10      	pop	{r4, pc}
 8001c3a:	46c0      	nop			@ (mov r8, r8)
 8001c3c:	40021000 	.word	0x40021000
 8001c40:	08002f28 	.word	0x08002f28

08001c44 <HAL_RCCEx_PeriphCLKConfig>:
 8001c44:	b570      	push	{r4, r5, r6, lr}
 8001c46:	b082      	sub	sp, #8
 8001c48:	0004      	movs	r4, r0
 8001c4a:	6803      	ldr	r3, [r0, #0]
 8001c4c:	065b      	lsls	r3, r3, #25
 8001c4e:	d550      	bpl.n	8001cf2 <HAL_RCCEx_PeriphCLKConfig+0xae>
 8001c50:	4b42      	ldr	r3, [pc, #264]	@ (8001d5c <HAL_RCCEx_PeriphCLKConfig+0x118>)
 8001c52:	6bdb      	ldr	r3, [r3, #60]	@ 0x3c
 8001c54:	00db      	lsls	r3, r3, #3
 8001c56:	d435      	bmi.n	8001cc4 <HAL_RCCEx_PeriphCLKConfig+0x80>
 8001c58:	4b40      	ldr	r3, [pc, #256]	@ (8001d5c <HAL_RCCEx_PeriphCLKConfig+0x118>)
 8001c5a:	6bda      	ldr	r2, [r3, #60]	@ 0x3c
 8001c5c:	2180      	movs	r1, #128	@ 0x80
 8001c5e:	0549      	lsls	r1, r1, #21
 8001c60:	430a      	orrs	r2, r1
 8001c62:	63da      	str	r2, [r3, #60]	@ 0x3c
 8001c64:	6bdb      	ldr	r3, [r3, #60]	@ 0x3c
 8001c66:	400b      	ands	r3, r1
 8001c68:	9301      	str	r3, [sp, #4]
 8001c6a:	9b01      	ldr	r3, [sp, #4]
 8001c6c:	2501      	movs	r5, #1
 8001c6e:	4b3b      	ldr	r3, [pc, #236]	@ (8001d5c <HAL_RCCEx_PeriphCLKConfig+0x118>)
 8001c70:	6dd9      	ldr	r1, [r3, #92]	@ 0x5c
 8001c72:	22c0      	movs	r2, #192	@ 0xc0
 8001c74:	0092      	lsls	r2, r2, #2
 8001c76:	000b      	movs	r3, r1
 8001c78:	4013      	ands	r3, r2
 8001c7a:	4211      	tst	r1, r2
 8001c7c:	d035      	beq.n	8001cea <HAL_RCCEx_PeriphCLKConfig+0xa6>
 8001c7e:	69a2      	ldr	r2, [r4, #24]
 8001c80:	429a      	cmp	r2, r3
 8001c82:	d00d      	beq.n	8001ca0 <HAL_RCCEx_PeriphCLKConfig+0x5c>
 8001c84:	4a35      	ldr	r2, [pc, #212]	@ (8001d5c <HAL_RCCEx_PeriphCLKConfig+0x118>)
 8001c86:	6dd3      	ldr	r3, [r2, #92]	@ 0x5c
 8001c88:	4935      	ldr	r1, [pc, #212]	@ (8001d60 <HAL_RCCEx_PeriphCLKConfig+0x11c>)
 8001c8a:	400b      	ands	r3, r1
 8001c8c:	6dd0      	ldr	r0, [r2, #92]	@ 0x5c
 8001c8e:	2180      	movs	r1, #128	@ 0x80
 8001c90:	0249      	lsls	r1, r1, #9
 8001c92:	4301      	orrs	r1, r0
 8001c94:	65d1      	str	r1, [r2, #92]	@ 0x5c
 8001c96:	6dd1      	ldr	r1, [r2, #92]	@ 0x5c
 8001c98:	4832      	ldr	r0, [pc, #200]	@ (8001d64 <HAL_RCCEx_PeriphCLKConfig+0x120>)
 8001c9a:	4001      	ands	r1, r0
 8001c9c:	65d1      	str	r1, [r2, #92]	@ 0x5c
 8001c9e:	65d3      	str	r3, [r2, #92]	@ 0x5c
 8001ca0:	07db      	lsls	r3, r3, #31
 8001ca2:	d411      	bmi.n	8001cc8 <HAL_RCCEx_PeriphCLKConfig+0x84>
 8001ca4:	4a2d      	ldr	r2, [pc, #180]	@ (8001d5c <HAL_RCCEx_PeriphCLKConfig+0x118>)
 8001ca6:	6dd3      	ldr	r3, [r2, #92]	@ 0x5c
 8001ca8:	492d      	ldr	r1, [pc, #180]	@ (8001d60 <HAL_RCCEx_PeriphCLKConfig+0x11c>)
 8001caa:	400b      	ands	r3, r1
 8001cac:	69a1      	ldr	r1, [r4, #24]
 8001cae:	430b      	orrs	r3, r1
 8001cb0:	65d3      	str	r3, [r2, #92]	@ 0x5c
 8001cb2:	2000      	movs	r0, #0
 8001cb4:	2d01      	cmp	r5, #1
 8001cb6:	d11d      	bne.n	8001cf4 <HAL_RCCEx_PeriphCLKConfig+0xb0>
 8001cb8:	4a28      	ldr	r2, [pc, #160]	@ (8001d5c <HAL_RCCEx_PeriphCLKConfig+0x118>)
 8001cba:	6bd3      	ldr	r3, [r2, #60]	@ 0x3c
 8001cbc:	492a      	ldr	r1, [pc, #168]	@ (8001d68 <HAL_RCCEx_PeriphCLKConfig+0x124>)
 8001cbe:	400b      	ands	r3, r1
 8001cc0:	63d3      	str	r3, [r2, #60]	@ 0x3c
 8001cc2:	e017      	b.n	8001cf4 <HAL_RCCEx_PeriphCLKConfig+0xb0>
 8001cc4:	2500      	movs	r5, #0
 8001cc6:	e7d2      	b.n	8001c6e <HAL_RCCEx_PeriphCLKConfig+0x2a>
 8001cc8:	f7fe fd30 	bl	800072c <HAL_GetTick>
 8001ccc:	0006      	movs	r6, r0
 8001cce:	4b23      	ldr	r3, [pc, #140]	@ (8001d5c <HAL_RCCEx_PeriphCLKConfig+0x118>)
 8001cd0:	6ddb      	ldr	r3, [r3, #92]	@ 0x5c
 8001cd2:	079b      	lsls	r3, r3, #30
 8001cd4:	d407      	bmi.n	8001ce6 <HAL_RCCEx_PeriphCLKConfig+0xa2>
 8001cd6:	f7fe fd29 	bl	800072c <HAL_GetTick>
 8001cda:	1b80      	subs	r0, r0, r6
 8001cdc:	4b23      	ldr	r3, [pc, #140]	@ (8001d6c <HAL_RCCEx_PeriphCLKConfig+0x128>)
 8001cde:	4298      	cmp	r0, r3
 8001ce0:	d9f5      	bls.n	8001cce <HAL_RCCEx_PeriphCLKConfig+0x8a>
 8001ce2:	2003      	movs	r0, #3
 8001ce4:	e002      	b.n	8001cec <HAL_RCCEx_PeriphCLKConfig+0xa8>
 8001ce6:	2000      	movs	r0, #0
 8001ce8:	e000      	b.n	8001cec <HAL_RCCEx_PeriphCLKConfig+0xa8>
 8001cea:	2000      	movs	r0, #0
 8001cec:	2800      	cmp	r0, #0
 8001cee:	d1e1      	bne.n	8001cb4 <HAL_RCCEx_PeriphCLKConfig+0x70>
 8001cf0:	e7d8      	b.n	8001ca4 <HAL_RCCEx_PeriphCLKConfig+0x60>
 8001cf2:	2000      	movs	r0, #0
 8001cf4:	6823      	ldr	r3, [r4, #0]
 8001cf6:	07db      	lsls	r3, r3, #31
 8001cf8:	d506      	bpl.n	8001d08 <HAL_RCCEx_PeriphCLKConfig+0xc4>
 8001cfa:	4a18      	ldr	r2, [pc, #96]	@ (8001d5c <HAL_RCCEx_PeriphCLKConfig+0x118>)
 8001cfc:	6d53      	ldr	r3, [r2, #84]	@ 0x54
 8001cfe:	2103      	movs	r1, #3
 8001d00:	438b      	bics	r3, r1
 8001d02:	68a1      	ldr	r1, [r4, #8]
 8001d04:	430b      	orrs	r3, r1
 8001d06:	6553      	str	r3, [r2, #84]	@ 0x54
 8001d08:	6823      	ldr	r3, [r4, #0]
 8001d0a:	079b      	lsls	r3, r3, #30
 8001d0c:	d506      	bpl.n	8001d1c <HAL_RCCEx_PeriphCLKConfig+0xd8>
 8001d0e:	4a13      	ldr	r2, [pc, #76]	@ (8001d5c <HAL_RCCEx_PeriphCLKConfig+0x118>)
 8001d10:	6d53      	ldr	r3, [r2, #84]	@ 0x54
 8001d12:	4917      	ldr	r1, [pc, #92]	@ (8001d70 <HAL_RCCEx_PeriphCLKConfig+0x12c>)
 8001d14:	400b      	ands	r3, r1
 8001d16:	68e1      	ldr	r1, [r4, #12]
 8001d18:	430b      	orrs	r3, r1
 8001d1a:	6553      	str	r3, [r2, #84]	@ 0x54
 8001d1c:	6823      	ldr	r3, [r4, #0]
 8001d1e:	069b      	lsls	r3, r3, #26
 8001d20:	d506      	bpl.n	8001d30 <HAL_RCCEx_PeriphCLKConfig+0xec>
 8001d22:	4a0e      	ldr	r2, [pc, #56]	@ (8001d5c <HAL_RCCEx_PeriphCLKConfig+0x118>)
 8001d24:	6d53      	ldr	r3, [r2, #84]	@ 0x54
 8001d26:	009b      	lsls	r3, r3, #2
 8001d28:	089b      	lsrs	r3, r3, #2
 8001d2a:	6961      	ldr	r1, [r4, #20]
 8001d2c:	430b      	orrs	r3, r1
 8001d2e:	6553      	str	r3, [r2, #84]	@ 0x54
 8001d30:	6823      	ldr	r3, [r4, #0]
 8001d32:	075b      	lsls	r3, r3, #29
 8001d34:	d506      	bpl.n	8001d44 <HAL_RCCEx_PeriphCLKConfig+0x100>
 8001d36:	4a09      	ldr	r2, [pc, #36]	@ (8001d5c <HAL_RCCEx_PeriphCLKConfig+0x118>)
 8001d38:	6d53      	ldr	r3, [r2, #84]	@ 0x54
 8001d3a:	490e      	ldr	r1, [pc, #56]	@ (8001d74 <HAL_RCCEx_PeriphCLKConfig+0x130>)
 8001d3c:	400b      	ands	r3, r1
 8001d3e:	6921      	ldr	r1, [r4, #16]
 8001d40:	430b      	orrs	r3, r1
 8001d42:	6553      	str	r3, [r2, #84]	@ 0x54
 8001d44:	6823      	ldr	r3, [r4, #0]
 8001d46:	061b      	lsls	r3, r3, #24
 8001d48:	d506      	bpl.n	8001d58 <HAL_RCCEx_PeriphCLKConfig+0x114>
 8001d4a:	4a04      	ldr	r2, [pc, #16]	@ (8001d5c <HAL_RCCEx_PeriphCLKConfig+0x118>)
 8001d4c:	6813      	ldr	r3, [r2, #0]
 8001d4e:	21e0      	movs	r1, #224	@ 0xe0
 8001d50:	438b      	bics	r3, r1
 8001d52:	6861      	ldr	r1, [r4, #4]
 8001d54:	430b      	orrs	r3, r1
 8001d56:	6013      	str	r3, [r2, #0]
 8001d58:	b002      	add	sp, #8
 8001d5a:	bd70      	pop	{r4, r5, r6, pc}
 8001d5c:	40021000 	.word	0x40021000
 8001d60:	fffffcff 	.word	0xfffffcff
 8001d64:	fffeffff 	.word	0xfffeffff
 8001d68:	efffffff 	.word	0xefffffff
 8001d6c:	00001388 	.word	0x00001388
 8001d70:	ffffcfff 	.word	0xffffcfff
 8001d74:	ffff3fff 	.word	0xffff3fff

08001d78 <UART_EndRxTransfer>:
 8001d78:	b530      	push	{r4, r5, lr}
 8001d7a:	f3ef 8410 	mrs	r4, PRIMASK
 8001d7e:	2201      	movs	r2, #1
 8001d80:	f382 8810 	msr	PRIMASK, r2
 8001d84:	6801      	ldr	r1, [r0, #0]
 8001d86:	680b      	ldr	r3, [r1, #0]
 8001d88:	4d12      	ldr	r5, [pc, #72]	@ (8001dd4 <UART_EndRxTransfer+0x5c>)
 8001d8a:	402b      	ands	r3, r5
 8001d8c:	600b      	str	r3, [r1, #0]
 8001d8e:	f384 8810 	msr	PRIMASK, r4
 8001d92:	f3ef 8110 	mrs	r1, PRIMASK
 8001d96:	f382 8810 	msr	PRIMASK, r2
 8001d9a:	6802      	ldr	r2, [r0, #0]
 8001d9c:	6893      	ldr	r3, [r2, #8]
 8001d9e:	4c0e      	ldr	r4, [pc, #56]	@ (8001dd8 <UART_EndRxTransfer+0x60>)
 8001da0:	4023      	ands	r3, r4
 8001da2:	6093      	str	r3, [r2, #8]
 8001da4:	f381 8810 	msr	PRIMASK, r1
 8001da8:	6ec3      	ldr	r3, [r0, #108]	@ 0x6c
 8001daa:	2b01      	cmp	r3, #1
 8001dac:	d006      	beq.n	8001dbc <UART_EndRxTransfer+0x44>
 8001dae:	238c      	movs	r3, #140	@ 0x8c
 8001db0:	2220      	movs	r2, #32
 8001db2:	50c2      	str	r2, [r0, r3]
 8001db4:	2300      	movs	r3, #0
 8001db6:	66c3      	str	r3, [r0, #108]	@ 0x6c
 8001db8:	6743      	str	r3, [r0, #116]	@ 0x74
 8001dba:	bd30      	pop	{r4, r5, pc}
 8001dbc:	f3ef 8110 	mrs	r1, PRIMASK
 8001dc0:	f383 8810 	msr	PRIMASK, r3
 8001dc4:	6802      	ldr	r2, [r0, #0]
 8001dc6:	6813      	ldr	r3, [r2, #0]
 8001dc8:	2410      	movs	r4, #16
 8001dca:	43a3      	bics	r3, r4
 8001dcc:	6013      	str	r3, [r2, #0]
 8001dce:	f381 8810 	msr	PRIMASK, r1
 8001dd2:	e7ec      	b.n	8001dae <UART_EndRxTransfer+0x36>
 8001dd4:	fffffedf 	.word	0xfffffedf
 8001dd8:	effffffe 	.word	0xeffffffe

08001ddc <UART_SetConfig>:
 8001ddc:	b510      	push	{r4, lr}
 8001dde:	0004      	movs	r4, r0
 8001de0:	6883      	ldr	r3, [r0, #8]
 8001de2:	6902      	ldr	r2, [r0, #16]
 8001de4:	4313      	orrs	r3, r2
 8001de6:	6942      	ldr	r2, [r0, #20]
 8001de8:	4313      	orrs	r3, r2
 8001dea:	69c2      	ldr	r2, [r0, #28]
 8001dec:	4313      	orrs	r3, r2
 8001dee:	6801      	ldr	r1, [r0, #0]
 8001df0:	680a      	ldr	r2, [r1, #0]
 8001df2:	4862      	ldr	r0, [pc, #392]	@ (8001f7c <UART_SetConfig+0x1a0>)
 8001df4:	4002      	ands	r2, r0
 8001df6:	4313      	orrs	r3, r2
 8001df8:	600b      	str	r3, [r1, #0]
 8001dfa:	6822      	ldr	r2, [r4, #0]
 8001dfc:	6853      	ldr	r3, [r2, #4]
 8001dfe:	4960      	ldr	r1, [pc, #384]	@ (8001f80 <UART_SetConfig+0x1a4>)
 8001e00:	400b      	ands	r3, r1
 8001e02:	68e1      	ldr	r1, [r4, #12]
 8001e04:	430b      	orrs	r3, r1
 8001e06:	6053      	str	r3, [r2, #4]
 8001e08:	69a3      	ldr	r3, [r4, #24]
 8001e0a:	6a22      	ldr	r2, [r4, #32]
 8001e0c:	431a      	orrs	r2, r3
 8001e0e:	6821      	ldr	r1, [r4, #0]
 8001e10:	688b      	ldr	r3, [r1, #8]
 8001e12:	485c      	ldr	r0, [pc, #368]	@ (8001f84 <UART_SetConfig+0x1a8>)
 8001e14:	4003      	ands	r3, r0
 8001e16:	4313      	orrs	r3, r2
 8001e18:	608b      	str	r3, [r1, #8]
 8001e1a:	6822      	ldr	r2, [r4, #0]
 8001e1c:	6ad3      	ldr	r3, [r2, #44]	@ 0x2c
 8001e1e:	210f      	movs	r1, #15
 8001e20:	438b      	bics	r3, r1
 8001e22:	6a61      	ldr	r1, [r4, #36]	@ 0x24
 8001e24:	430b      	orrs	r3, r1
 8001e26:	62d3      	str	r3, [r2, #44]	@ 0x2c
 8001e28:	6823      	ldr	r3, [r4, #0]
 8001e2a:	4a57      	ldr	r2, [pc, #348]	@ (8001f88 <UART_SetConfig+0x1ac>)
 8001e2c:	4293      	cmp	r3, r2
 8001e2e:	d030      	beq.n	8001e92 <UART_SetConfig+0xb6>
 8001e30:	4a56      	ldr	r2, [pc, #344]	@ (8001f8c <UART_SetConfig+0x1b0>)
 8001e32:	4293      	cmp	r3, r2
 8001e34:	d03e      	beq.n	8001eb4 <UART_SetConfig+0xd8>
 8001e36:	2310      	movs	r3, #16
 8001e38:	69e0      	ldr	r0, [r4, #28]
 8001e3a:	2280      	movs	r2, #128	@ 0x80
 8001e3c:	0212      	lsls	r2, r2, #8
 8001e3e:	4290      	cmp	r0, r2
 8001e40:	d042      	beq.n	8001ec8 <UART_SetConfig+0xec>
 8001e42:	2b04      	cmp	r3, #4
 8001e44:	d100      	bne.n	8001e48 <UART_SetConfig+0x6c>
 8001e46:	e089      	b.n	8001f5c <UART_SetConfig+0x180>
 8001e48:	d87b      	bhi.n	8001f42 <UART_SetConfig+0x166>
 8001e4a:	2b00      	cmp	r3, #0
 8001e4c:	d100      	bne.n	8001e50 <UART_SetConfig+0x74>
 8001e4e:	e07f      	b.n	8001f50 <UART_SetConfig+0x174>
 8001e50:	2b02      	cmp	r3, #2
 8001e52:	d174      	bne.n	8001f3e <UART_SetConfig+0x162>
 8001e54:	4b4e      	ldr	r3, [pc, #312]	@ (8001f90 <UART_SetConfig+0x1b4>)
 8001e56:	681b      	ldr	r3, [r3, #0]
 8001e58:	095b      	lsrs	r3, r3, #5
 8001e5a:	2107      	movs	r1, #7
 8001e5c:	4019      	ands	r1, r3
 8001e5e:	3101      	adds	r1, #1
 8001e60:	484c      	ldr	r0, [pc, #304]	@ (8001f94 <UART_SetConfig+0x1b8>)
 8001e62:	f7fe f93f 	bl	80000e4 <__udivsi3>
 8001e66:	6a62      	ldr	r2, [r4, #36]	@ 0x24
 8001e68:	4b4b      	ldr	r3, [pc, #300]	@ (8001f98 <UART_SetConfig+0x1bc>)
 8001e6a:	0052      	lsls	r2, r2, #1
 8001e6c:	5ad1      	ldrh	r1, [r2, r3]
 8001e6e:	f7fe f939 	bl	80000e4 <__udivsi3>
 8001e72:	6861      	ldr	r1, [r4, #4]
 8001e74:	084b      	lsrs	r3, r1, #1
 8001e76:	18c0      	adds	r0, r0, r3
 8001e78:	f7fe f934 	bl	80000e4 <__udivsi3>
 8001e7c:	0002      	movs	r2, r0
 8001e7e:	3a10      	subs	r2, #16
 8001e80:	4b46      	ldr	r3, [pc, #280]	@ (8001f9c <UART_SetConfig+0x1c0>)
 8001e82:	429a      	cmp	r2, r3
 8001e84:	d86f      	bhi.n	8001f66 <UART_SetConfig+0x18a>
 8001e86:	6823      	ldr	r3, [r4, #0]
 8001e88:	0400      	lsls	r0, r0, #16
 8001e8a:	0c00      	lsrs	r0, r0, #16
 8001e8c:	60d8      	str	r0, [r3, #12]
 8001e8e:	2000      	movs	r0, #0
 8001e90:	e06a      	b.n	8001f68 <UART_SetConfig+0x18c>
 8001e92:	4b3f      	ldr	r3, [pc, #252]	@ (8001f90 <UART_SetConfig+0x1b4>)
 8001e94:	6d5a      	ldr	r2, [r3, #84]	@ 0x54
 8001e96:	2303      	movs	r3, #3
 8001e98:	4013      	ands	r3, r2
 8001e9a:	2b02      	cmp	r3, #2
 8001e9c:	d00c      	beq.n	8001eb8 <UART_SetConfig+0xdc>
 8001e9e:	d805      	bhi.n	8001eac <UART_SetConfig+0xd0>
 8001ea0:	2b00      	cmp	r3, #0
 8001ea2:	d00b      	beq.n	8001ebc <UART_SetConfig+0xe0>
 8001ea4:	2b01      	cmp	r3, #1
 8001ea6:	d10b      	bne.n	8001ec0 <UART_SetConfig+0xe4>
 8001ea8:	3303      	adds	r3, #3
 8001eaa:	e7c5      	b.n	8001e38 <UART_SetConfig+0x5c>
 8001eac:	2b03      	cmp	r3, #3
 8001eae:	d109      	bne.n	8001ec4 <UART_SetConfig+0xe8>
 8001eb0:	3305      	adds	r3, #5
 8001eb2:	e7c1      	b.n	8001e38 <UART_SetConfig+0x5c>
 8001eb4:	2300      	movs	r3, #0
 8001eb6:	e7bf      	b.n	8001e38 <UART_SetConfig+0x5c>
 8001eb8:	2302      	movs	r3, #2
 8001eba:	e7bd      	b.n	8001e38 <UART_SetConfig+0x5c>
 8001ebc:	2300      	movs	r3, #0
 8001ebe:	e7bb      	b.n	8001e38 <UART_SetConfig+0x5c>
 8001ec0:	2310      	movs	r3, #16
 8001ec2:	e7b9      	b.n	8001e38 <UART_SetConfig+0x5c>
 8001ec4:	2310      	movs	r3, #16
 8001ec6:	e7b7      	b.n	8001e38 <UART_SetConfig+0x5c>
 8001ec8:	2b04      	cmp	r3, #4
 8001eca:	d035      	beq.n	8001f38 <UART_SetConfig+0x15c>
 8001ecc:	d82a      	bhi.n	8001f24 <UART_SetConfig+0x148>
 8001ece:	2b00      	cmp	r3, #0
 8001ed0:	d02c      	beq.n	8001f2c <UART_SetConfig+0x150>
 8001ed2:	2b02      	cmp	r3, #2
 8001ed4:	d124      	bne.n	8001f20 <UART_SetConfig+0x144>
 8001ed6:	4b2e      	ldr	r3, [pc, #184]	@ (8001f90 <UART_SetConfig+0x1b4>)
 8001ed8:	681b      	ldr	r3, [r3, #0]
 8001eda:	095b      	lsrs	r3, r3, #5
 8001edc:	2107      	movs	r1, #7
 8001ede:	4019      	ands	r1, r3
 8001ee0:	3101      	adds	r1, #1
 8001ee2:	482c      	ldr	r0, [pc, #176]	@ (8001f94 <UART_SetConfig+0x1b8>)
 8001ee4:	f7fe f8fe 	bl	80000e4 <__udivsi3>
 8001ee8:	6a62      	ldr	r2, [r4, #36]	@ 0x24
 8001eea:	4b2b      	ldr	r3, [pc, #172]	@ (8001f98 <UART_SetConfig+0x1bc>)
 8001eec:	0052      	lsls	r2, r2, #1
 8001eee:	5ad1      	ldrh	r1, [r2, r3]
 8001ef0:	f7fe f8f8 	bl	80000e4 <__udivsi3>
 8001ef4:	0040      	lsls	r0, r0, #1
 8001ef6:	6861      	ldr	r1, [r4, #4]
 8001ef8:	084b      	lsrs	r3, r1, #1
 8001efa:	18c0      	adds	r0, r0, r3
 8001efc:	f7fe f8f2 	bl	80000e4 <__udivsi3>
 8001f00:	0002      	movs	r2, r0
 8001f02:	3a10      	subs	r2, #16
 8001f04:	4b25      	ldr	r3, [pc, #148]	@ (8001f9c <UART_SetConfig+0x1c0>)
 8001f06:	429a      	cmp	r2, r3
 8001f08:	d82b      	bhi.n	8001f62 <UART_SetConfig+0x186>
 8001f0a:	b282      	uxth	r2, r0
 8001f0c:	230f      	movs	r3, #15
 8001f0e:	439a      	bics	r2, r3
 8001f10:	0840      	lsrs	r0, r0, #1
 8001f12:	3b08      	subs	r3, #8
 8001f14:	4003      	ands	r3, r0
 8001f16:	4313      	orrs	r3, r2
 8001f18:	6822      	ldr	r2, [r4, #0]
 8001f1a:	60d3      	str	r3, [r2, #12]
 8001f1c:	2000      	movs	r0, #0
 8001f1e:	e023      	b.n	8001f68 <UART_SetConfig+0x18c>
 8001f20:	2001      	movs	r0, #1
 8001f22:	e021      	b.n	8001f68 <UART_SetConfig+0x18c>
 8001f24:	2b08      	cmp	r3, #8
 8001f26:	d0df      	beq.n	8001ee8 <UART_SetConfig+0x10c>
 8001f28:	2001      	movs	r0, #1
 8001f2a:	e01d      	b.n	8001f68 <UART_SetConfig+0x18c>
 8001f2c:	f7ff fe76 	bl	8001c1c <HAL_RCC_GetPCLK1Freq>
 8001f30:	2800      	cmp	r0, #0
 8001f32:	d1d9      	bne.n	8001ee8 <UART_SetConfig+0x10c>
 8001f34:	2000      	movs	r0, #0
 8001f36:	e017      	b.n	8001f68 <UART_SetConfig+0x18c>
 8001f38:	f7ff fd68 	bl	8001a0c <HAL_RCC_GetSysClockFreq>
 8001f3c:	e7f8      	b.n	8001f30 <UART_SetConfig+0x154>
 8001f3e:	2001      	movs	r0, #1
 8001f40:	e012      	b.n	8001f68 <UART_SetConfig+0x18c>
 8001f42:	2b08      	cmp	r3, #8
 8001f44:	d102      	bne.n	8001f4c <UART_SetConfig+0x170>
 8001f46:	2080      	movs	r0, #128	@ 0x80
 8001f48:	0200      	lsls	r0, r0, #8
 8001f4a:	e78c      	b.n	8001e66 <UART_SetConfig+0x8a>
 8001f4c:	2001      	movs	r0, #1
 8001f4e:	e00b      	b.n	8001f68 <UART_SetConfig+0x18c>
 8001f50:	f7ff fe64 	bl	8001c1c <HAL_RCC_GetPCLK1Freq>
 8001f54:	2800      	cmp	r0, #0
 8001f56:	d186      	bne.n	8001e66 <UART_SetConfig+0x8a>
 8001f58:	2000      	movs	r0, #0
 8001f5a:	e005      	b.n	8001f68 <UART_SetConfig+0x18c>
 8001f5c:	f7ff fd56 	bl	8001a0c <HAL_RCC_GetSysClockFreq>
 8001f60:	e7f8      	b.n	8001f54 <UART_SetConfig+0x178>
 8001f62:	2001      	movs	r0, #1
 8001f64:	e000      	b.n	8001f68 <UART_SetConfig+0x18c>
 8001f66:	2001      	movs	r0, #1
 8001f68:	2301      	movs	r3, #1
 8001f6a:	226a      	movs	r2, #106	@ 0x6a
 8001f6c:	52a3      	strh	r3, [r4, r2]
 8001f6e:	3a02      	subs	r2, #2
 8001f70:	52a3      	strh	r3, [r4, r2]
 8001f72:	2300      	movs	r3, #0
 8001f74:	6763      	str	r3, [r4, #116]	@ 0x74
 8001f76:	67a3      	str	r3, [r4, #120]	@ 0x78
 8001f78:	bd10      	pop	{r4, pc}
 8001f7a:	46c0      	nop			@ (mov r8, r8)
 8001f7c:	cfff69f3 	.word	0xcfff69f3
 8001f80:	ffffcfff 	.word	0xffffcfff
 8001f84:	11fff4ff 	.word	0x11fff4ff
 8001f88:	40013800 	.word	0x40013800
 8001f8c:	40004400 	.word	0x40004400
 8001f90:	40021000 	.word	0x40021000
 8001f94:	02dc6c00 	.word	0x02dc6c00
 8001f98:	08002f04 	.word	0x08002f04
 8001f9c:	0000ffef 	.word	0x0000ffef

08001fa0 <UART_AdvFeatureConfig>:
 8001fa0:	6a83      	ldr	r3, [r0, #40]	@ 0x28
 8001fa2:	071b      	lsls	r3, r3, #28
 8001fa4:	d506      	bpl.n	8001fb4 <UART_AdvFeatureConfig+0x14>
 8001fa6:	6802      	ldr	r2, [r0, #0]
 8001fa8:	6853      	ldr	r3, [r2, #4]
 8001faa:	492c      	ldr	r1, [pc, #176]	@ (800205c <UART_AdvFeatureConfig+0xbc>)
 8001fac:	400b      	ands	r3, r1
 8001fae:	6b81      	ldr	r1, [r0, #56]	@ 0x38
 8001fb0:	430b      	orrs	r3, r1
 8001fb2:	6053      	str	r3, [r2, #4]
 8001fb4:	6a83      	ldr	r3, [r0, #40]	@ 0x28
 8001fb6:	07db      	lsls	r3, r3, #31
 8001fb8:	d506      	bpl.n	8001fc8 <UART_AdvFeatureConfig+0x28>
 8001fba:	6802      	ldr	r2, [r0, #0]
 8001fbc:	6853      	ldr	r3, [r2, #4]
 8001fbe:	4928      	ldr	r1, [pc, #160]	@ (8002060 <UART_AdvFeatureConfig+0xc0>)
 8001fc0:	400b      	ands	r3, r1
 8001fc2:	6ac1      	ldr	r1, [r0, #44]	@ 0x2c
 8001fc4:	430b      	orrs	r3, r1
 8001fc6:	6053      	str	r3, [r2, #4]
 8001fc8:	6a83      	ldr	r3, [r0, #40]	@ 0x28
 8001fca:	079b      	lsls	r3, r3, #30
 8001fcc:	d506      	bpl.n	8001fdc <UART_AdvFeatureConfig+0x3c>
 8001fce:	6802      	ldr	r2, [r0, #0]
 8001fd0:	6853      	ldr	r3, [r2, #4]
 8001fd2:	4924      	ldr	r1, [pc, #144]	@ (8002064 <UART_AdvFeatureConfig+0xc4>)
 8001fd4:	400b      	ands	r3, r1
 8001fd6:	6b01      	ldr	r1, [r0, #48]	@ 0x30
 8001fd8:	430b      	orrs	r3, r1
 8001fda:	6053      	str	r3, [r2, #4]
 8001fdc:	6a83      	ldr	r3, [r0, #40]	@ 0x28
 8001fde:	075b      	lsls	r3, r3, #29
 8001fe0:	d506      	bpl.n	8001ff0 <UART_AdvFeatureConfig+0x50>
 8001fe2:	6802      	ldr	r2, [r0, #0]
 8001fe4:	6853      	ldr	r3, [r2, #4]
 8001fe6:	4920      	ldr	r1, [pc, #128]	@ (8002068 <UART_AdvFeatureConfig+0xc8>)
 8001fe8:	400b      	ands	r3, r1
 8001fea:	6b41      	ldr	r1, [r0, #52]	@ 0x34
 8001fec:	430b      	orrs	r3, r1
 8001fee:	6053      	str	r3, [r2, #4]
 8001ff0:	6a83      	ldr	r3, [r0, #40]	@ 0x28
 8001ff2:	06db      	lsls	r3, r3, #27
 8001ff4:	d506      	bpl.n	8002004 <UART_AdvFeatureConfig+0x64>
 8001ff6:	6802      	ldr	r2, [r0, #0]
 8001ff8:	6893      	ldr	r3, [r2, #8]
 8001ffa:	491c      	ldr	r1, [pc, #112]	@ (800206c <UART_AdvFeatureConfig+0xcc>)
 8001ffc:	400b      	ands	r3, r1
 8001ffe:	6bc1      	ldr	r1, [r0, #60]	@ 0x3c
 8002000:	430b      	orrs	r3, r1
 8002002:	6093      	str	r3, [r2, #8]
 8002004:	6a83      	ldr	r3, [r0, #40]	@ 0x28
 8002006:	069b      	lsls	r3, r3, #26
 8002008:	d506      	bpl.n	8002018 <UART_AdvFeatureConfig+0x78>
 800200a:	6802      	ldr	r2, [r0, #0]
 800200c:	6893      	ldr	r3, [r2, #8]
 800200e:	4918      	ldr	r1, [pc, #96]	@ (8002070 <UART_AdvFeatureConfig+0xd0>)
 8002010:	400b      	ands	r3, r1
 8002012:	6c01      	ldr	r1, [r0, #64]	@ 0x40
 8002014:	430b      	orrs	r3, r1
 8002016:	6093      	str	r3, [r2, #8]
 8002018:	6a83      	ldr	r3, [r0, #40]	@ 0x28
 800201a:	065b      	lsls	r3, r3, #25
 800201c:	d50b      	bpl.n	8002036 <UART_AdvFeatureConfig+0x96>
 800201e:	6802      	ldr	r2, [r0, #0]
 8002020:	6853      	ldr	r3, [r2, #4]
 8002022:	4914      	ldr	r1, [pc, #80]	@ (8002074 <UART_AdvFeatureConfig+0xd4>)
 8002024:	400b      	ands	r3, r1
 8002026:	6c41      	ldr	r1, [r0, #68]	@ 0x44
 8002028:	430b      	orrs	r3, r1
 800202a:	6053      	str	r3, [r2, #4]
 800202c:	6c42      	ldr	r2, [r0, #68]	@ 0x44
 800202e:	2380      	movs	r3, #128	@ 0x80
 8002030:	035b      	lsls	r3, r3, #13
 8002032:	429a      	cmp	r2, r3
 8002034:	d00a      	beq.n	800204c <UART_AdvFeatureConfig+0xac>
 8002036:	6a83      	ldr	r3, [r0, #40]	@ 0x28
 8002038:	061b      	lsls	r3, r3, #24
 800203a:	d506      	bpl.n	800204a <UART_AdvFeatureConfig+0xaa>
 800203c:	6802      	ldr	r2, [r0, #0]
 800203e:	6853      	ldr	r3, [r2, #4]
 8002040:	490d      	ldr	r1, [pc, #52]	@ (8002078 <UART_AdvFeatureConfig+0xd8>)
 8002042:	400b      	ands	r3, r1
 8002044:	6cc1      	ldr	r1, [r0, #76]	@ 0x4c
 8002046:	430b      	orrs	r3, r1
 8002048:	6053      	str	r3, [r2, #4]
 800204a:	4770      	bx	lr
 800204c:	6802      	ldr	r2, [r0, #0]
 800204e:	6853      	ldr	r3, [r2, #4]
 8002050:	490a      	ldr	r1, [pc, #40]	@ (800207c <UART_AdvFeatureConfig+0xdc>)
 8002052:	400b      	ands	r3, r1
 8002054:	6c81      	ldr	r1, [r0, #72]	@ 0x48
 8002056:	430b      	orrs	r3, r1
 8002058:	6053      	str	r3, [r2, #4]
 800205a:	e7ec      	b.n	8002036 <UART_AdvFeatureConfig+0x96>
 800205c:	ffff7fff 	.word	0xffff7fff
 8002060:	fffdffff 	.word	0xfffdffff
 8002064:	fffeffff 	.word	0xfffeffff
 8002068:	fffbffff 	.word	0xfffbffff
 800206c:	ffffefff 	.word	0xffffefff
 8002070:	ffffdfff 	.word	0xffffdfff
 8002074:	ffefffff 	.word	0xffefffff
 8002078:	fff7ffff 	.word	0xfff7ffff
 800207c:	ff9fffff 	.word	0xff9fffff

08002080 <UART_WaitOnFlagUntilTimeout>:
 8002080:	b5f8      	push	{r3, r4, r5, r6, r7, lr}
 8002082:	46ce      	mov	lr, r9
 8002084:	4647      	mov	r7, r8
 8002086:	b580      	push	{r7, lr}
 8002088:	0006      	movs	r6, r0
 800208a:	000d      	movs	r5, r1
 800208c:	0017      	movs	r7, r2
 800208e:	4699      	mov	r9, r3
 8002090:	9b08      	ldr	r3, [sp, #32]
 8002092:	4698      	mov	r8, r3
 8002094:	6833      	ldr	r3, [r6, #0]
 8002096:	69dc      	ldr	r4, [r3, #28]
 8002098:	402c      	ands	r4, r5
 800209a:	1b64      	subs	r4, r4, r5
 800209c:	4263      	negs	r3, r4
 800209e:	415c      	adcs	r4, r3
 80020a0:	42bc      	cmp	r4, r7
 80020a2:	d133      	bne.n	800210c <UART_WaitOnFlagUntilTimeout+0x8c>
 80020a4:	4643      	mov	r3, r8
 80020a6:	3301      	adds	r3, #1
 80020a8:	d0f4      	beq.n	8002094 <UART_WaitOnFlagUntilTimeout+0x14>
 80020aa:	f7fe fb3f 	bl	800072c <HAL_GetTick>
 80020ae:	464b      	mov	r3, r9
 80020b0:	1ac0      	subs	r0, r0, r3
 80020b2:	4540      	cmp	r0, r8
 80020b4:	d82f      	bhi.n	8002116 <UART_WaitOnFlagUntilTimeout+0x96>
 80020b6:	4643      	mov	r3, r8
 80020b8:	2b00      	cmp	r3, #0
 80020ba:	d02e      	beq.n	800211a <UART_WaitOnFlagUntilTimeout+0x9a>
 80020bc:	6832      	ldr	r2, [r6, #0]
 80020be:	6813      	ldr	r3, [r2, #0]
 80020c0:	075b      	lsls	r3, r3, #29
 80020c2:	d5e7      	bpl.n	8002094 <UART_WaitOnFlagUntilTimeout+0x14>
 80020c4:	2d80      	cmp	r5, #128	@ 0x80
 80020c6:	d0e5      	beq.n	8002094 <UART_WaitOnFlagUntilTimeout+0x14>
 80020c8:	2d40      	cmp	r5, #64	@ 0x40
 80020ca:	d0e3      	beq.n	8002094 <UART_WaitOnFlagUntilTimeout+0x14>
 80020cc:	69d3      	ldr	r3, [r2, #28]
 80020ce:	071b      	lsls	r3, r3, #28
 80020d0:	d410      	bmi.n	80020f4 <UART_WaitOnFlagUntilTimeout+0x74>
 80020d2:	69d3      	ldr	r3, [r2, #28]
 80020d4:	051b      	lsls	r3, r3, #20
 80020d6:	d5dd      	bpl.n	8002094 <UART_WaitOnFlagUntilTimeout+0x14>
 80020d8:	2380      	movs	r3, #128	@ 0x80
 80020da:	011b      	lsls	r3, r3, #4
 80020dc:	6213      	str	r3, [r2, #32]
 80020de:	0030      	movs	r0, r6
 80020e0:	f7ff fe4a 	bl	8001d78 <UART_EndRxTransfer>
 80020e4:	2390      	movs	r3, #144	@ 0x90
 80020e6:	2220      	movs	r2, #32
 80020e8:	50f2      	str	r2, [r6, r3]
 80020ea:	3b0c      	subs	r3, #12
 80020ec:	2200      	movs	r2, #0
 80020ee:	54f2      	strb	r2, [r6, r3]
 80020f0:	2003      	movs	r0, #3
 80020f2:	e00c      	b.n	800210e <UART_WaitOnFlagUntilTimeout+0x8e>
 80020f4:	2408      	movs	r4, #8
 80020f6:	6214      	str	r4, [r2, #32]
 80020f8:	0030      	movs	r0, r6
 80020fa:	f7ff fe3d 	bl	8001d78 <UART_EndRxTransfer>
 80020fe:	2390      	movs	r3, #144	@ 0x90
 8002100:	50f4      	str	r4, [r6, r3]
 8002102:	3b0c      	subs	r3, #12
 8002104:	2200      	movs	r2, #0
 8002106:	54f2      	strb	r2, [r6, r3]
 8002108:	2001      	movs	r0, #1
 800210a:	e000      	b.n	800210e <UART_WaitOnFlagUntilTimeout+0x8e>
 800210c:	2000      	movs	r0, #0
 800210e:	bcc0      	pop	{r6, r7}
 8002110:	46b9      	mov	r9, r7
 8002112:	46b0      	mov	r8, r6
 8002114:	bdf8      	pop	{r3, r4, r5, r6, r7, pc}
 8002116:	2003      	movs	r0, #3
 8002118:	e7f9      	b.n	800210e <UART_WaitOnFlagUntilTimeout+0x8e>
 800211a:	2003      	movs	r0, #3
 800211c:	e7f7      	b.n	800210e <UART_WaitOnFlagUntilTimeout+0x8e>

0800211e <HAL_UART_Transmit>:
 800211e:	b5f0      	push	{r4, r5, r6, r7, lr}
 8002120:	46c6      	mov	lr, r8
 8002122:	b500      	push	{lr}
 8002124:	b082      	sub	sp, #8
 8002126:	0004      	movs	r4, r0
 8002128:	000d      	movs	r5, r1
 800212a:	4690      	mov	r8, r2
 800212c:	001e      	movs	r6, r3
 800212e:	2388      	movs	r3, #136	@ 0x88
 8002130:	58c3      	ldr	r3, [r0, r3]
 8002132:	2b20      	cmp	r3, #32
 8002134:	d165      	bne.n	8002202 <HAL_UART_Transmit+0xe4>
 8002136:	2900      	cmp	r1, #0
 8002138:	d068      	beq.n	800220c <HAL_UART_Transmit+0xee>
 800213a:	2a00      	cmp	r2, #0
 800213c:	d068      	beq.n	8002210 <HAL_UART_Transmit+0xf2>
 800213e:	6882      	ldr	r2, [r0, #8]
 8002140:	2380      	movs	r3, #128	@ 0x80
 8002142:	015b      	lsls	r3, r3, #5
 8002144:	429a      	cmp	r2, r3
 8002146:	d104      	bne.n	8002152 <HAL_UART_Transmit+0x34>
 8002148:	6903      	ldr	r3, [r0, #16]
 800214a:	2b00      	cmp	r3, #0
 800214c:	d101      	bne.n	8002152 <HAL_UART_Transmit+0x34>
 800214e:	07cb      	lsls	r3, r1, #31
 8002150:	d460      	bmi.n	8002214 <HAL_UART_Transmit+0xf6>
 8002152:	2390      	movs	r3, #144	@ 0x90
 8002154:	2200      	movs	r2, #0
 8002156:	50e2      	str	r2, [r4, r3]
 8002158:	3b08      	subs	r3, #8
 800215a:	3221      	adds	r2, #33	@ 0x21
 800215c:	50e2      	str	r2, [r4, r3]
 800215e:	f7fe fae5 	bl	800072c <HAL_GetTick>
 8002162:	0007      	movs	r7, r0
 8002164:	2354      	movs	r3, #84	@ 0x54
 8002166:	4642      	mov	r2, r8
 8002168:	52e2      	strh	r2, [r4, r3]
 800216a:	3302      	adds	r3, #2
 800216c:	52e2      	strh	r2, [r4, r3]
 800216e:	68a2      	ldr	r2, [r4, #8]
 8002170:	2380      	movs	r3, #128	@ 0x80
 8002172:	015b      	lsls	r3, r3, #5
 8002174:	429a      	cmp	r2, r3
 8002176:	d002      	beq.n	800217e <HAL_UART_Transmit+0x60>
 8002178:	2300      	movs	r3, #0
 800217a:	4698      	mov	r8, r3
 800217c:	e018      	b.n	80021b0 <HAL_UART_Transmit+0x92>
 800217e:	6923      	ldr	r3, [r4, #16]
 8002180:	2b00      	cmp	r3, #0
 8002182:	d029      	beq.n	80021d8 <HAL_UART_Transmit+0xba>
 8002184:	2300      	movs	r3, #0
 8002186:	4698      	mov	r8, r3
 8002188:	e012      	b.n	80021b0 <HAL_UART_Transmit+0x92>
 800218a:	2388      	movs	r3, #136	@ 0x88
 800218c:	2220      	movs	r2, #32
 800218e:	50e2      	str	r2, [r4, r3]
 8002190:	2003      	movs	r0, #3
 8002192:	e037      	b.n	8002204 <HAL_UART_Transmit+0xe6>
 8002194:	4643      	mov	r3, r8
 8002196:	881b      	ldrh	r3, [r3, #0]
 8002198:	6822      	ldr	r2, [r4, #0]
 800219a:	05db      	lsls	r3, r3, #23
 800219c:	0ddb      	lsrs	r3, r3, #23
 800219e:	6293      	str	r3, [r2, #40]	@ 0x28
 80021a0:	2302      	movs	r3, #2
 80021a2:	469c      	mov	ip, r3
 80021a4:	44e0      	add	r8, ip
 80021a6:	2356      	movs	r3, #86	@ 0x56
 80021a8:	5ae2      	ldrh	r2, [r4, r3]
 80021aa:	3a01      	subs	r2, #1
 80021ac:	b292      	uxth	r2, r2
 80021ae:	52e2      	strh	r2, [r4, r3]
 80021b0:	2356      	movs	r3, #86	@ 0x56
 80021b2:	5ae3      	ldrh	r3, [r4, r3]
 80021b4:	2b00      	cmp	r3, #0
 80021b6:	d012      	beq.n	80021de <HAL_UART_Transmit+0xc0>
 80021b8:	9600      	str	r6, [sp, #0]
 80021ba:	003b      	movs	r3, r7
 80021bc:	2200      	movs	r2, #0
 80021be:	2180      	movs	r1, #128	@ 0x80
 80021c0:	0020      	movs	r0, r4
 80021c2:	f7ff ff5d 	bl	8002080 <UART_WaitOnFlagUntilTimeout>
 80021c6:	2800      	cmp	r0, #0
 80021c8:	d1df      	bne.n	800218a <HAL_UART_Transmit+0x6c>
 80021ca:	2d00      	cmp	r5, #0
 80021cc:	d0e2      	beq.n	8002194 <HAL_UART_Transmit+0x76>
 80021ce:	782a      	ldrb	r2, [r5, #0]
 80021d0:	6823      	ldr	r3, [r4, #0]
 80021d2:	629a      	str	r2, [r3, #40]	@ 0x28
 80021d4:	3501      	adds	r5, #1
 80021d6:	e7e6      	b.n	80021a6 <HAL_UART_Transmit+0x88>
 80021d8:	46a8      	mov	r8, r5
 80021da:	2500      	movs	r5, #0
 80021dc:	e7e8      	b.n	80021b0 <HAL_UART_Transmit+0x92>
 80021de:	9600      	str	r6, [sp, #0]
 80021e0:	003b      	movs	r3, r7
 80021e2:	2200      	movs	r2, #0
 80021e4:	2140      	movs	r1, #64	@ 0x40
 80021e6:	0020      	movs	r0, r4
 80021e8:	f7ff ff4a 	bl	8002080 <UART_WaitOnFlagUntilTimeout>
 80021ec:	2800      	cmp	r0, #0
 80021ee:	d103      	bne.n	80021f8 <HAL_UART_Transmit+0xda>
 80021f0:	2388      	movs	r3, #136	@ 0x88
 80021f2:	2220      	movs	r2, #32
 80021f4:	50e2      	str	r2, [r4, r3]
 80021f6:	e005      	b.n	8002204 <HAL_UART_Transmit+0xe6>
 80021f8:	2388      	movs	r3, #136	@ 0x88
 80021fa:	2220      	movs	r2, #32
 80021fc:	50e2      	str	r2, [r4, r3]
 80021fe:	2003      	movs	r0, #3
 8002200:	e000      	b.n	8002204 <HAL_UART_Transmit+0xe6>
 8002202:	2002      	movs	r0, #2
 8002204:	b002      	add	sp, #8
 8002206:	bc80      	pop	{r7}
 8002208:	46b8      	mov	r8, r7
 800220a:	bdf0      	pop	{r4, r5, r6, r7, pc}
 800220c:	2001      	movs	r0, #1
 800220e:	e7f9      	b.n	8002204 <HAL_UART_Transmit+0xe6>
 8002210:	2001      	movs	r0, #1
 8002212:	e7f7      	b.n	8002204 <HAL_UART_Transmit+0xe6>
 8002214:	2001      	movs	r0, #1
 8002216:	e7f5      	b.n	8002204 <HAL_UART_Transmit+0xe6>

08002218 <UART_CheckIdleState>:
 8002218:	b530      	push	{r4, r5, lr}
 800221a:	b083      	sub	sp, #12
 800221c:	0004      	movs	r4, r0
 800221e:	2390      	movs	r3, #144	@ 0x90
 8002220:	2200      	movs	r2, #0
 8002222:	50c2      	str	r2, [r0, r3]
 8002224:	f7fe fa82 	bl	800072c <HAL_GetTick>
 8002228:	0005      	movs	r5, r0
 800222a:	6823      	ldr	r3, [r4, #0]
 800222c:	681b      	ldr	r3, [r3, #0]
 800222e:	071b      	lsls	r3, r3, #28
 8002230:	d410      	bmi.n	8002254 <UART_CheckIdleState+0x3c>
 8002232:	6823      	ldr	r3, [r4, #0]
 8002234:	681b      	ldr	r3, [r3, #0]
 8002236:	075b      	lsls	r3, r3, #29
 8002238:	d42b      	bmi.n	8002292 <UART_CheckIdleState+0x7a>
 800223a:	2320      	movs	r3, #32
 800223c:	2288      	movs	r2, #136	@ 0x88
 800223e:	50a3      	str	r3, [r4, r2]
 8002240:	3204      	adds	r2, #4
 8002242:	50a3      	str	r3, [r4, r2]
 8002244:	2300      	movs	r3, #0
 8002246:	66e3      	str	r3, [r4, #108]	@ 0x6c
 8002248:	6723      	str	r3, [r4, #112]	@ 0x70
 800224a:	3a08      	subs	r2, #8
 800224c:	54a3      	strb	r3, [r4, r2]
 800224e:	2000      	movs	r0, #0
 8002250:	b003      	add	sp, #12
 8002252:	bd30      	pop	{r4, r5, pc}
 8002254:	2180      	movs	r1, #128	@ 0x80
 8002256:	4b23      	ldr	r3, [pc, #140]	@ (80022e4 <UART_CheckIdleState+0xcc>)
 8002258:	9300      	str	r3, [sp, #0]
 800225a:	0003      	movs	r3, r0
 800225c:	2200      	movs	r2, #0
 800225e:	0389      	lsls	r1, r1, #14
 8002260:	0020      	movs	r0, r4
 8002262:	f7ff ff0d 	bl	8002080 <UART_WaitOnFlagUntilTimeout>
 8002266:	2800      	cmp	r0, #0
 8002268:	d0e3      	beq.n	8002232 <UART_CheckIdleState+0x1a>
 800226a:	f3ef 8110 	mrs	r1, PRIMASK
 800226e:	2301      	movs	r3, #1
 8002270:	f383 8810 	msr	PRIMASK, r3
 8002274:	6822      	ldr	r2, [r4, #0]
 8002276:	6813      	ldr	r3, [r2, #0]
 8002278:	2080      	movs	r0, #128	@ 0x80
 800227a:	4383      	bics	r3, r0
 800227c:	6013      	str	r3, [r2, #0]
 800227e:	f381 8810 	msr	PRIMASK, r1
 8002282:	2388      	movs	r3, #136	@ 0x88
 8002284:	2220      	movs	r2, #32
 8002286:	50e2      	str	r2, [r4, r3]
 8002288:	3b04      	subs	r3, #4
 800228a:	2200      	movs	r2, #0
 800228c:	54e2      	strb	r2, [r4, r3]
 800228e:	387d      	subs	r0, #125	@ 0x7d
 8002290:	e7de      	b.n	8002250 <UART_CheckIdleState+0x38>
 8002292:	2180      	movs	r1, #128	@ 0x80
 8002294:	4b13      	ldr	r3, [pc, #76]	@ (80022e4 <UART_CheckIdleState+0xcc>)
 8002296:	9300      	str	r3, [sp, #0]
 8002298:	002b      	movs	r3, r5
 800229a:	2200      	movs	r2, #0
 800229c:	03c9      	lsls	r1, r1, #15
 800229e:	0020      	movs	r0, r4
 80022a0:	f7ff feee 	bl	8002080 <UART_WaitOnFlagUntilTimeout>
 80022a4:	2800      	cmp	r0, #0
 80022a6:	d0c8      	beq.n	800223a <UART_CheckIdleState+0x22>
 80022a8:	f3ef 8010 	mrs	r0, PRIMASK
 80022ac:	2201      	movs	r2, #1
 80022ae:	f382 8810 	msr	PRIMASK, r2
 80022b2:	6821      	ldr	r1, [r4, #0]
 80022b4:	680b      	ldr	r3, [r1, #0]
 80022b6:	4d0c      	ldr	r5, [pc, #48]	@ (80022e8 <UART_CheckIdleState+0xd0>)
 80022b8:	402b      	ands	r3, r5
 80022ba:	600b      	str	r3, [r1, #0]
 80022bc:	f380 8810 	msr	PRIMASK, r0
 80022c0:	f3ef 8010 	mrs	r0, PRIMASK
 80022c4:	f382 8810 	msr	PRIMASK, r2
 80022c8:	6821      	ldr	r1, [r4, #0]
 80022ca:	688b      	ldr	r3, [r1, #8]
 80022cc:	4393      	bics	r3, r2
 80022ce:	608b      	str	r3, [r1, #8]
 80022d0:	f380 8810 	msr	PRIMASK, r0
 80022d4:	238c      	movs	r3, #140	@ 0x8c
 80022d6:	321f      	adds	r2, #31
 80022d8:	50e2      	str	r2, [r4, r3]
 80022da:	3b08      	subs	r3, #8
 80022dc:	2200      	movs	r2, #0
 80022de:	54e2      	strb	r2, [r4, r3]
 80022e0:	2003      	movs	r0, #3
 80022e2:	e7b5      	b.n	8002250 <UART_CheckIdleState+0x38>
 80022e4:	01ffffff 	.word	0x01ffffff
 80022e8:	fffffedf 	.word	0xfffffedf

080022ec <HAL_UART_Init>:
 80022ec:	b510      	push	{r4, lr}
 80022ee:	1e04      	subs	r4, r0, #0
 80022f0:	d030      	beq.n	8002354 <HAL_UART_Init+0x68>
 80022f2:	2388      	movs	r3, #136	@ 0x88
 80022f4:	58c3      	ldr	r3, [r0, r3]
 80022f6:	2b00      	cmp	r3, #0
 80022f8:	d022      	beq.n	8002340 <HAL_UART_Init+0x54>
 80022fa:	2388      	movs	r3, #136	@ 0x88
 80022fc:	2224      	movs	r2, #36	@ 0x24
 80022fe:	50e2      	str	r2, [r4, r3]
 8002300:	6822      	ldr	r2, [r4, #0]
 8002302:	6813      	ldr	r3, [r2, #0]
 8002304:	2101      	movs	r1, #1
 8002306:	438b      	bics	r3, r1
 8002308:	6013      	str	r3, [r2, #0]
 800230a:	6aa3      	ldr	r3, [r4, #40]	@ 0x28
 800230c:	2b00      	cmp	r3, #0
 800230e:	d11d      	bne.n	800234c <HAL_UART_Init+0x60>
 8002310:	0020      	movs	r0, r4
 8002312:	f7ff fd63 	bl	8001ddc <UART_SetConfig>
 8002316:	2801      	cmp	r0, #1
 8002318:	d011      	beq.n	800233e <HAL_UART_Init+0x52>
 800231a:	6822      	ldr	r2, [r4, #0]
 800231c:	6853      	ldr	r3, [r2, #4]
 800231e:	490e      	ldr	r1, [pc, #56]	@ (8002358 <HAL_UART_Init+0x6c>)
 8002320:	400b      	ands	r3, r1
 8002322:	6053      	str	r3, [r2, #4]
 8002324:	6822      	ldr	r2, [r4, #0]
 8002326:	6893      	ldr	r3, [r2, #8]
 8002328:	212a      	movs	r1, #42	@ 0x2a
 800232a:	438b      	bics	r3, r1
 800232c:	6093      	str	r3, [r2, #8]
 800232e:	6822      	ldr	r2, [r4, #0]
 8002330:	6813      	ldr	r3, [r2, #0]
 8002332:	3929      	subs	r1, #41	@ 0x29
 8002334:	430b      	orrs	r3, r1
 8002336:	6013      	str	r3, [r2, #0]
 8002338:	0020      	movs	r0, r4
 800233a:	f7ff ff6d 	bl	8002218 <UART_CheckIdleState>
 800233e:	bd10      	pop	{r4, pc}
 8002340:	3384      	adds	r3, #132	@ 0x84
 8002342:	2200      	movs	r2, #0
 8002344:	54c2      	strb	r2, [r0, r3]
 8002346:	f7ff f9d3 	bl	80016f0 <HAL_UART_MspInit>
 800234a:	e7d6      	b.n	80022fa <HAL_UART_Init+0xe>
 800234c:	0020      	movs	r0, r4
 800234e:	f7ff fe27 	bl	8001fa0 <UART_AdvFeatureConfig>
 8002352:	e7dd      	b.n	8002310 <HAL_UART_Init+0x24>
 8002354:	2001      	movs	r0, #1
 8002356:	e7f2      	b.n	800233e <HAL_UART_Init+0x52>
 8002358:	ffffb7ff 	.word	0xffffb7ff

0800235c <NMI_Handler>:
 800235c:	e7fe      	b.n	800235c <NMI_Handler>

0800235e <HardFault_Handler>:
 800235e:	e7fe      	b.n	800235e <HardFault_Handler>

08002360 <SVC_Handler>:
 8002360:	4770      	bx	lr

08002362 <PendSV_Handler>:
 8002362:	4770      	bx	lr

08002364 <SysTick_Handler>:
 8002364:	b510      	push	{r4, lr}
 8002366:	f7fe f9d5 	bl	8000714 <HAL_IncTick>
 800236a:	bd10      	pop	{r4, pc}

0800236c <EXTI4_15_IRQHandler>:
 800236c:	b510      	push	{r4, lr}
 800236e:	2000      	movs	r0, #0
 8002370:	f000 f894 	bl	800249c <BSP_PB_IRQHandler>
 8002374:	bd10      	pop	{r4, pc}
	...

08002378 <DMA1_Channel1_IRQHandler>:
 8002378:	b510      	push	{r4, lr}
 800237a:	4802      	ldr	r0, [pc, #8]	@ (8002384 <DMA1_Channel1_IRQHandler+0xc>)
 800237c:	f7fe ffb2 	bl	80012e4 <HAL_DMA_IRQHandler>
 8002380:	bd10      	pop	{r4, pc}
 8002382:	46c0      	nop			@ (mov r8, r8)
 8002384:	2000018c 	.word	0x2000018c

08002388 <BSP_LED_Init>:
 8002388:	b570      	push	{r4, r5, r6, lr}
 800238a:	b088      	sub	sp, #32
 800238c:	0004      	movs	r4, r0
 800238e:	2801      	cmp	r0, #1
 8002390:	d832      	bhi.n	80023f8 <BSP_LED_Init+0x70>
 8002392:	2800      	cmp	r0, #0
 8002394:	d11d      	bne.n	80023d2 <BSP_LED_Init+0x4a>
 8002396:	4a1a      	ldr	r2, [pc, #104]	@ (8002400 <BSP_LED_Init+0x78>)
 8002398:	6b51      	ldr	r1, [r2, #52]	@ 0x34
 800239a:	2301      	movs	r3, #1
 800239c:	4319      	orrs	r1, r3
 800239e:	6351      	str	r1, [r2, #52]	@ 0x34
 80023a0:	6b52      	ldr	r2, [r2, #52]	@ 0x34
 80023a2:	4013      	ands	r3, r2
 80023a4:	9301      	str	r3, [sp, #4]
 80023a6:	9b01      	ldr	r3, [sp, #4]
 80023a8:	4b16      	ldr	r3, [pc, #88]	@ (8002404 <BSP_LED_Init+0x7c>)
 80023aa:	0062      	lsls	r2, r4, #1
 80023ac:	5ad6      	ldrh	r6, [r2, r3]
 80023ae:	a903      	add	r1, sp, #12
 80023b0:	9603      	str	r6, [sp, #12]
 80023b2:	2301      	movs	r3, #1
 80023b4:	604b      	str	r3, [r1, #4]
 80023b6:	2300      	movs	r3, #0
 80023b8:	608b      	str	r3, [r1, #8]
 80023ba:	3303      	adds	r3, #3
 80023bc:	60cb      	str	r3, [r1, #12]
 80023be:	4b12      	ldr	r3, [pc, #72]	@ (8002408 <BSP_LED_Init+0x80>)
 80023c0:	00a2      	lsls	r2, r4, #2
 80023c2:	58d0      	ldr	r0, [r2, r3]
 80023c4:	f7ff f832 	bl	800142c <HAL_GPIO_Init>
 80023c8:	2c01      	cmp	r4, #1
 80023ca:	d00c      	beq.n	80023e6 <BSP_LED_Init+0x5e>
 80023cc:	2000      	movs	r0, #0
 80023ce:	b008      	add	sp, #32
 80023d0:	bd70      	pop	{r4, r5, r6, pc}
 80023d2:	4a0b      	ldr	r2, [pc, #44]	@ (8002400 <BSP_LED_Init+0x78>)
 80023d4:	6b51      	ldr	r1, [r2, #52]	@ 0x34
 80023d6:	2304      	movs	r3, #4
 80023d8:	4319      	orrs	r1, r3
 80023da:	6351      	str	r1, [r2, #52]	@ 0x34
 80023dc:	6b52      	ldr	r2, [r2, #52]	@ 0x34
 80023de:	4013      	ands	r3, r2
 80023e0:	9302      	str	r3, [sp, #8]
 80023e2:	9b02      	ldr	r3, [sp, #8]
 80023e4:	e7e0      	b.n	80023a8 <BSP_LED_Init+0x20>
 80023e6:	4b08      	ldr	r3, [pc, #32]	@ (8002408 <BSP_LED_Init+0x80>)
 80023e8:	00a4      	lsls	r4, r4, #2
 80023ea:	58e0      	ldr	r0, [r4, r3]
 80023ec:	2201      	movs	r2, #1
 80023ee:	0031      	movs	r1, r6
 80023f0:	f7ff f901 	bl	80015f6 <HAL_GPIO_WritePin>
 80023f4:	2000      	movs	r0, #0
 80023f6:	e7ea      	b.n	80023ce <BSP_LED_Init+0x46>
 80023f8:	2002      	movs	r0, #2
 80023fa:	4240      	negs	r0, r0
 80023fc:	e7e7      	b.n	80023ce <BSP_LED_Init+0x46>
 80023fe:	46c0      	nop			@ (mov r8, r8)
 8002400:	40021000 	.word	0x40021000
 8002404:	08002f1c 	.word	0x08002f1c
 8002408:	08002f20 	.word	0x08002f20

0800240c <BSP_PB_Init>:
 800240c:	b530      	push	{r4, r5, lr}
 800240e:	b087      	sub	sp, #28
 8002410:	0005      	movs	r5, r0
 8002412:	4a1c      	ldr	r2, [pc, #112]	@ (8002484 <BSP_PB_Init+0x78>)
 8002414:	6b50      	ldr	r0, [r2, #52]	@ 0x34
 8002416:	2304      	movs	r3, #4
 8002418:	4318      	orrs	r0, r3
 800241a:	6350      	str	r0, [r2, #52]	@ 0x34
 800241c:	6b52      	ldr	r2, [r2, #52]	@ 0x34
 800241e:	4013      	ands	r3, r2
 8002420:	9300      	str	r3, [sp, #0]
 8002422:	9b00      	ldr	r3, [sp, #0]
 8002424:	ab01      	add	r3, sp, #4
 8002426:	2280      	movs	r2, #128	@ 0x80
 8002428:	0192      	lsls	r2, r2, #6
 800242a:	9201      	str	r2, [sp, #4]
 800242c:	2201      	movs	r2, #1
 800242e:	9203      	str	r2, [sp, #12]
 8002430:	3201      	adds	r2, #1
 8002432:	9204      	str	r2, [sp, #16]
 8002434:	2900      	cmp	r1, #0
 8002436:	d108      	bne.n	800244a <BSP_PB_Init+0x3e>
 8002438:	0019      	movs	r1, r3
 800243a:	2300      	movs	r3, #0
 800243c:	604b      	str	r3, [r1, #4]
 800243e:	4812      	ldr	r0, [pc, #72]	@ (8002488 <BSP_PB_Init+0x7c>)
 8002440:	f7fe fff4 	bl	800142c <HAL_GPIO_Init>
 8002444:	2000      	movs	r0, #0
 8002446:	b007      	add	sp, #28
 8002448:	bd30      	pop	{r4, r5, pc}
 800244a:	a901      	add	r1, sp, #4
 800244c:	4b0f      	ldr	r3, [pc, #60]	@ (800248c <BSP_PB_Init+0x80>)
 800244e:	604b      	str	r3, [r1, #4]
 8002450:	480d      	ldr	r0, [pc, #52]	@ (8002488 <BSP_PB_Init+0x7c>)
 8002452:	f7fe ffeb 	bl	800142c <HAL_GPIO_Init>
 8002456:	006c      	lsls	r4, r5, #1
 8002458:	1964      	adds	r4, r4, r5
 800245a:	00a4      	lsls	r4, r4, #2
 800245c:	4b0c      	ldr	r3, [pc, #48]	@ (8002490 <BSP_PB_Init+0x84>)
 800245e:	18e4      	adds	r4, r4, r3
 8002460:	490c      	ldr	r1, [pc, #48]	@ (8002494 <BSP_PB_Init+0x88>)
 8002462:	0020      	movs	r0, r4
 8002464:	f7fe ffb6 	bl	80013d4 <HAL_EXTI_GetHandle>
 8002468:	4a0b      	ldr	r2, [pc, #44]	@ (8002498 <BSP_PB_Init+0x8c>)
 800246a:	2100      	movs	r1, #0
 800246c:	0020      	movs	r0, r4
 800246e:	f7fe ff9f 	bl	80013b0 <HAL_EXTI_RegisterCallback>
 8002472:	2200      	movs	r2, #0
 8002474:	210f      	movs	r1, #15
 8002476:	2007      	movs	r0, #7
 8002478:	f7fe fe24 	bl	80010c4 <HAL_NVIC_SetPriority>
 800247c:	2007      	movs	r0, #7
 800247e:	f7fe fe25 	bl	80010cc <HAL_NVIC_EnableIRQ>
 8002482:	e7df      	b.n	8002444 <BSP_PB_Init+0x38>
 8002484:	40021000 	.word	0x40021000
 8002488:	50000800 	.word	0x50000800
 800248c:	10210000 	.word	0x10210000
 8002490:	20000250 	.word	0x20000250
 8002494:	0600000d 	.word	0x0600000d
 8002498:	080024b7 	.word	0x080024b7

0800249c <BSP_PB_IRQHandler>:
 800249c:	b510      	push	{r4, lr}
 800249e:	0043      	lsls	r3, r0, #1
 80024a0:	1818      	adds	r0, r3, r0
 80024a2:	0080      	lsls	r0, r0, #2
 80024a4:	4b02      	ldr	r3, [pc, #8]	@ (80024b0 <BSP_PB_IRQHandler+0x14>)
 80024a6:	18c0      	adds	r0, r0, r3
 80024a8:	f7fe ff9c 	bl	80013e4 <HAL_EXTI_IRQHandler>
 80024ac:	bd10      	pop	{r4, pc}
 80024ae:	46c0      	nop			@ (mov r8, r8)
 80024b0:	20000250 	.word	0x20000250

080024b4 <BSP_PB_Callback>:
 80024b4:	4770      	bx	lr

080024b6 <BUTTON_USER_EXTI_Callback>:
 80024b6:	b510      	push	{r4, lr}
 80024b8:	2000      	movs	r0, #0
 80024ba:	f7ff fffb 	bl	80024b4 <BSP_PB_Callback>
 80024be:	bd10      	pop	{r4, pc}

080024c0 <_sbrk>:
 80024c0:	b510      	push	{r4, lr}
 80024c2:	0003      	movs	r3, r0
 80024c4:	4a0c      	ldr	r2, [pc, #48]	@ (80024f8 <_sbrk+0x38>)
 80024c6:	490d      	ldr	r1, [pc, #52]	@ (80024fc <_sbrk+0x3c>)
 80024c8:	1a52      	subs	r2, r2, r1
 80024ca:	490d      	ldr	r1, [pc, #52]	@ (8002500 <_sbrk+0x40>)
 80024cc:	6809      	ldr	r1, [r1, #0]
 80024ce:	2900      	cmp	r1, #0
 80024d0:	d007      	beq.n	80024e2 <_sbrk+0x22>
 80024d2:	490b      	ldr	r1, [pc, #44]	@ (8002500 <_sbrk+0x40>)
 80024d4:	6808      	ldr	r0, [r1, #0]
 80024d6:	18c3      	adds	r3, r0, r3
 80024d8:	4293      	cmp	r3, r2
 80024da:	d806      	bhi.n	80024ea <_sbrk+0x2a>
 80024dc:	4a08      	ldr	r2, [pc, #32]	@ (8002500 <_sbrk+0x40>)
 80024de:	6013      	str	r3, [r2, #0]
 80024e0:	bd10      	pop	{r4, pc}
 80024e2:	4907      	ldr	r1, [pc, #28]	@ (8002500 <_sbrk+0x40>)
 80024e4:	4807      	ldr	r0, [pc, #28]	@ (8002504 <_sbrk+0x44>)
 80024e6:	6008      	str	r0, [r1, #0]
 80024e8:	e7f3      	b.n	80024d2 <_sbrk+0x12>
 80024ea:	f000 f87b 	bl	80025e4 <__errno>
 80024ee:	230c      	movs	r3, #12
 80024f0:	6003      	str	r3, [r0, #0]
 80024f2:	2001      	movs	r0, #1
 80024f4:	4240      	negs	r0, r0
 80024f6:	e7f3      	b.n	80024e0 <_sbrk+0x20>
 80024f8:	20003000 	.word	0x20003000
 80024fc:	00000400 	.word	0x00000400
 8002500:	2000025c 	.word	0x2000025c
 8002504:	200003a8 	.word	0x200003a8

08002508 <SystemInit>:
 8002508:	4b02      	ldr	r3, [pc, #8]	@ (8002514 <SystemInit+0xc>)
 800250a:	2280      	movs	r2, #128	@ 0x80
 800250c:	0512      	lsls	r2, r2, #20
 800250e:	609a      	str	r2, [r3, #8]
 8002510:	4770      	bx	lr
 8002512:	46c0      	nop			@ (mov r8, r8)
 8002514:	e000ed00 	.word	0xe000ed00

08002518 <Reset_Handler>:
 8002518:	480d      	ldr	r0, [pc, #52]	@ (8002550 <LoopForever+0x2>)
 800251a:	4685      	mov	sp, r0
 800251c:	f7ff fff4 	bl	8002508 <SystemInit>
 8002520:	2100      	movs	r1, #0
 8002522:	e003      	b.n	800252c <LoopCopyDataInit>

08002524 <CopyDataInit>:
 8002524:	4b0b      	ldr	r3, [pc, #44]	@ (8002554 <LoopForever+0x6>)
 8002526:	585b      	ldr	r3, [r3, r1]
 8002528:	5043      	str	r3, [r0, r1]
 800252a:	3104      	adds	r1, #4

0800252c <LoopCopyDataInit>:
 800252c:	480a      	ldr	r0, [pc, #40]	@ (8002558 <LoopForever+0xa>)
 800252e:	4b0b      	ldr	r3, [pc, #44]	@ (800255c <LoopForever+0xe>)
 8002530:	1842      	adds	r2, r0, r1
 8002532:	429a      	cmp	r2, r3
 8002534:	d3f6      	bcc.n	8002524 <CopyDataInit>
 8002536:	4a0a      	ldr	r2, [pc, #40]	@ (8002560 <LoopForever+0x12>)
 8002538:	e002      	b.n	8002540 <LoopFillZerobss>

0800253a <FillZerobss>:
 800253a:	2300      	movs	r3, #0
 800253c:	6013      	str	r3, [r2, #0]
 800253e:	3204      	adds	r2, #4

08002540 <LoopFillZerobss>:
 8002540:	4b08      	ldr	r3, [pc, #32]	@ (8002564 <LoopForever+0x16>)
 8002542:	429a      	cmp	r2, r3
 8002544:	d3f9      	bcc.n	800253a <FillZerobss>
 8002546:	f000 f853 	bl	80025f0 <__libc_init_array>
 800254a:	f7fe f889 	bl	8000660 <main>

0800254e <LoopForever>:
 800254e:	e7fe      	b.n	800254e <LoopForever>
 8002550:	20003000 	.word	0x20003000
 8002554:	08002fc4 	.word	0x08002fc4
 8002558:	20000000 	.word	0x20000000
 800255c:	2000005c 	.word	0x2000005c
 8002560:	2000005c 	.word	0x2000005c
 8002564:	200003a8 	.word	0x200003a8

08002568 <ADC1_IRQHandler>:
 8002568:	e7fe      	b.n	8002568 <ADC1_IRQHandler>
	...

0800256c <sniprintf>:
 800256c:	b40c      	push	{r2, r3}
 800256e:	b530      	push	{r4, r5, lr}
 8002570:	4b17      	ldr	r3, [pc, #92]	@ (80025d0 <sniprintf+0x64>)
 8002572:	000c      	movs	r4, r1
 8002574:	681d      	ldr	r5, [r3, #0]
 8002576:	b09d      	sub	sp, #116	@ 0x74
 8002578:	2900      	cmp	r1, #0
 800257a:	da08      	bge.n	800258e <sniprintf+0x22>
 800257c:	238b      	movs	r3, #139	@ 0x8b
 800257e:	2001      	movs	r0, #1
 8002580:	602b      	str	r3, [r5, #0]
 8002582:	4240      	negs	r0, r0
 8002584:	b01d      	add	sp, #116	@ 0x74
 8002586:	bc30      	pop	{r4, r5}
 8002588:	bc08      	pop	{r3}
 800258a:	b002      	add	sp, #8
 800258c:	4718      	bx	r3
 800258e:	2382      	movs	r3, #130	@ 0x82
 8002590:	a902      	add	r1, sp, #8
 8002592:	009b      	lsls	r3, r3, #2
 8002594:	818b      	strh	r3, [r1, #12]
 8002596:	2300      	movs	r3, #0
 8002598:	9002      	str	r0, [sp, #8]
 800259a:	664b      	str	r3, [r1, #100]	@ 0x64
 800259c:	6108      	str	r0, [r1, #16]
 800259e:	429c      	cmp	r4, r3
 80025a0:	d000      	beq.n	80025a4 <sniprintf+0x38>
 80025a2:	1e63      	subs	r3, r4, #1
 80025a4:	608b      	str	r3, [r1, #8]
 80025a6:	614b      	str	r3, [r1, #20]
 80025a8:	2301      	movs	r3, #1
 80025aa:	425b      	negs	r3, r3
 80025ac:	81cb      	strh	r3, [r1, #14]
 80025ae:	0028      	movs	r0, r5
 80025b0:	ab21      	add	r3, sp, #132	@ 0x84
 80025b2:	9a20      	ldr	r2, [sp, #128]	@ 0x80
 80025b4:	9301      	str	r3, [sp, #4]
 80025b6:	f000 f8a5 	bl	8002704 <_svfiprintf_r>
 80025ba:	1c43      	adds	r3, r0, #1
 80025bc:	da01      	bge.n	80025c2 <sniprintf+0x56>
 80025be:	238b      	movs	r3, #139	@ 0x8b
 80025c0:	602b      	str	r3, [r5, #0]
 80025c2:	2c00      	cmp	r4, #0
 80025c4:	d0de      	beq.n	8002584 <sniprintf+0x18>
 80025c6:	2200      	movs	r2, #0
 80025c8:	9b02      	ldr	r3, [sp, #8]
 80025ca:	701a      	strb	r2, [r3, #0]
 80025cc:	e7da      	b.n	8002584 <sniprintf+0x18>
 80025ce:	46c0      	nop			@ (mov r8, r8)
 80025d0:	2000000c 	.word	0x2000000c

080025d4 <memset>:
 80025d4:	0003      	movs	r3, r0
 80025d6:	1882      	adds	r2, r0, r2
 80025d8:	4293      	cmp	r3, r2
 80025da:	d100      	bne.n	80025de <memset+0xa>
 80025dc:	4770      	bx	lr
 80025de:	7019      	strb	r1, [r3, #0]
 80025e0:	3301      	adds	r3, #1
 80025e2:	e7f9      	b.n	80025d8 <memset+0x4>

080025e4 <__errno>:
 80025e4:	4b01      	ldr	r3, [pc, #4]	@ (80025ec <__errno+0x8>)
 80025e6:	6818      	ldr	r0, [r3, #0]
 80025e8:	4770      	bx	lr
 80025ea:	46c0      	nop			@ (mov r8, r8)
 80025ec:	2000000c 	.word	0x2000000c

080025f0 <__libc_init_array>:
 80025f0:	b570      	push	{r4, r5, r6, lr}
 80025f2:	2600      	movs	r6, #0
 80025f4:	4c0c      	ldr	r4, [pc, #48]	@ (8002628 <__libc_init_array+0x38>)
 80025f6:	4d0d      	ldr	r5, [pc, #52]	@ (800262c <__libc_init_array+0x3c>)
 80025f8:	1b64      	subs	r4, r4, r5
 80025fa:	10a4      	asrs	r4, r4, #2
 80025fc:	42a6      	cmp	r6, r4
 80025fe:	d109      	bne.n	8002614 <__libc_init_array+0x24>
 8002600:	2600      	movs	r6, #0
 8002602:	f000 fc6b 	bl	8002edc <_init>
 8002606:	4c0a      	ldr	r4, [pc, #40]	@ (8002630 <__libc_init_array+0x40>)
 8002608:	4d0a      	ldr	r5, [pc, #40]	@ (8002634 <__libc_init_array+0x44>)
 800260a:	1b64      	subs	r4, r4, r5
 800260c:	10a4      	asrs	r4, r4, #2
 800260e:	42a6      	cmp	r6, r4
 8002610:	d105      	bne.n	800261e <__libc_init_array+0x2e>
 8002612:	bd70      	pop	{r4, r5, r6, pc}
 8002614:	00b3      	lsls	r3, r6, #2
 8002616:	58eb      	ldr	r3, [r5, r3]
 8002618:	4798      	blx	r3
 800261a:	3601      	adds	r6, #1
 800261c:	e7ee      	b.n	80025fc <__libc_init_array+0xc>
 800261e:	00b3      	lsls	r3, r6, #2
 8002620:	58eb      	ldr	r3, [r5, r3]
 8002622:	4798      	blx	r3
 8002624:	3601      	adds	r6, #1
 8002626:	e7f2      	b.n	800260e <__libc_init_array+0x1e>
 8002628:	08002fbc 	.word	0x08002fbc
 800262c:	08002fbc 	.word	0x08002fbc
 8002630:	08002fc0 	.word	0x08002fc0
 8002634:	08002fbc 	.word	0x08002fbc

08002638 <__retarget_lock_acquire_recursive>:
 8002638:	4770      	bx	lr

0800263a <__retarget_lock_release_recursive>:
 800263a:	4770      	bx	lr

0800263c <__ssputs_r>:
 800263c:	b5f0      	push	{r4, r5, r6, r7, lr}
 800263e:	688e      	ldr	r6, [r1, #8]
 8002640:	b085      	sub	sp, #20
 8002642:	001f      	movs	r7, r3
 8002644:	000c      	movs	r4, r1
 8002646:	0033      	movs	r3, r6
 8002648:	9002      	str	r0, [sp, #8]
 800264a:	9203      	str	r2, [sp, #12]
 800264c:	42be      	cmp	r6, r7
 800264e:	d854      	bhi.n	80026fa <__ssputs_r+0xbe>
 8002650:	220c      	movs	r2, #12
 8002652:	5e88      	ldrsh	r0, [r1, r2]
 8002654:	2290      	movs	r2, #144	@ 0x90
 8002656:	00d2      	lsls	r2, r2, #3
 8002658:	4210      	tst	r0, r2
 800265a:	d02c      	beq.n	80026b6 <__ssputs_r+0x7a>
 800265c:	2203      	movs	r2, #3
 800265e:	6909      	ldr	r1, [r1, #16]
 8002660:	6823      	ldr	r3, [r4, #0]
 8002662:	1a5b      	subs	r3, r3, r1
 8002664:	9301      	str	r3, [sp, #4]
 8002666:	6963      	ldr	r3, [r4, #20]
 8002668:	4353      	muls	r3, r2
 800266a:	9a01      	ldr	r2, [sp, #4]
 800266c:	0fdd      	lsrs	r5, r3, #31
 800266e:	18ed      	adds	r5, r5, r3
 8002670:	1c7b      	adds	r3, r7, #1
 8002672:	106d      	asrs	r5, r5, #1
 8002674:	189b      	adds	r3, r3, r2
 8002676:	002a      	movs	r2, r5
 8002678:	42ab      	cmp	r3, r5
 800267a:	d901      	bls.n	8002680 <__ssputs_r+0x44>
 800267c:	001d      	movs	r5, r3
 800267e:	001a      	movs	r2, r3
 8002680:	0540      	lsls	r0, r0, #21
 8002682:	d527      	bpl.n	80026d4 <__ssputs_r+0x98>
 8002684:	0011      	movs	r1, r2
 8002686:	9802      	ldr	r0, [sp, #8]
 8002688:	f000 f962 	bl	8002950 <_malloc_r>
 800268c:	1e06      	subs	r6, r0, #0
 800268e:	d02a      	beq.n	80026e6 <__ssputs_r+0xaa>
 8002690:	9a01      	ldr	r2, [sp, #4]
 8002692:	6921      	ldr	r1, [r4, #16]
 8002694:	f000 fbc7 	bl	8002e26 <memcpy>
 8002698:	89a2      	ldrh	r2, [r4, #12]
 800269a:	4b19      	ldr	r3, [pc, #100]	@ (8002700 <__ssputs_r+0xc4>)
 800269c:	401a      	ands	r2, r3
 800269e:	2380      	movs	r3, #128	@ 0x80
 80026a0:	4313      	orrs	r3, r2
 80026a2:	81a3      	strh	r3, [r4, #12]
 80026a4:	9b01      	ldr	r3, [sp, #4]
 80026a6:	6126      	str	r6, [r4, #16]
 80026a8:	18f6      	adds	r6, r6, r3
 80026aa:	6026      	str	r6, [r4, #0]
 80026ac:	6165      	str	r5, [r4, #20]
 80026ae:	003e      	movs	r6, r7
 80026b0:	1aed      	subs	r5, r5, r3
 80026b2:	003b      	movs	r3, r7
 80026b4:	60a5      	str	r5, [r4, #8]
 80026b6:	001f      	movs	r7, r3
 80026b8:	003a      	movs	r2, r7
 80026ba:	9903      	ldr	r1, [sp, #12]
 80026bc:	6820      	ldr	r0, [r4, #0]
 80026be:	f000 fb83 	bl	8002dc8 <memmove>
 80026c2:	2000      	movs	r0, #0
 80026c4:	68a3      	ldr	r3, [r4, #8]
 80026c6:	1b9b      	subs	r3, r3, r6
 80026c8:	60a3      	str	r3, [r4, #8]
 80026ca:	6823      	ldr	r3, [r4, #0]
 80026cc:	19db      	adds	r3, r3, r7
 80026ce:	6023      	str	r3, [r4, #0]
 80026d0:	b005      	add	sp, #20
 80026d2:	bdf0      	pop	{r4, r5, r6, r7, pc}
 80026d4:	9802      	ldr	r0, [sp, #8]
 80026d6:	f000 fb47 	bl	8002d68 <_realloc_r>
 80026da:	1e06      	subs	r6, r0, #0
 80026dc:	d1e2      	bne.n	80026a4 <__ssputs_r+0x68>
 80026de:	6921      	ldr	r1, [r4, #16]
 80026e0:	9802      	ldr	r0, [sp, #8]
 80026e2:	f000 fba9 	bl	8002e38 <_free_r>
 80026e6:	230c      	movs	r3, #12
 80026e8:	2001      	movs	r0, #1
 80026ea:	9a02      	ldr	r2, [sp, #8]
 80026ec:	4240      	negs	r0, r0
 80026ee:	6013      	str	r3, [r2, #0]
 80026f0:	89a2      	ldrh	r2, [r4, #12]
 80026f2:	3334      	adds	r3, #52	@ 0x34
 80026f4:	4313      	orrs	r3, r2
 80026f6:	81a3      	strh	r3, [r4, #12]
 80026f8:	e7ea      	b.n	80026d0 <__ssputs_r+0x94>
 80026fa:	003e      	movs	r6, r7
 80026fc:	e7dc      	b.n	80026b8 <__ssputs_r+0x7c>
 80026fe:	46c0      	nop			@ (mov r8, r8)
 8002700:	fffffb7f 	.word	0xfffffb7f

08002704 <_svfiprintf_r>:
 8002704:	b5f0      	push	{r4, r5, r6, r7, lr}
 8002706:	b09f      	sub	sp, #124	@ 0x7c
 8002708:	9002      	str	r0, [sp, #8]
 800270a:	001c      	movs	r4, r3
 800270c:	898b      	ldrh	r3, [r1, #12]
 800270e:	000e      	movs	r6, r1
 8002710:	0015      	movs	r5, r2
 8002712:	061b      	lsls	r3, r3, #24
 8002714:	d511      	bpl.n	800273a <_svfiprintf_r+0x36>
 8002716:	690b      	ldr	r3, [r1, #16]
 8002718:	2b00      	cmp	r3, #0
 800271a:	d10e      	bne.n	800273a <_svfiprintf_r+0x36>
 800271c:	2140      	movs	r1, #64	@ 0x40
 800271e:	f000 f917 	bl	8002950 <_malloc_r>
 8002722:	6030      	str	r0, [r6, #0]
 8002724:	6130      	str	r0, [r6, #16]
 8002726:	2800      	cmp	r0, #0
 8002728:	d105      	bne.n	8002736 <_svfiprintf_r+0x32>
 800272a:	230c      	movs	r3, #12
 800272c:	9a02      	ldr	r2, [sp, #8]
 800272e:	6013      	str	r3, [r2, #0]
 8002730:	2001      	movs	r0, #1
 8002732:	4240      	negs	r0, r0
 8002734:	e0d4      	b.n	80028e0 <_svfiprintf_r+0x1dc>
 8002736:	2340      	movs	r3, #64	@ 0x40
 8002738:	6173      	str	r3, [r6, #20]
 800273a:	2300      	movs	r3, #0
 800273c:	2129      	movs	r1, #41	@ 0x29
 800273e:	aa02      	add	r2, sp, #8
 8002740:	1852      	adds	r2, r2, r1
 8002742:	930b      	str	r3, [sp, #44]	@ 0x2c
 8002744:	3320      	adds	r3, #32
 8002746:	7013      	strb	r3, [r2, #0]
 8002748:	3101      	adds	r1, #1
 800274a:	aa02      	add	r2, sp, #8
 800274c:	3310      	adds	r3, #16
 800274e:	1852      	adds	r2, r2, r1
 8002750:	7013      	strb	r3, [r2, #0]
 8002752:	9405      	str	r4, [sp, #20]
 8002754:	002c      	movs	r4, r5
 8002756:	7823      	ldrb	r3, [r4, #0]
 8002758:	2b00      	cmp	r3, #0
 800275a:	d001      	beq.n	8002760 <_svfiprintf_r+0x5c>
 800275c:	2b25      	cmp	r3, #37	@ 0x25
 800275e:	d148      	bne.n	80027f2 <_svfiprintf_r+0xee>
 8002760:	1b67      	subs	r7, r4, r5
 8002762:	42ac      	cmp	r4, r5
 8002764:	d00b      	beq.n	800277e <_svfiprintf_r+0x7a>
 8002766:	003b      	movs	r3, r7
 8002768:	002a      	movs	r2, r5
 800276a:	0031      	movs	r1, r6
 800276c:	9802      	ldr	r0, [sp, #8]
 800276e:	f7ff ff65 	bl	800263c <__ssputs_r>
 8002772:	3001      	adds	r0, #1
 8002774:	d100      	bne.n	8002778 <_svfiprintf_r+0x74>
 8002776:	e0ae      	b.n	80028d6 <_svfiprintf_r+0x1d2>
 8002778:	9b0b      	ldr	r3, [sp, #44]	@ 0x2c
 800277a:	19db      	adds	r3, r3, r7
 800277c:	930b      	str	r3, [sp, #44]	@ 0x2c
 800277e:	7823      	ldrb	r3, [r4, #0]
 8002780:	2b00      	cmp	r3, #0
 8002782:	d100      	bne.n	8002786 <_svfiprintf_r+0x82>
 8002784:	e0a7      	b.n	80028d6 <_svfiprintf_r+0x1d2>
 8002786:	2201      	movs	r2, #1
 8002788:	2153      	movs	r1, #83	@ 0x53
 800278a:	2300      	movs	r3, #0
 800278c:	4252      	negs	r2, r2
 800278e:	9207      	str	r2, [sp, #28]
 8002790:	aa02      	add	r2, sp, #8
 8002792:	1852      	adds	r2, r2, r1
 8002794:	1c65      	adds	r5, r4, #1
 8002796:	9306      	str	r3, [sp, #24]
 8002798:	9309      	str	r3, [sp, #36]	@ 0x24
 800279a:	9308      	str	r3, [sp, #32]
 800279c:	7013      	strb	r3, [r2, #0]
 800279e:	931c      	str	r3, [sp, #112]	@ 0x70
 80027a0:	4f55      	ldr	r7, [pc, #340]	@ (80028f8 <_svfiprintf_r+0x1f4>)
 80027a2:	7829      	ldrb	r1, [r5, #0]
 80027a4:	2205      	movs	r2, #5
 80027a6:	0038      	movs	r0, r7
 80027a8:	f000 fb32 	bl	8002e10 <memchr>
 80027ac:	1c6c      	adds	r4, r5, #1
 80027ae:	9906      	ldr	r1, [sp, #24]
 80027b0:	ab06      	add	r3, sp, #24
 80027b2:	2800      	cmp	r0, #0
 80027b4:	d11f      	bne.n	80027f6 <_svfiprintf_r+0xf2>
 80027b6:	06ca      	lsls	r2, r1, #27
 80027b8:	d504      	bpl.n	80027c4 <_svfiprintf_r+0xc0>
 80027ba:	2753      	movs	r7, #83	@ 0x53
 80027bc:	2220      	movs	r2, #32
 80027be:	a802      	add	r0, sp, #8
 80027c0:	19c0      	adds	r0, r0, r7
 80027c2:	7002      	strb	r2, [r0, #0]
 80027c4:	070a      	lsls	r2, r1, #28
 80027c6:	d504      	bpl.n	80027d2 <_svfiprintf_r+0xce>
 80027c8:	2753      	movs	r7, #83	@ 0x53
 80027ca:	222b      	movs	r2, #43	@ 0x2b
 80027cc:	a802      	add	r0, sp, #8
 80027ce:	19c0      	adds	r0, r0, r7
 80027d0:	7002      	strb	r2, [r0, #0]
 80027d2:	782a      	ldrb	r2, [r5, #0]
 80027d4:	2a2a      	cmp	r2, #42	@ 0x2a
 80027d6:	d015      	beq.n	8002804 <_svfiprintf_r+0x100>
 80027d8:	002c      	movs	r4, r5
 80027da:	2000      	movs	r0, #0
 80027dc:	270a      	movs	r7, #10
 80027de:	68da      	ldr	r2, [r3, #12]
 80027e0:	7821      	ldrb	r1, [r4, #0]
 80027e2:	1c65      	adds	r5, r4, #1
 80027e4:	3930      	subs	r1, #48	@ 0x30
 80027e6:	2909      	cmp	r1, #9
 80027e8:	d950      	bls.n	800288c <_svfiprintf_r+0x188>
 80027ea:	2800      	cmp	r0, #0
 80027ec:	d011      	beq.n	8002812 <_svfiprintf_r+0x10e>
 80027ee:	9209      	str	r2, [sp, #36]	@ 0x24
 80027f0:	e00f      	b.n	8002812 <_svfiprintf_r+0x10e>
 80027f2:	3401      	adds	r4, #1
 80027f4:	e7af      	b.n	8002756 <_svfiprintf_r+0x52>
 80027f6:	2301      	movs	r3, #1
 80027f8:	1bc0      	subs	r0, r0, r7
 80027fa:	4083      	lsls	r3, r0
 80027fc:	430b      	orrs	r3, r1
 80027fe:	0025      	movs	r5, r4
 8002800:	9306      	str	r3, [sp, #24]
 8002802:	e7cd      	b.n	80027a0 <_svfiprintf_r+0x9c>
 8002804:	9a05      	ldr	r2, [sp, #20]
 8002806:	1d10      	adds	r0, r2, #4
 8002808:	6812      	ldr	r2, [r2, #0]
 800280a:	9005      	str	r0, [sp, #20]
 800280c:	2a00      	cmp	r2, #0
 800280e:	db37      	blt.n	8002880 <_svfiprintf_r+0x17c>
 8002810:	60da      	str	r2, [r3, #12]
 8002812:	7822      	ldrb	r2, [r4, #0]
 8002814:	2a2e      	cmp	r2, #46	@ 0x2e
 8002816:	d10c      	bne.n	8002832 <_svfiprintf_r+0x12e>
 8002818:	7862      	ldrb	r2, [r4, #1]
 800281a:	2a2a      	cmp	r2, #42	@ 0x2a
 800281c:	d13b      	bne.n	8002896 <_svfiprintf_r+0x192>
 800281e:	9a05      	ldr	r2, [sp, #20]
 8002820:	3402      	adds	r4, #2
 8002822:	1d11      	adds	r1, r2, #4
 8002824:	6812      	ldr	r2, [r2, #0]
 8002826:	9105      	str	r1, [sp, #20]
 8002828:	2a00      	cmp	r2, #0
 800282a:	da01      	bge.n	8002830 <_svfiprintf_r+0x12c>
 800282c:	2201      	movs	r2, #1
 800282e:	4252      	negs	r2, r2
 8002830:	605a      	str	r2, [r3, #4]
 8002832:	4d32      	ldr	r5, [pc, #200]	@ (80028fc <_svfiprintf_r+0x1f8>)
 8002834:	2203      	movs	r2, #3
 8002836:	0028      	movs	r0, r5
 8002838:	7821      	ldrb	r1, [r4, #0]
 800283a:	f000 fae9 	bl	8002e10 <memchr>
 800283e:	af06      	add	r7, sp, #24
 8002840:	2800      	cmp	r0, #0
 8002842:	d006      	beq.n	8002852 <_svfiprintf_r+0x14e>
 8002844:	2340      	movs	r3, #64	@ 0x40
 8002846:	1b40      	subs	r0, r0, r5
 8002848:	4083      	lsls	r3, r0
 800284a:	9a06      	ldr	r2, [sp, #24]
 800284c:	3401      	adds	r4, #1
 800284e:	4313      	orrs	r3, r2
 8002850:	9306      	str	r3, [sp, #24]
 8002852:	7821      	ldrb	r1, [r4, #0]
 8002854:	2206      	movs	r2, #6
 8002856:	482a      	ldr	r0, [pc, #168]	@ (8002900 <_svfiprintf_r+0x1fc>)
 8002858:	1c65      	adds	r5, r4, #1
 800285a:	7639      	strb	r1, [r7, #24]
 800285c:	f000 fad8 	bl	8002e10 <memchr>
 8002860:	2800      	cmp	r0, #0
 8002862:	d03f      	beq.n	80028e4 <_svfiprintf_r+0x1e0>
 8002864:	4b27      	ldr	r3, [pc, #156]	@ (8002904 <_svfiprintf_r+0x200>)
 8002866:	2b00      	cmp	r3, #0
 8002868:	d129      	bne.n	80028be <_svfiprintf_r+0x1ba>
 800286a:	2207      	movs	r2, #7
 800286c:	9b05      	ldr	r3, [sp, #20]
 800286e:	3307      	adds	r3, #7
 8002870:	4393      	bics	r3, r2
 8002872:	3308      	adds	r3, #8
 8002874:	9305      	str	r3, [sp, #20]
 8002876:	9b0b      	ldr	r3, [sp, #44]	@ 0x2c
 8002878:	9903      	ldr	r1, [sp, #12]
 800287a:	185b      	adds	r3, r3, r1
 800287c:	930b      	str	r3, [sp, #44]	@ 0x2c
 800287e:	e769      	b.n	8002754 <_svfiprintf_r+0x50>
 8002880:	4252      	negs	r2, r2
 8002882:	60da      	str	r2, [r3, #12]
 8002884:	2202      	movs	r2, #2
 8002886:	430a      	orrs	r2, r1
 8002888:	9206      	str	r2, [sp, #24]
 800288a:	e7c2      	b.n	8002812 <_svfiprintf_r+0x10e>
 800288c:	437a      	muls	r2, r7
 800288e:	002c      	movs	r4, r5
 8002890:	2001      	movs	r0, #1
 8002892:	1852      	adds	r2, r2, r1
 8002894:	e7a4      	b.n	80027e0 <_svfiprintf_r+0xdc>
 8002896:	2200      	movs	r2, #0
 8002898:	200a      	movs	r0, #10
 800289a:	605a      	str	r2, [r3, #4]
 800289c:	0011      	movs	r1, r2
 800289e:	0013      	movs	r3, r2
 80028a0:	3401      	adds	r4, #1
 80028a2:	7822      	ldrb	r2, [r4, #0]
 80028a4:	1c65      	adds	r5, r4, #1
 80028a6:	3a30      	subs	r2, #48	@ 0x30
 80028a8:	2a09      	cmp	r2, #9
 80028aa:	d903      	bls.n	80028b4 <_svfiprintf_r+0x1b0>
 80028ac:	2b00      	cmp	r3, #0
 80028ae:	d0c0      	beq.n	8002832 <_svfiprintf_r+0x12e>
 80028b0:	9107      	str	r1, [sp, #28]
 80028b2:	e7be      	b.n	8002832 <_svfiprintf_r+0x12e>
 80028b4:	4341      	muls	r1, r0
 80028b6:	002c      	movs	r4, r5
 80028b8:	2301      	movs	r3, #1
 80028ba:	1889      	adds	r1, r1, r2
 80028bc:	e7f1      	b.n	80028a2 <_svfiprintf_r+0x19e>
 80028be:	aa05      	add	r2, sp, #20
 80028c0:	9200      	str	r2, [sp, #0]
 80028c2:	0039      	movs	r1, r7
 80028c4:	0032      	movs	r2, r6
 80028c6:	4b10      	ldr	r3, [pc, #64]	@ (8002908 <_svfiprintf_r+0x204>)
 80028c8:	9802      	ldr	r0, [sp, #8]
 80028ca:	e000      	b.n	80028ce <_svfiprintf_r+0x1ca>
 80028cc:	bf00      	nop
 80028ce:	9003      	str	r0, [sp, #12]
 80028d0:	9b03      	ldr	r3, [sp, #12]
 80028d2:	3301      	adds	r3, #1
 80028d4:	d1cf      	bne.n	8002876 <_svfiprintf_r+0x172>
 80028d6:	89b3      	ldrh	r3, [r6, #12]
 80028d8:	980b      	ldr	r0, [sp, #44]	@ 0x2c
 80028da:	065b      	lsls	r3, r3, #25
 80028dc:	d500      	bpl.n	80028e0 <_svfiprintf_r+0x1dc>
 80028de:	e727      	b.n	8002730 <_svfiprintf_r+0x2c>
 80028e0:	b01f      	add	sp, #124	@ 0x7c
 80028e2:	bdf0      	pop	{r4, r5, r6, r7, pc}
 80028e4:	aa05      	add	r2, sp, #20
 80028e6:	9200      	str	r2, [sp, #0]
 80028e8:	0039      	movs	r1, r7
 80028ea:	0032      	movs	r2, r6
 80028ec:	4b06      	ldr	r3, [pc, #24]	@ (8002908 <_svfiprintf_r+0x204>)
 80028ee:	9802      	ldr	r0, [sp, #8]
 80028f0:	f000 f91e 	bl	8002b30 <_printf_i>
 80028f4:	e7eb      	b.n	80028ce <_svfiprintf_r+0x1ca>
 80028f6:	46c0      	nop			@ (mov r8, r8)
 80028f8:	08002f88 	.word	0x08002f88
 80028fc:	08002f8e 	.word	0x08002f8e
 8002900:	08002f92 	.word	0x08002f92
 8002904:	00000000 	.word	0x00000000
 8002908:	0800263d 	.word	0x0800263d

0800290c <sbrk_aligned>:
 800290c:	b570      	push	{r4, r5, r6, lr}
 800290e:	4e0f      	ldr	r6, [pc, #60]	@ (800294c <sbrk_aligned+0x40>)
 8002910:	000d      	movs	r5, r1
 8002912:	6831      	ldr	r1, [r6, #0]
 8002914:	0004      	movs	r4, r0
 8002916:	2900      	cmp	r1, #0
 8002918:	d102      	bne.n	8002920 <sbrk_aligned+0x14>
 800291a:	f000 fa67 	bl	8002dec <_sbrk_r>
 800291e:	6030      	str	r0, [r6, #0]
 8002920:	0029      	movs	r1, r5
 8002922:	0020      	movs	r0, r4
 8002924:	f000 fa62 	bl	8002dec <_sbrk_r>
 8002928:	1c43      	adds	r3, r0, #1
 800292a:	d103      	bne.n	8002934 <sbrk_aligned+0x28>
 800292c:	2501      	movs	r5, #1
 800292e:	426d      	negs	r5, r5
 8002930:	0028      	movs	r0, r5
 8002932:	bd70      	pop	{r4, r5, r6, pc}
 8002934:	2303      	movs	r3, #3
 8002936:	1cc5      	adds	r5, r0, #3
 8002938:	439d      	bics	r5, r3
 800293a:	42a8      	cmp	r0, r5
 800293c:	d0f8      	beq.n	8002930 <sbrk_aligned+0x24>
 800293e:	1a29      	subs	r1, r5, r0
 8002940:	0020      	movs	r0, r4
 8002942:	f000 fa53 	bl	8002dec <_sbrk_r>
 8002946:	3001      	adds	r0, #1
 8002948:	d1f2      	bne.n	8002930 <sbrk_aligned+0x24>
 800294a:	e7ef      	b.n	800292c <sbrk_aligned+0x20>
 800294c:	2000039c 	.word	0x2000039c

08002950 <_malloc_r>:
 8002950:	b5f7      	push	{r0, r1, r2, r4, r5, r6, r7, lr}
 8002952:	2203      	movs	r2, #3
 8002954:	1ccb      	adds	r3, r1, #3
 8002956:	4393      	bics	r3, r2
 8002958:	3308      	adds	r3, #8
 800295a:	0005      	movs	r5, r0
 800295c:	001f      	movs	r7, r3
 800295e:	2b0c      	cmp	r3, #12
 8002960:	d234      	bcs.n	80029cc <_malloc_r+0x7c>
 8002962:	270c      	movs	r7, #12
 8002964:	42b9      	cmp	r1, r7
 8002966:	d833      	bhi.n	80029d0 <_malloc_r+0x80>
 8002968:	0028      	movs	r0, r5
 800296a:	f000 f9ed 	bl	8002d48 <__malloc_lock>
 800296e:	4e37      	ldr	r6, [pc, #220]	@ (8002a4c <_malloc_r+0xfc>)
 8002970:	6833      	ldr	r3, [r6, #0]
 8002972:	001c      	movs	r4, r3
 8002974:	2c00      	cmp	r4, #0
 8002976:	d12f      	bne.n	80029d8 <_malloc_r+0x88>
 8002978:	0039      	movs	r1, r7
 800297a:	0028      	movs	r0, r5
 800297c:	f7ff ffc6 	bl	800290c <sbrk_aligned>
 8002980:	0004      	movs	r4, r0
 8002982:	1c43      	adds	r3, r0, #1
 8002984:	d15f      	bne.n	8002a46 <_malloc_r+0xf6>
 8002986:	6834      	ldr	r4, [r6, #0]
 8002988:	9400      	str	r4, [sp, #0]
 800298a:	9b00      	ldr	r3, [sp, #0]
 800298c:	2b00      	cmp	r3, #0
 800298e:	d14a      	bne.n	8002a26 <_malloc_r+0xd6>
 8002990:	2c00      	cmp	r4, #0
 8002992:	d052      	beq.n	8002a3a <_malloc_r+0xea>
 8002994:	6823      	ldr	r3, [r4, #0]
 8002996:	0028      	movs	r0, r5
 8002998:	18e3      	adds	r3, r4, r3
 800299a:	9900      	ldr	r1, [sp, #0]
 800299c:	9301      	str	r3, [sp, #4]
 800299e:	f000 fa25 	bl	8002dec <_sbrk_r>
 80029a2:	9b01      	ldr	r3, [sp, #4]
 80029a4:	4283      	cmp	r3, r0
 80029a6:	d148      	bne.n	8002a3a <_malloc_r+0xea>
 80029a8:	6823      	ldr	r3, [r4, #0]
 80029aa:	0028      	movs	r0, r5
 80029ac:	1aff      	subs	r7, r7, r3
 80029ae:	0039      	movs	r1, r7
 80029b0:	f7ff ffac 	bl	800290c <sbrk_aligned>
 80029b4:	3001      	adds	r0, #1
 80029b6:	d040      	beq.n	8002a3a <_malloc_r+0xea>
 80029b8:	6823      	ldr	r3, [r4, #0]
 80029ba:	19db      	adds	r3, r3, r7
 80029bc:	6023      	str	r3, [r4, #0]
 80029be:	6833      	ldr	r3, [r6, #0]
 80029c0:	685a      	ldr	r2, [r3, #4]
 80029c2:	2a00      	cmp	r2, #0
 80029c4:	d133      	bne.n	8002a2e <_malloc_r+0xde>
 80029c6:	9b00      	ldr	r3, [sp, #0]
 80029c8:	6033      	str	r3, [r6, #0]
 80029ca:	e019      	b.n	8002a00 <_malloc_r+0xb0>
 80029cc:	2b00      	cmp	r3, #0
 80029ce:	dac9      	bge.n	8002964 <_malloc_r+0x14>
 80029d0:	230c      	movs	r3, #12
 80029d2:	602b      	str	r3, [r5, #0]
 80029d4:	2000      	movs	r0, #0
 80029d6:	bdfe      	pop	{r1, r2, r3, r4, r5, r6, r7, pc}
 80029d8:	6821      	ldr	r1, [r4, #0]
 80029da:	1bc9      	subs	r1, r1, r7
 80029dc:	d420      	bmi.n	8002a20 <_malloc_r+0xd0>
 80029de:	290b      	cmp	r1, #11
 80029e0:	d90a      	bls.n	80029f8 <_malloc_r+0xa8>
 80029e2:	19e2      	adds	r2, r4, r7
 80029e4:	6027      	str	r7, [r4, #0]
 80029e6:	42a3      	cmp	r3, r4
 80029e8:	d104      	bne.n	80029f4 <_malloc_r+0xa4>
 80029ea:	6032      	str	r2, [r6, #0]
 80029ec:	6863      	ldr	r3, [r4, #4]
 80029ee:	6011      	str	r1, [r2, #0]
 80029f0:	6053      	str	r3, [r2, #4]
 80029f2:	e005      	b.n	8002a00 <_malloc_r+0xb0>
 80029f4:	605a      	str	r2, [r3, #4]
 80029f6:	e7f9      	b.n	80029ec <_malloc_r+0x9c>
 80029f8:	6862      	ldr	r2, [r4, #4]
 80029fa:	42a3      	cmp	r3, r4
 80029fc:	d10e      	bne.n	8002a1c <_malloc_r+0xcc>
 80029fe:	6032      	str	r2, [r6, #0]
 8002a00:	0028      	movs	r0, r5
 8002a02:	f000 f9a9 	bl	8002d58 <__malloc_unlock>
 8002a06:	0020      	movs	r0, r4
 8002a08:	2207      	movs	r2, #7
 8002a0a:	300b      	adds	r0, #11
 8002a0c:	1d23      	adds	r3, r4, #4
 8002a0e:	4390      	bics	r0, r2
 8002a10:	1ac2      	subs	r2, r0, r3
 8002a12:	4298      	cmp	r0, r3
 8002a14:	d0df      	beq.n	80029d6 <_malloc_r+0x86>
 8002a16:	1a1b      	subs	r3, r3, r0
 8002a18:	50a3      	str	r3, [r4, r2]
 8002a1a:	e7dc      	b.n	80029d6 <_malloc_r+0x86>
 8002a1c:	605a      	str	r2, [r3, #4]
 8002a1e:	e7ef      	b.n	8002a00 <_malloc_r+0xb0>
 8002a20:	0023      	movs	r3, r4
 8002a22:	6864      	ldr	r4, [r4, #4]
 8002a24:	e7a6      	b.n	8002974 <_malloc_r+0x24>
 8002a26:	9c00      	ldr	r4, [sp, #0]
 8002a28:	6863      	ldr	r3, [r4, #4]
 8002a2a:	9300      	str	r3, [sp, #0]
 8002a2c:	e7ad      	b.n	800298a <_malloc_r+0x3a>
 8002a2e:	001a      	movs	r2, r3
 8002a30:	685b      	ldr	r3, [r3, #4]
 8002a32:	42a3      	cmp	r3, r4
 8002a34:	d1fb      	bne.n	8002a2e <_malloc_r+0xde>
 8002a36:	2300      	movs	r3, #0
 8002a38:	e7da      	b.n	80029f0 <_malloc_r+0xa0>
 8002a3a:	230c      	movs	r3, #12
 8002a3c:	0028      	movs	r0, r5
 8002a3e:	602b      	str	r3, [r5, #0]
 8002a40:	f000 f98a 	bl	8002d58 <__malloc_unlock>
 8002a44:	e7c6      	b.n	80029d4 <_malloc_r+0x84>
 8002a46:	6007      	str	r7, [r0, #0]
 8002a48:	e7da      	b.n	8002a00 <_malloc_r+0xb0>
 8002a4a:	46c0      	nop			@ (mov r8, r8)
 8002a4c:	200003a0 	.word	0x200003a0

08002a50 <_printf_common>:
 8002a50:	b5f7      	push	{r0, r1, r2, r4, r5, r6, r7, lr}
 8002a52:	0016      	movs	r6, r2
 8002a54:	9301      	str	r3, [sp, #4]
 8002a56:	688a      	ldr	r2, [r1, #8]
 8002a58:	690b      	ldr	r3, [r1, #16]
 8002a5a:	000c      	movs	r4, r1
 8002a5c:	9000      	str	r0, [sp, #0]
 8002a5e:	4293      	cmp	r3, r2
 8002a60:	da00      	bge.n	8002a64 <_printf_common+0x14>
 8002a62:	0013      	movs	r3, r2
 8002a64:	0022      	movs	r2, r4
 8002a66:	6033      	str	r3, [r6, #0]
 8002a68:	3243      	adds	r2, #67	@ 0x43
 8002a6a:	7812      	ldrb	r2, [r2, #0]
 8002a6c:	2a00      	cmp	r2, #0
 8002a6e:	d001      	beq.n	8002a74 <_printf_common+0x24>
 8002a70:	3301      	adds	r3, #1
 8002a72:	6033      	str	r3, [r6, #0]
 8002a74:	6823      	ldr	r3, [r4, #0]
 8002a76:	069b      	lsls	r3, r3, #26
 8002a78:	d502      	bpl.n	8002a80 <_printf_common+0x30>
 8002a7a:	6833      	ldr	r3, [r6, #0]
 8002a7c:	3302      	adds	r3, #2
 8002a7e:	6033      	str	r3, [r6, #0]
 8002a80:	6822      	ldr	r2, [r4, #0]
 8002a82:	2306      	movs	r3, #6
 8002a84:	0015      	movs	r5, r2
 8002a86:	401d      	ands	r5, r3
 8002a88:	421a      	tst	r2, r3
 8002a8a:	d027      	beq.n	8002adc <_printf_common+0x8c>
 8002a8c:	0023      	movs	r3, r4
 8002a8e:	3343      	adds	r3, #67	@ 0x43
 8002a90:	781b      	ldrb	r3, [r3, #0]
 8002a92:	1e5a      	subs	r2, r3, #1
 8002a94:	4193      	sbcs	r3, r2
 8002a96:	6822      	ldr	r2, [r4, #0]
 8002a98:	0692      	lsls	r2, r2, #26
 8002a9a:	d430      	bmi.n	8002afe <_printf_common+0xae>
 8002a9c:	0022      	movs	r2, r4
 8002a9e:	9901      	ldr	r1, [sp, #4]
 8002aa0:	9800      	ldr	r0, [sp, #0]
 8002aa2:	9d08      	ldr	r5, [sp, #32]
 8002aa4:	3243      	adds	r2, #67	@ 0x43
 8002aa6:	47a8      	blx	r5
 8002aa8:	3001      	adds	r0, #1
 8002aaa:	d025      	beq.n	8002af8 <_printf_common+0xa8>
 8002aac:	2206      	movs	r2, #6
 8002aae:	6823      	ldr	r3, [r4, #0]
 8002ab0:	2500      	movs	r5, #0
 8002ab2:	4013      	ands	r3, r2
 8002ab4:	2b04      	cmp	r3, #4
 8002ab6:	d105      	bne.n	8002ac4 <_printf_common+0x74>
 8002ab8:	6833      	ldr	r3, [r6, #0]
 8002aba:	68e5      	ldr	r5, [r4, #12]
 8002abc:	1aed      	subs	r5, r5, r3
 8002abe:	43eb      	mvns	r3, r5
 8002ac0:	17db      	asrs	r3, r3, #31
 8002ac2:	401d      	ands	r5, r3
 8002ac4:	68a3      	ldr	r3, [r4, #8]
 8002ac6:	6922      	ldr	r2, [r4, #16]
 8002ac8:	4293      	cmp	r3, r2
 8002aca:	dd01      	ble.n	8002ad0 <_printf_common+0x80>
 8002acc:	1a9b      	subs	r3, r3, r2
 8002ace:	18ed      	adds	r5, r5, r3
 8002ad0:	2600      	movs	r6, #0
 8002ad2:	42b5      	cmp	r5, r6
 8002ad4:	d120      	bne.n	8002b18 <_printf_common+0xc8>
 8002ad6:	2000      	movs	r0, #0
 8002ad8:	e010      	b.n	8002afc <_printf_common+0xac>
 8002ada:	3501      	adds	r5, #1
 8002adc:	68e3      	ldr	r3, [r4, #12]
 8002ade:	6832      	ldr	r2, [r6, #0]
 8002ae0:	1a9b      	subs	r3, r3, r2
 8002ae2:	42ab      	cmp	r3, r5
 8002ae4:	ddd2      	ble.n	8002a8c <_printf_common+0x3c>
 8002ae6:	0022      	movs	r2, r4
 8002ae8:	2301      	movs	r3, #1
 8002aea:	9901      	ldr	r1, [sp, #4]
 8002aec:	9800      	ldr	r0, [sp, #0]
 8002aee:	9f08      	ldr	r7, [sp, #32]
 8002af0:	3219      	adds	r2, #25
 8002af2:	47b8      	blx	r7
 8002af4:	3001      	adds	r0, #1
 8002af6:	d1f0      	bne.n	8002ada <_printf_common+0x8a>
 8002af8:	2001      	movs	r0, #1
 8002afa:	4240      	negs	r0, r0
 8002afc:	bdfe      	pop	{r1, r2, r3, r4, r5, r6, r7, pc}
 8002afe:	2030      	movs	r0, #48	@ 0x30
 8002b00:	18e1      	adds	r1, r4, r3
 8002b02:	3143      	adds	r1, #67	@ 0x43
 8002b04:	7008      	strb	r0, [r1, #0]
 8002b06:	0021      	movs	r1, r4
 8002b08:	1c5a      	adds	r2, r3, #1
 8002b0a:	3145      	adds	r1, #69	@ 0x45
 8002b0c:	7809      	ldrb	r1, [r1, #0]
 8002b0e:	18a2      	adds	r2, r4, r2
 8002b10:	3243      	adds	r2, #67	@ 0x43
 8002b12:	3302      	adds	r3, #2
 8002b14:	7011      	strb	r1, [r2, #0]
 8002b16:	e7c1      	b.n	8002a9c <_printf_common+0x4c>
 8002b18:	0022      	movs	r2, r4
 8002b1a:	2301      	movs	r3, #1
 8002b1c:	9901      	ldr	r1, [sp, #4]
 8002b1e:	9800      	ldr	r0, [sp, #0]
 8002b20:	9f08      	ldr	r7, [sp, #32]
 8002b22:	321a      	adds	r2, #26
 8002b24:	47b8      	blx	r7
 8002b26:	3001      	adds	r0, #1
 8002b28:	d0e6      	beq.n	8002af8 <_printf_common+0xa8>
 8002b2a:	3601      	adds	r6, #1
 8002b2c:	e7d1      	b.n	8002ad2 <_printf_common+0x82>
	...

08002b30 <_printf_i>:
 8002b30:	b5f0      	push	{r4, r5, r6, r7, lr}
 8002b32:	b08b      	sub	sp, #44	@ 0x2c
 8002b34:	9206      	str	r2, [sp, #24]
 8002b36:	000a      	movs	r2, r1
 8002b38:	3243      	adds	r2, #67	@ 0x43
 8002b3a:	9307      	str	r3, [sp, #28]
 8002b3c:	9005      	str	r0, [sp, #20]
 8002b3e:	9203      	str	r2, [sp, #12]
 8002b40:	7e0a      	ldrb	r2, [r1, #24]
 8002b42:	000c      	movs	r4, r1
 8002b44:	9b10      	ldr	r3, [sp, #64]	@ 0x40
 8002b46:	2a78      	cmp	r2, #120	@ 0x78
 8002b48:	d809      	bhi.n	8002b5e <_printf_i+0x2e>
 8002b4a:	2a62      	cmp	r2, #98	@ 0x62
 8002b4c:	d80b      	bhi.n	8002b66 <_printf_i+0x36>
 8002b4e:	2a00      	cmp	r2, #0
 8002b50:	d100      	bne.n	8002b54 <_printf_i+0x24>
 8002b52:	e0ba      	b.n	8002cca <_printf_i+0x19a>
 8002b54:	497a      	ldr	r1, [pc, #488]	@ (8002d40 <_printf_i+0x210>)
 8002b56:	9104      	str	r1, [sp, #16]
 8002b58:	2a58      	cmp	r2, #88	@ 0x58
 8002b5a:	d100      	bne.n	8002b5e <_printf_i+0x2e>
 8002b5c:	e08e      	b.n	8002c7c <_printf_i+0x14c>
 8002b5e:	0025      	movs	r5, r4
 8002b60:	3542      	adds	r5, #66	@ 0x42
 8002b62:	702a      	strb	r2, [r5, #0]
 8002b64:	e022      	b.n	8002bac <_printf_i+0x7c>
 8002b66:	0010      	movs	r0, r2
 8002b68:	3863      	subs	r0, #99	@ 0x63
 8002b6a:	2815      	cmp	r0, #21
 8002b6c:	d8f7      	bhi.n	8002b5e <_printf_i+0x2e>
 8002b6e:	f7fd faaf 	bl	80000d0 <__gnu_thumb1_case_shi>
 8002b72:	0016      	.short	0x0016
 8002b74:	fff6001f 	.word	0xfff6001f
 8002b78:	fff6fff6 	.word	0xfff6fff6
 8002b7c:	001ffff6 	.word	0x001ffff6
 8002b80:	fff6fff6 	.word	0xfff6fff6
 8002b84:	fff6fff6 	.word	0xfff6fff6
 8002b88:	0036009f 	.word	0x0036009f
 8002b8c:	fff6007e 	.word	0xfff6007e
 8002b90:	00b0fff6 	.word	0x00b0fff6
 8002b94:	0036fff6 	.word	0x0036fff6
 8002b98:	fff6fff6 	.word	0xfff6fff6
 8002b9c:	0082      	.short	0x0082
 8002b9e:	0025      	movs	r5, r4
 8002ba0:	681a      	ldr	r2, [r3, #0]
 8002ba2:	3542      	adds	r5, #66	@ 0x42
 8002ba4:	1d11      	adds	r1, r2, #4
 8002ba6:	6019      	str	r1, [r3, #0]
 8002ba8:	6813      	ldr	r3, [r2, #0]
 8002baa:	702b      	strb	r3, [r5, #0]
 8002bac:	2301      	movs	r3, #1
 8002bae:	e09e      	b.n	8002cee <_printf_i+0x1be>
 8002bb0:	6818      	ldr	r0, [r3, #0]
 8002bb2:	6809      	ldr	r1, [r1, #0]
 8002bb4:	1d02      	adds	r2, r0, #4
 8002bb6:	060d      	lsls	r5, r1, #24
 8002bb8:	d50b      	bpl.n	8002bd2 <_printf_i+0xa2>
 8002bba:	6806      	ldr	r6, [r0, #0]
 8002bbc:	601a      	str	r2, [r3, #0]
 8002bbe:	2e00      	cmp	r6, #0
 8002bc0:	da03      	bge.n	8002bca <_printf_i+0x9a>
 8002bc2:	232d      	movs	r3, #45	@ 0x2d
 8002bc4:	9a03      	ldr	r2, [sp, #12]
 8002bc6:	4276      	negs	r6, r6
 8002bc8:	7013      	strb	r3, [r2, #0]
 8002bca:	4b5d      	ldr	r3, [pc, #372]	@ (8002d40 <_printf_i+0x210>)
 8002bcc:	270a      	movs	r7, #10
 8002bce:	9304      	str	r3, [sp, #16]
 8002bd0:	e018      	b.n	8002c04 <_printf_i+0xd4>
 8002bd2:	6806      	ldr	r6, [r0, #0]
 8002bd4:	601a      	str	r2, [r3, #0]
 8002bd6:	0649      	lsls	r1, r1, #25
 8002bd8:	d5f1      	bpl.n	8002bbe <_printf_i+0x8e>
 8002bda:	b236      	sxth	r6, r6
 8002bdc:	e7ef      	b.n	8002bbe <_printf_i+0x8e>
 8002bde:	6808      	ldr	r0, [r1, #0]
 8002be0:	6819      	ldr	r1, [r3, #0]
 8002be2:	c940      	ldmia	r1!, {r6}
 8002be4:	0605      	lsls	r5, r0, #24
 8002be6:	d402      	bmi.n	8002bee <_printf_i+0xbe>
 8002be8:	0640      	lsls	r0, r0, #25
 8002bea:	d500      	bpl.n	8002bee <_printf_i+0xbe>
 8002bec:	b2b6      	uxth	r6, r6
 8002bee:	6019      	str	r1, [r3, #0]
 8002bf0:	4b53      	ldr	r3, [pc, #332]	@ (8002d40 <_printf_i+0x210>)
 8002bf2:	270a      	movs	r7, #10
 8002bf4:	9304      	str	r3, [sp, #16]
 8002bf6:	2a6f      	cmp	r2, #111	@ 0x6f
 8002bf8:	d100      	bne.n	8002bfc <_printf_i+0xcc>
 8002bfa:	3f02      	subs	r7, #2
 8002bfc:	0023      	movs	r3, r4
 8002bfe:	2200      	movs	r2, #0
 8002c00:	3343      	adds	r3, #67	@ 0x43
 8002c02:	701a      	strb	r2, [r3, #0]
 8002c04:	6863      	ldr	r3, [r4, #4]
 8002c06:	60a3      	str	r3, [r4, #8]
 8002c08:	2b00      	cmp	r3, #0
 8002c0a:	db06      	blt.n	8002c1a <_printf_i+0xea>
 8002c0c:	2104      	movs	r1, #4
 8002c0e:	6822      	ldr	r2, [r4, #0]
 8002c10:	9d03      	ldr	r5, [sp, #12]
 8002c12:	438a      	bics	r2, r1
 8002c14:	6022      	str	r2, [r4, #0]
 8002c16:	4333      	orrs	r3, r6
 8002c18:	d00c      	beq.n	8002c34 <_printf_i+0x104>
 8002c1a:	9d03      	ldr	r5, [sp, #12]
 8002c1c:	0030      	movs	r0, r6
 8002c1e:	0039      	movs	r1, r7
 8002c20:	f7fd fae6 	bl	80001f0 <__aeabi_uidivmod>
 8002c24:	9b04      	ldr	r3, [sp, #16]
 8002c26:	3d01      	subs	r5, #1
 8002c28:	5c5b      	ldrb	r3, [r3, r1]
 8002c2a:	702b      	strb	r3, [r5, #0]
 8002c2c:	0033      	movs	r3, r6
 8002c2e:	0006      	movs	r6, r0
 8002c30:	429f      	cmp	r7, r3
 8002c32:	d9f3      	bls.n	8002c1c <_printf_i+0xec>
 8002c34:	2f08      	cmp	r7, #8
 8002c36:	d109      	bne.n	8002c4c <_printf_i+0x11c>
 8002c38:	6823      	ldr	r3, [r4, #0]
 8002c3a:	07db      	lsls	r3, r3, #31
 8002c3c:	d506      	bpl.n	8002c4c <_printf_i+0x11c>
 8002c3e:	6862      	ldr	r2, [r4, #4]
 8002c40:	6923      	ldr	r3, [r4, #16]
 8002c42:	429a      	cmp	r2, r3
 8002c44:	dc02      	bgt.n	8002c4c <_printf_i+0x11c>
 8002c46:	2330      	movs	r3, #48	@ 0x30
 8002c48:	3d01      	subs	r5, #1
 8002c4a:	702b      	strb	r3, [r5, #0]
 8002c4c:	9b03      	ldr	r3, [sp, #12]
 8002c4e:	1b5b      	subs	r3, r3, r5
 8002c50:	6123      	str	r3, [r4, #16]
 8002c52:	9b07      	ldr	r3, [sp, #28]
 8002c54:	0021      	movs	r1, r4
 8002c56:	9300      	str	r3, [sp, #0]
 8002c58:	9805      	ldr	r0, [sp, #20]
 8002c5a:	9b06      	ldr	r3, [sp, #24]
 8002c5c:	aa09      	add	r2, sp, #36	@ 0x24
 8002c5e:	f7ff fef7 	bl	8002a50 <_printf_common>
 8002c62:	3001      	adds	r0, #1
 8002c64:	d148      	bne.n	8002cf8 <_printf_i+0x1c8>
 8002c66:	2001      	movs	r0, #1
 8002c68:	4240      	negs	r0, r0
 8002c6a:	b00b      	add	sp, #44	@ 0x2c
 8002c6c:	bdf0      	pop	{r4, r5, r6, r7, pc}
 8002c6e:	2220      	movs	r2, #32
 8002c70:	6809      	ldr	r1, [r1, #0]
 8002c72:	430a      	orrs	r2, r1
 8002c74:	6022      	str	r2, [r4, #0]
 8002c76:	2278      	movs	r2, #120	@ 0x78
 8002c78:	4932      	ldr	r1, [pc, #200]	@ (8002d44 <_printf_i+0x214>)
 8002c7a:	9104      	str	r1, [sp, #16]
 8002c7c:	0021      	movs	r1, r4
 8002c7e:	3145      	adds	r1, #69	@ 0x45
 8002c80:	700a      	strb	r2, [r1, #0]
 8002c82:	6819      	ldr	r1, [r3, #0]
 8002c84:	6822      	ldr	r2, [r4, #0]
 8002c86:	c940      	ldmia	r1!, {r6}
 8002c88:	0610      	lsls	r0, r2, #24
 8002c8a:	d402      	bmi.n	8002c92 <_printf_i+0x162>
 8002c8c:	0650      	lsls	r0, r2, #25
 8002c8e:	d500      	bpl.n	8002c92 <_printf_i+0x162>
 8002c90:	b2b6      	uxth	r6, r6
 8002c92:	6019      	str	r1, [r3, #0]
 8002c94:	07d3      	lsls	r3, r2, #31
 8002c96:	d502      	bpl.n	8002c9e <_printf_i+0x16e>
 8002c98:	2320      	movs	r3, #32
 8002c9a:	4313      	orrs	r3, r2
 8002c9c:	6023      	str	r3, [r4, #0]
 8002c9e:	2e00      	cmp	r6, #0
 8002ca0:	d001      	beq.n	8002ca6 <_printf_i+0x176>
 8002ca2:	2710      	movs	r7, #16
 8002ca4:	e7aa      	b.n	8002bfc <_printf_i+0xcc>
 8002ca6:	2220      	movs	r2, #32
 8002ca8:	6823      	ldr	r3, [r4, #0]
 8002caa:	4393      	bics	r3, r2
 8002cac:	6023      	str	r3, [r4, #0]
 8002cae:	e7f8      	b.n	8002ca2 <_printf_i+0x172>
 8002cb0:	681a      	ldr	r2, [r3, #0]
 8002cb2:	680d      	ldr	r5, [r1, #0]
 8002cb4:	1d10      	adds	r0, r2, #4
 8002cb6:	6949      	ldr	r1, [r1, #20]
 8002cb8:	6018      	str	r0, [r3, #0]
 8002cba:	6813      	ldr	r3, [r2, #0]
 8002cbc:	062e      	lsls	r6, r5, #24
 8002cbe:	d501      	bpl.n	8002cc4 <_printf_i+0x194>
 8002cc0:	6019      	str	r1, [r3, #0]
 8002cc2:	e002      	b.n	8002cca <_printf_i+0x19a>
 8002cc4:	066d      	lsls	r5, r5, #25
 8002cc6:	d5fb      	bpl.n	8002cc0 <_printf_i+0x190>
 8002cc8:	8019      	strh	r1, [r3, #0]
 8002cca:	2300      	movs	r3, #0
 8002ccc:	9d03      	ldr	r5, [sp, #12]
 8002cce:	6123      	str	r3, [r4, #16]
 8002cd0:	e7bf      	b.n	8002c52 <_printf_i+0x122>
 8002cd2:	681a      	ldr	r2, [r3, #0]
 8002cd4:	1d11      	adds	r1, r2, #4
 8002cd6:	6019      	str	r1, [r3, #0]
 8002cd8:	6815      	ldr	r5, [r2, #0]
 8002cda:	2100      	movs	r1, #0
 8002cdc:	0028      	movs	r0, r5
 8002cde:	6862      	ldr	r2, [r4, #4]
 8002ce0:	f000 f896 	bl	8002e10 <memchr>
 8002ce4:	2800      	cmp	r0, #0
 8002ce6:	d001      	beq.n	8002cec <_printf_i+0x1bc>
 8002ce8:	1b40      	subs	r0, r0, r5
 8002cea:	6060      	str	r0, [r4, #4]
 8002cec:	6863      	ldr	r3, [r4, #4]
 8002cee:	6123      	str	r3, [r4, #16]
 8002cf0:	2300      	movs	r3, #0
 8002cf2:	9a03      	ldr	r2, [sp, #12]
 8002cf4:	7013      	strb	r3, [r2, #0]
 8002cf6:	e7ac      	b.n	8002c52 <_printf_i+0x122>
 8002cf8:	002a      	movs	r2, r5
 8002cfa:	6923      	ldr	r3, [r4, #16]
 8002cfc:	9906      	ldr	r1, [sp, #24]
 8002cfe:	9805      	ldr	r0, [sp, #20]
 8002d00:	9d07      	ldr	r5, [sp, #28]
 8002d02:	47a8      	blx	r5
 8002d04:	3001      	adds	r0, #1
 8002d06:	d0ae      	beq.n	8002c66 <_printf_i+0x136>
 8002d08:	6823      	ldr	r3, [r4, #0]
 8002d0a:	079b      	lsls	r3, r3, #30
 8002d0c:	d415      	bmi.n	8002d3a <_printf_i+0x20a>
 8002d0e:	9b09      	ldr	r3, [sp, #36]	@ 0x24
 8002d10:	68e0      	ldr	r0, [r4, #12]
 8002d12:	4298      	cmp	r0, r3
 8002d14:	daa9      	bge.n	8002c6a <_printf_i+0x13a>
 8002d16:	0018      	movs	r0, r3
 8002d18:	e7a7      	b.n	8002c6a <_printf_i+0x13a>
 8002d1a:	0022      	movs	r2, r4
 8002d1c:	2301      	movs	r3, #1
 8002d1e:	9906      	ldr	r1, [sp, #24]
 8002d20:	9805      	ldr	r0, [sp, #20]
 8002d22:	9e07      	ldr	r6, [sp, #28]
 8002d24:	3219      	adds	r2, #25
 8002d26:	47b0      	blx	r6
 8002d28:	3001      	adds	r0, #1
 8002d2a:	d09c      	beq.n	8002c66 <_printf_i+0x136>
 8002d2c:	3501      	adds	r5, #1
 8002d2e:	68e3      	ldr	r3, [r4, #12]
 8002d30:	9a09      	ldr	r2, [sp, #36]	@ 0x24
 8002d32:	1a9b      	subs	r3, r3, r2
 8002d34:	42ab      	cmp	r3, r5
 8002d36:	dcf0      	bgt.n	8002d1a <_printf_i+0x1ea>
 8002d38:	e7e9      	b.n	8002d0e <_printf_i+0x1de>
 8002d3a:	2500      	movs	r5, #0
 8002d3c:	e7f7      	b.n	8002d2e <_printf_i+0x1fe>
 8002d3e:	46c0      	nop			@ (mov r8, r8)
 8002d40:	08002f99 	.word	0x08002f99
 8002d44:	08002faa 	.word	0x08002faa

08002d48 <__malloc_lock>:
 8002d48:	b510      	push	{r4, lr}
 8002d4a:	4802      	ldr	r0, [pc, #8]	@ (8002d54 <__malloc_lock+0xc>)
 8002d4c:	f7ff fc74 	bl	8002638 <__retarget_lock_acquire_recursive>
 8002d50:	bd10      	pop	{r4, pc}
 8002d52:	46c0      	nop			@ (mov r8, r8)
 8002d54:	20000398 	.word	0x20000398

08002d58 <__malloc_unlock>:
 8002d58:	b510      	push	{r4, lr}
 8002d5a:	4802      	ldr	r0, [pc, #8]	@ (8002d64 <__malloc_unlock+0xc>)
 8002d5c:	f7ff fc6d 	bl	800263a <__retarget_lock_release_recursive>
 8002d60:	bd10      	pop	{r4, pc}
 8002d62:	46c0      	nop			@ (mov r8, r8)
 8002d64:	20000398 	.word	0x20000398

08002d68 <_realloc_r>:
 8002d68:	b5f7      	push	{r0, r1, r2, r4, r5, r6, r7, lr}
 8002d6a:	0006      	movs	r6, r0
 8002d6c:	000c      	movs	r4, r1
 8002d6e:	0015      	movs	r5, r2
 8002d70:	2900      	cmp	r1, #0
 8002d72:	d105      	bne.n	8002d80 <_realloc_r+0x18>
 8002d74:	0011      	movs	r1, r2
 8002d76:	f7ff fdeb 	bl	8002950 <_malloc_r>
 8002d7a:	0004      	movs	r4, r0
 8002d7c:	0020      	movs	r0, r4
 8002d7e:	bdfe      	pop	{r1, r2, r3, r4, r5, r6, r7, pc}
 8002d80:	2a00      	cmp	r2, #0
 8002d82:	d103      	bne.n	8002d8c <_realloc_r+0x24>
 8002d84:	f000 f858 	bl	8002e38 <_free_r>
 8002d88:	002c      	movs	r4, r5
 8002d8a:	e7f7      	b.n	8002d7c <_realloc_r+0x14>
 8002d8c:	f000 f89e 	bl	8002ecc <_malloc_usable_size_r>
 8002d90:	0007      	movs	r7, r0
 8002d92:	4285      	cmp	r5, r0
 8002d94:	d802      	bhi.n	8002d9c <_realloc_r+0x34>
 8002d96:	0843      	lsrs	r3, r0, #1
 8002d98:	42ab      	cmp	r3, r5
 8002d9a:	d3ef      	bcc.n	8002d7c <_realloc_r+0x14>
 8002d9c:	0029      	movs	r1, r5
 8002d9e:	0030      	movs	r0, r6
 8002da0:	f7ff fdd6 	bl	8002950 <_malloc_r>
 8002da4:	9001      	str	r0, [sp, #4]
 8002da6:	2800      	cmp	r0, #0
 8002da8:	d101      	bne.n	8002dae <_realloc_r+0x46>
 8002daa:	9c01      	ldr	r4, [sp, #4]
 8002dac:	e7e6      	b.n	8002d7c <_realloc_r+0x14>
 8002dae:	002a      	movs	r2, r5
 8002db0:	42bd      	cmp	r5, r7
 8002db2:	d900      	bls.n	8002db6 <_realloc_r+0x4e>
 8002db4:	003a      	movs	r2, r7
 8002db6:	0021      	movs	r1, r4
 8002db8:	9801      	ldr	r0, [sp, #4]
 8002dba:	f000 f834 	bl	8002e26 <memcpy>
 8002dbe:	0021      	movs	r1, r4
 8002dc0:	0030      	movs	r0, r6
 8002dc2:	f000 f839 	bl	8002e38 <_free_r>
 8002dc6:	e7f0      	b.n	8002daa <_realloc_r+0x42>

08002dc8 <memmove>:
 8002dc8:	b510      	push	{r4, lr}
 8002dca:	4288      	cmp	r0, r1
 8002dcc:	d902      	bls.n	8002dd4 <memmove+0xc>
 8002dce:	188b      	adds	r3, r1, r2
 8002dd0:	4298      	cmp	r0, r3
 8002dd2:	d308      	bcc.n	8002de6 <memmove+0x1e>
 8002dd4:	2300      	movs	r3, #0
 8002dd6:	429a      	cmp	r2, r3
 8002dd8:	d007      	beq.n	8002dea <memmove+0x22>
 8002dda:	5ccc      	ldrb	r4, [r1, r3]
 8002ddc:	54c4      	strb	r4, [r0, r3]
 8002dde:	3301      	adds	r3, #1
 8002de0:	e7f9      	b.n	8002dd6 <memmove+0xe>
 8002de2:	5c8b      	ldrb	r3, [r1, r2]
 8002de4:	5483      	strb	r3, [r0, r2]
 8002de6:	3a01      	subs	r2, #1
 8002de8:	d2fb      	bcs.n	8002de2 <memmove+0x1a>
 8002dea:	bd10      	pop	{r4, pc}

08002dec <_sbrk_r>:
 8002dec:	2300      	movs	r3, #0
 8002dee:	b570      	push	{r4, r5, r6, lr}
 8002df0:	4d06      	ldr	r5, [pc, #24]	@ (8002e0c <_sbrk_r+0x20>)
 8002df2:	0004      	movs	r4, r0
 8002df4:	0008      	movs	r0, r1
 8002df6:	602b      	str	r3, [r5, #0]
 8002df8:	f7ff fb62 	bl	80024c0 <_sbrk>
 8002dfc:	1c43      	adds	r3, r0, #1
 8002dfe:	d103      	bne.n	8002e08 <_sbrk_r+0x1c>
 8002e00:	682b      	ldr	r3, [r5, #0]
 8002e02:	2b00      	cmp	r3, #0
 8002e04:	d000      	beq.n	8002e08 <_sbrk_r+0x1c>
 8002e06:	6023      	str	r3, [r4, #0]
 8002e08:	bd70      	pop	{r4, r5, r6, pc}
 8002e0a:	46c0      	nop			@ (mov r8, r8)
 8002e0c:	200003a4 	.word	0x200003a4

08002e10 <memchr>:
 8002e10:	b2c9      	uxtb	r1, r1
 8002e12:	1882      	adds	r2, r0, r2
 8002e14:	4290      	cmp	r0, r2
 8002e16:	d101      	bne.n	8002e1c <memchr+0xc>
 8002e18:	2000      	movs	r0, #0
 8002e1a:	4770      	bx	lr
 8002e1c:	7803      	ldrb	r3, [r0, #0]
 8002e1e:	428b      	cmp	r3, r1
 8002e20:	d0fb      	beq.n	8002e1a <memchr+0xa>
 8002e22:	3001      	adds	r0, #1
 8002e24:	e7f6      	b.n	8002e14 <memchr+0x4>

08002e26 <memcpy>:
 8002e26:	2300      	movs	r3, #0
 8002e28:	b510      	push	{r4, lr}
 8002e2a:	429a      	cmp	r2, r3
 8002e2c:	d100      	bne.n	8002e30 <memcpy+0xa>
 8002e2e:	bd10      	pop	{r4, pc}
 8002e30:	5ccc      	ldrb	r4, [r1, r3]
 8002e32:	54c4      	strb	r4, [r0, r3]
 8002e34:	3301      	adds	r3, #1
 8002e36:	e7f8      	b.n	8002e2a <memcpy+0x4>

08002e38 <_free_r>:
 8002e38:	b570      	push	{r4, r5, r6, lr}
 8002e3a:	0005      	movs	r5, r0
 8002e3c:	1e0c      	subs	r4, r1, #0
 8002e3e:	d010      	beq.n	8002e62 <_free_r+0x2a>
 8002e40:	3c04      	subs	r4, #4
 8002e42:	6823      	ldr	r3, [r4, #0]
 8002e44:	2b00      	cmp	r3, #0
 8002e46:	da00      	bge.n	8002e4a <_free_r+0x12>
 8002e48:	18e4      	adds	r4, r4, r3
 8002e4a:	0028      	movs	r0, r5
 8002e4c:	f7ff ff7c 	bl	8002d48 <__malloc_lock>
 8002e50:	4a1d      	ldr	r2, [pc, #116]	@ (8002ec8 <_free_r+0x90>)
 8002e52:	6813      	ldr	r3, [r2, #0]
 8002e54:	2b00      	cmp	r3, #0
 8002e56:	d105      	bne.n	8002e64 <_free_r+0x2c>
 8002e58:	6063      	str	r3, [r4, #4]
 8002e5a:	6014      	str	r4, [r2, #0]
 8002e5c:	0028      	movs	r0, r5
 8002e5e:	f7ff ff7b 	bl	8002d58 <__malloc_unlock>
 8002e62:	bd70      	pop	{r4, r5, r6, pc}
 8002e64:	42a3      	cmp	r3, r4
 8002e66:	d908      	bls.n	8002e7a <_free_r+0x42>
 8002e68:	6820      	ldr	r0, [r4, #0]
 8002e6a:	1821      	adds	r1, r4, r0
 8002e6c:	428b      	cmp	r3, r1
 8002e6e:	d1f3      	bne.n	8002e58 <_free_r+0x20>
 8002e70:	6819      	ldr	r1, [r3, #0]
 8002e72:	685b      	ldr	r3, [r3, #4]
 8002e74:	1809      	adds	r1, r1, r0
 8002e76:	6021      	str	r1, [r4, #0]
 8002e78:	e7ee      	b.n	8002e58 <_free_r+0x20>
 8002e7a:	001a      	movs	r2, r3
 8002e7c:	685b      	ldr	r3, [r3, #4]
 8002e7e:	2b00      	cmp	r3, #0
 8002e80:	d001      	beq.n	8002e86 <_free_r+0x4e>
 8002e82:	42a3      	cmp	r3, r4
 8002e84:	d9f9      	bls.n	8002e7a <_free_r+0x42>
 8002e86:	6811      	ldr	r1, [r2, #0]
 8002e88:	1850      	adds	r0, r2, r1
 8002e8a:	42a0      	cmp	r0, r4
 8002e8c:	d10b      	bne.n	8002ea6 <_free_r+0x6e>
 8002e8e:	6820      	ldr	r0, [r4, #0]
 8002e90:	1809      	adds	r1, r1, r0
 8002e92:	1850      	adds	r0, r2, r1
 8002e94:	6011      	str	r1, [r2, #0]
 8002e96:	4283      	cmp	r3, r0
 8002e98:	d1e0      	bne.n	8002e5c <_free_r+0x24>
 8002e9a:	6818      	ldr	r0, [r3, #0]
 8002e9c:	685b      	ldr	r3, [r3, #4]
 8002e9e:	1841      	adds	r1, r0, r1
 8002ea0:	6011      	str	r1, [r2, #0]
 8002ea2:	6053      	str	r3, [r2, #4]
 8002ea4:	e7da      	b.n	8002e5c <_free_r+0x24>
 8002ea6:	42a0      	cmp	r0, r4
 8002ea8:	d902      	bls.n	8002eb0 <_free_r+0x78>
 8002eaa:	230c      	movs	r3, #12
 8002eac:	602b      	str	r3, [r5, #0]
 8002eae:	e7d5      	b.n	8002e5c <_free_r+0x24>
 8002eb0:	6820      	ldr	r0, [r4, #0]
 8002eb2:	1821      	adds	r1, r4, r0
 8002eb4:	428b      	cmp	r3, r1
 8002eb6:	d103      	bne.n	8002ec0 <_free_r+0x88>
 8002eb8:	6819      	ldr	r1, [r3, #0]
 8002eba:	685b      	ldr	r3, [r3, #4]
 8002ebc:	1809      	adds	r1, r1, r0
 8002ebe:	6021      	str	r1, [r4, #0]
 8002ec0:	6063      	str	r3, [r4, #4]
 8002ec2:	6054      	str	r4, [r2, #4]
 8002ec4:	e7ca      	b.n	8002e5c <_free_r+0x24>
 8002ec6:	46c0      	nop			@ (mov r8, r8)
 8002ec8:	200003a0 	.word	0x200003a0

08002ecc <_malloc_usable_size_r>:
 8002ecc:	1f0b      	subs	r3, r1, #4
 8002ece:	681b      	ldr	r3, [r3, #0]
 8002ed0:	1f18      	subs	r0, r3, #4
 8002ed2:	2b00      	cmp	r3, #0
 8002ed4:	da01      	bge.n	8002eda <_malloc_usable_size_r+0xe>
 8002ed6:	580b      	ldr	r3, [r1, r0]
 8002ed8:	18c0      	adds	r0, r0, r3
 8002eda:	4770      	bx	lr

08002edc <_init>:
 8002edc:	b5f8      	push	{r3, r4, r5, r6, r7, lr}
 8002ede:	46c0      	nop			@ (mov r8, r8)
 8002ee0:	bcf8      	pop	{r3, r4, r5, r6, r7}
 8002ee2:	bc08      	pop	{r3}
 8002ee4:	469e      	mov	lr, r3
 8002ee6:	4770      	bx	lr

08002ee8 <_fini>:
 8002ee8:	b5f8      	push	{r3, r4, r5, r6, r7, lr}
 8002eea:	46c0      	nop			@ (mov r8, r8)
 8002eec:	bcf8      	pop	{r3, r4, r5, r6, r7}
 8002eee:	bc08      	pop	{r3}
 8002ef0:	469e      	mov	lr, r3
 8002ef2:	4770      	bx	lr
