ARM GAS  /var/folders/3q/0p8b__hx1wx8zj8b56q9glhc0000gn/T//ccvq2Z15.s 			page 1


   1              		.cpu cortex-m0plus
   2              		.arch armv6s-m
   3              		.fpu softvfp
   4              		.eabi_attribute 20, 1
   5              		.eabi_attribute 21, 1
   6              		.eabi_attribute 23, 3
   7              		.eabi_attribute 24, 1
   8              		.eabi_attribute 25, 1
   9              		.eabi_attribute 26, 1
  10              		.eabi_attribute 30, 1
  11              		.eabi_attribute 34, 0
  12              		.eabi_attribute 18, 4
  13              		.file	"stm32c0xx_hal_dma_ex.c"
  14              		.text
  15              		.section	.text.HAL_DMAEx_ConfigMuxSync,"ax",%progbits
  16              		.align	1
  17              		.global	HAL_DMAEx_ConfigMuxSync
  18              		.syntax unified
  19              		.code	16
  20              		.thumb_func
  22              	HAL_DMAEx_ConfigMuxSync:
  23              		@ args = 0, pretend = 0, frame = 0
  24              		@ frame_needed = 0, uses_anonymous_args = 0
  25 0000 70B5     		push	{r4, r5, r6, lr}
  26 0002 2523     		movs	r3, #37
  27 0004 C35C     		ldrb	r3, [r0, r3]
  28 0006 012B     		cmp	r3, #1
  29 0008 1ED1     		bne	.L3
  30 000a 2333     		adds	r3, r3, #35
  31 000c C35C     		ldrb	r3, [r0, r3]
  32 000e 012B     		cmp	r3, #1
  33 0010 1CD0     		beq	.L4
  34 0012 2425     		movs	r5, #36
  35 0014 0123     		movs	r3, #1
  36 0016 4355     		strb	r3, [r0, r5]
  37 0018 466C     		ldr	r6, [r0, #68]
  38 001a 3368     		ldr	r3, [r6]
  39 001c FF22     		movs	r2, #255
  40 001e 1A40     		ands	r2, r3
  41 0020 0B68     		ldr	r3, [r1]
  42 0022 1B06     		lsls	r3, r3, #24
  43 0024 CC68     		ldr	r4, [r1, #12]
  44 0026 013C     		subs	r4, r4, #1
  45 0028 E404     		lsls	r4, r4, #19
  46 002a 2343     		orrs	r3, r4
  47 002c 4C68     		ldr	r4, [r1, #4]
  48 002e 2343     		orrs	r3, r4
  49 0030 0C7A     		ldrb	r4, [r1, #8]
  50 0032 2404     		lsls	r4, r4, #16
  51 0034 2343     		orrs	r3, r4
  52 0036 497A     		ldrb	r1, [r1, #9]
  53 0038 4902     		lsls	r1, r1, #9
  54 003a 0B43     		orrs	r3, r1
  55 003c 1A43     		orrs	r2, r3
  56 003e 3260     		str	r2, [r6]
  57 0040 0023     		movs	r3, #0
  58 0042 4355     		strb	r3, [r0, r5]
ARM GAS  /var/folders/3q/0p8b__hx1wx8zj8b56q9glhc0000gn/T//ccvq2Z15.s 			page 2


  59 0044 0020     		movs	r0, #0
  60 0046 00E0     		b	.L2
  61              	.L3:
  62 0048 0120     		movs	r0, #1
  63              	.L2:
  64              		@ sp needed
  65 004a 70BD     		pop	{r4, r5, r6, pc}
  66              	.L4:
  67 004c 0220     		movs	r0, #2
  68 004e FCE7     		b	.L2
  70              		.section	.text.HAL_DMAEx_ConfigMuxRequestGenerator,"ax",%progbits
  71              		.align	1
  72              		.global	HAL_DMAEx_ConfigMuxRequestGenerator
  73              		.syntax unified
  74              		.code	16
  75              		.thumb_func
  77              	HAL_DMAEx_ConfigMuxRequestGenerator:
  78              		@ args = 0, pretend = 0, frame = 0
  79              		@ frame_needed = 0, uses_anonymous_args = 0
  80 0000 30B5     		push	{r4, r5, lr}
  81 0002 0300     		movs	r3, r0
  82 0004 2522     		movs	r2, #37
  83 0006 825C     		ldrb	r2, [r0, r2]
  84 0008 D0B2     		uxtb	r0, r2
  85 000a 012A     		cmp	r2, #1
  86 000c 15D1     		bne	.L7
  87 000e 1C6D     		ldr	r4, [r3, #80]
  88 0010 002C     		cmp	r4, #0
  89 0012 13D0     		beq	.L6
  90 0014 2332     		adds	r2, r2, #35
  91 0016 9A5C     		ldrb	r2, [r3, r2]
  92 0018 012A     		cmp	r2, #1
  93 001a 10D0     		beq	.L8
  94 001c 2425     		movs	r5, #36
  95 001e 0122     		movs	r2, #1
  96 0020 5A55     		strb	r2, [r3, r5]
  97 0022 0A68     		ldr	r2, [r1]
  98 0024 8868     		ldr	r0, [r1, #8]
  99 0026 0138     		subs	r0, r0, #1
 100 0028 C004     		lsls	r0, r0, #19
 101 002a 0243     		orrs	r2, r0
 102 002c 4968     		ldr	r1, [r1, #4]
 103 002e 0A43     		orrs	r2, r1
 104 0030 2260     		str	r2, [r4]
 105 0032 0022     		movs	r2, #0
 106 0034 5A55     		strb	r2, [r3, r5]
 107 0036 0020     		movs	r0, #0
 108 0038 00E0     		b	.L6
 109              	.L7:
 110 003a 0120     		movs	r0, #1
 111              	.L6:
 112              		@ sp needed
 113 003c 30BD     		pop	{r4, r5, pc}
 114              	.L8:
 115 003e 0220     		movs	r0, #2
 116 0040 FCE7     		b	.L6
 118              		.section	.text.HAL_DMAEx_EnableMuxRequestGenerator,"ax",%progbits
ARM GAS  /var/folders/3q/0p8b__hx1wx8zj8b56q9glhc0000gn/T//ccvq2Z15.s 			page 3


 119              		.align	1
 120              		.global	HAL_DMAEx_EnableMuxRequestGenerator
 121              		.syntax unified
 122              		.code	16
 123              		.thumb_func
 125              	HAL_DMAEx_EnableMuxRequestGenerator:
 126              		@ args = 0, pretend = 0, frame = 0
 127              		@ frame_needed = 0, uses_anonymous_args = 0
 128              		@ link register save eliminated.
 129 0000 2523     		movs	r3, #37
 130 0002 C35C     		ldrb	r3, [r0, r3]
 131 0004 002B     		cmp	r3, #0
 132 0006 09D0     		beq	.L11
 133 0008 036D     		ldr	r3, [r0, #80]
 134 000a 002B     		cmp	r3, #0
 135 000c 08D0     		beq	.L12
 136 000e 1968     		ldr	r1, [r3]
 137 0010 8022     		movs	r2, #128
 138 0012 5202     		lsls	r2, r2, #9
 139 0014 0A43     		orrs	r2, r1
 140 0016 1A60     		str	r2, [r3]
 141 0018 0020     		movs	r0, #0
 142              	.L10:
 143              		@ sp needed
 144 001a 7047     		bx	lr
 145              	.L11:
 146 001c 0120     		movs	r0, #1
 147 001e FCE7     		b	.L10
 148              	.L12:
 149 0020 0120     		movs	r0, #1
 150 0022 FAE7     		b	.L10
 152              		.section	.text.HAL_DMAEx_DisableMuxRequestGenerator,"ax",%progbits
 153              		.align	1
 154              		.global	HAL_DMAEx_DisableMuxRequestGenerator
 155              		.syntax unified
 156              		.code	16
 157              		.thumb_func
 159              	HAL_DMAEx_DisableMuxRequestGenerator:
 160              		@ args = 0, pretend = 0, frame = 0
 161              		@ frame_needed = 0, uses_anonymous_args = 0
 162              		@ link register save eliminated.
 163 0000 2523     		movs	r3, #37
 164 0002 C35C     		ldrb	r3, [r0, r3]
 165 0004 002B     		cmp	r3, #0
 166 0006 08D0     		beq	.L15
 167 0008 036D     		ldr	r3, [r0, #80]
 168 000a 002B     		cmp	r3, #0
 169 000c 07D0     		beq	.L16
 170 000e 1A68     		ldr	r2, [r3]
 171 0010 0449     		ldr	r1, .L17
 172 0012 0A40     		ands	r2, r1
 173 0014 1A60     		str	r2, [r3]
 174 0016 0020     		movs	r0, #0
 175              	.L14:
 176              		@ sp needed
 177 0018 7047     		bx	lr
 178              	.L15:
ARM GAS  /var/folders/3q/0p8b__hx1wx8zj8b56q9glhc0000gn/T//ccvq2Z15.s 			page 4


 179 001a 0120     		movs	r0, #1
 180 001c FCE7     		b	.L14
 181              	.L16:
 182 001e 0120     		movs	r0, #1
 183 0020 FAE7     		b	.L14
 184              	.L18:
 185 0022 C046     		.align	2
 186              	.L17:
 187 0024 FFFFFEFF 		.word	-65537
 189              		.section	.text.HAL_DMAEx_MUX_IRQHandler,"ax",%progbits
 190              		.align	1
 191              		.global	HAL_DMAEx_MUX_IRQHandler
 192              		.syntax unified
 193              		.code	16
 194              		.thumb_func
 196              	HAL_DMAEx_MUX_IRQHandler:
 197              		@ args = 0, pretend = 0, frame = 0
 198              		@ frame_needed = 0, uses_anonymous_args = 0
 199 0000 10B5     		push	{r4, lr}
 200 0002 0400     		movs	r4, r0
 201 0004 836C     		ldr	r3, [r0, #72]
 202 0006 1B68     		ldr	r3, [r3]
 203 0008 C26C     		ldr	r2, [r0, #76]
 204 000a 1A42     		tst	r2, r3
 205 000c 10D0     		beq	.L20
 206 000e 426C     		ldr	r2, [r0, #68]
 207 0010 1368     		ldr	r3, [r2]
 208 0012 1449     		ldr	r1, .L22
 209 0014 0B40     		ands	r3, r1
 210 0016 1360     		str	r3, [r2]
 211 0018 836C     		ldr	r3, [r0, #72]
 212 001a C26C     		ldr	r2, [r0, #76]
 213 001c 5A60     		str	r2, [r3, #4]
 214 001e C26B     		ldr	r2, [r0, #60]
 215 0020 8023     		movs	r3, #128
 216 0022 9B00     		lsls	r3, r3, #2
 217 0024 1343     		orrs	r3, r2
 218 0026 C363     		str	r3, [r0, #60]
 219 0028 436B     		ldr	r3, [r0, #52]
 220 002a 002B     		cmp	r3, #0
 221 002c 00D0     		beq	.L20
 222 002e 9847     		blx	r3
 223              	.L20:
 224 0030 236D     		ldr	r3, [r4, #80]
 225 0032 002B     		cmp	r3, #0
 226 0034 15D0     		beq	.L19
 227 0036 626D     		ldr	r2, [r4, #84]
 228 0038 1268     		ldr	r2, [r2]
 229 003a A16D     		ldr	r1, [r4, #88]
 230 003c 1142     		tst	r1, r2
 231 003e 10D0     		beq	.L19
 232 0040 1A68     		ldr	r2, [r3]
 233 0042 0849     		ldr	r1, .L22
 234 0044 0A40     		ands	r2, r1
 235 0046 1A60     		str	r2, [r3]
 236 0048 636D     		ldr	r3, [r4, #84]
 237 004a A26D     		ldr	r2, [r4, #88]
ARM GAS  /var/folders/3q/0p8b__hx1wx8zj8b56q9glhc0000gn/T//ccvq2Z15.s 			page 5


 238 004c 5A60     		str	r2, [r3, #4]
 239 004e E26B     		ldr	r2, [r4, #60]
 240 0050 8023     		movs	r3, #128
 241 0052 DB00     		lsls	r3, r3, #3
 242 0054 1343     		orrs	r3, r2
 243 0056 E363     		str	r3, [r4, #60]
 244 0058 636B     		ldr	r3, [r4, #52]
 245 005a 002B     		cmp	r3, #0
 246 005c 01D0     		beq	.L19
 247 005e 2000     		movs	r0, r4
 248 0060 9847     		blx	r3
 249              	.L19:
 250              		@ sp needed
 251 0062 10BD     		pop	{r4, pc}
 252              	.L23:
 253              		.align	2
 254              	.L22:
 255 0064 FFFEFFFF 		.word	-257
 257              		.ident	"GCC: (xPack GNU Arm Embedded GCC arm64) 14.2.1 20241119"
ARM GAS  /var/folders/3q/0p8b__hx1wx8zj8b56q9glhc0000gn/T//ccvq2Z15.s 			page 6

