ARM GAS  /var/folders/3q/0p8b__hx1wx8zj8b56q9glhc0000gn/T//ccWFpT72.s 			page 1


   1              		.cpu cortex-m0plus
   2              		.arch armv6s-m
   3              		.fpu softvfp
   4              		.eabi_attribute 20, 1
   5              		.eabi_attribute 21, 1
   6              		.eabi_attribute 23, 3
   7              		.eabi_attribute 24, 1
   8              		.eabi_attribute 25, 1
   9              		.eabi_attribute 26, 1
  10              		.eabi_attribute 30, 1
  11              		.eabi_attribute 34, 0
  12              		.eabi_attribute 18, 4
  13              		.file	"stm32c0xx_hal_uart.c"
  14              		.text
  15              		.section	.text.UART_EndTxTransfer,"ax",%progbits
  16              		.align	1
  17              		.syntax unified
  18              		.code	16
  19              		.thumb_func
  21              	UART_EndTxTransfer:
  22              		@ args = 0, pretend = 0, frame = 0
  23              		@ frame_needed = 0, uses_anonymous_args = 0
  24 0000 30B5     		push	{r4, r5, lr}
  25              		.syntax divided
  26              	@ 1208 "Drivers/CMSIS/Include/cmsis_gcc.h" 1
  27 0002 EFF31084 		MRS r4, primask
  28              	@ 0 "" 2
  29              		.thumb
  30              		.syntax unified
  31 0006 0122     		movs	r2, #1
  32              		.syntax divided
  33              	@ 1236 "Drivers/CMSIS/Include/cmsis_gcc.h" 1
  34 0008 82F31088 		MSR primask, r2
  35              	@ 0 "" 2
  36              		.thumb
  37              		.syntax unified
  38 000c 0168     		ldr	r1, [r0]
  39 000e 0B68     		ldr	r3, [r1]
  40 0010 C025     		movs	r5, #192
  41 0012 AB43     		bics	r3, r5
  42 0014 0B60     		str	r3, [r1]
  43              		.syntax divided
  44              	@ 1236 "Drivers/CMSIS/Include/cmsis_gcc.h" 1
  45 0016 84F31088 		MSR primask, r4
  46              	@ 0 "" 2
  47              	@ 1208 "Drivers/CMSIS/Include/cmsis_gcc.h" 1
  48 001a EFF31081 		MRS r1, primask
  49              	@ 0 "" 2
  50              	@ 1236 "Drivers/CMSIS/Include/cmsis_gcc.h" 1
  51 001e 82F31088 		MSR primask, r2
  52              	@ 0 "" 2
  53              		.thumb
  54              		.syntax unified
  55 0022 0268     		ldr	r2, [r0]
  56 0024 9368     		ldr	r3, [r2, #8]
  57 0026 044C     		ldr	r4, .L2
  58 0028 2340     		ands	r3, r4
ARM GAS  /var/folders/3q/0p8b__hx1wx8zj8b56q9glhc0000gn/T//ccWFpT72.s 			page 2


  59 002a 9360     		str	r3, [r2, #8]
  60              		.syntax divided
  61              	@ 1236 "Drivers/CMSIS/Include/cmsis_gcc.h" 1
  62 002c 81F31088 		MSR primask, r1
  63              	@ 0 "" 2
  64              		.thumb
  65              		.syntax unified
  66 0030 8823     		movs	r3, #136
  67 0032 2022     		movs	r2, #32
  68 0034 C250     		str	r2, [r0, r3]
  69              		@ sp needed
  70 0036 30BD     		pop	{r4, r5, pc}
  71              	.L3:
  72              		.align	2
  73              	.L2:
  74 0038 FFFF7FFF 		.word	-8388609
  76              		.section	.text.UART_EndRxTransfer,"ax",%progbits
  77              		.align	1
  78              		.syntax unified
  79              		.code	16
  80              		.thumb_func
  82              	UART_EndRxTransfer:
  83              		@ args = 0, pretend = 0, frame = 0
  84              		@ frame_needed = 0, uses_anonymous_args = 0
  85 0000 30B5     		push	{r4, r5, lr}
  86              		.syntax divided
  87              	@ 1208 "Drivers/CMSIS/Include/cmsis_gcc.h" 1
  88 0002 EFF31084 		MRS r4, primask
  89              	@ 0 "" 2
  90              		.thumb
  91              		.syntax unified
  92 0006 0122     		movs	r2, #1
  93              		.syntax divided
  94              	@ 1236 "Drivers/CMSIS/Include/cmsis_gcc.h" 1
  95 0008 82F31088 		MSR primask, r2
  96              	@ 0 "" 2
  97              		.thumb
  98              		.syntax unified
  99 000c 0168     		ldr	r1, [r0]
 100 000e 0B68     		ldr	r3, [r1]
 101 0010 124D     		ldr	r5, .L7
 102 0012 2B40     		ands	r3, r5
 103 0014 0B60     		str	r3, [r1]
 104              		.syntax divided
 105              	@ 1236 "Drivers/CMSIS/Include/cmsis_gcc.h" 1
 106 0016 84F31088 		MSR primask, r4
 107              	@ 0 "" 2
 108              	@ 1208 "Drivers/CMSIS/Include/cmsis_gcc.h" 1
 109 001a EFF31081 		MRS r1, primask
 110              	@ 0 "" 2
 111              	@ 1236 "Drivers/CMSIS/Include/cmsis_gcc.h" 1
 112 001e 82F31088 		MSR primask, r2
 113              	@ 0 "" 2
 114              		.thumb
 115              		.syntax unified
 116 0022 0268     		ldr	r2, [r0]
 117 0024 9368     		ldr	r3, [r2, #8]
ARM GAS  /var/folders/3q/0p8b__hx1wx8zj8b56q9glhc0000gn/T//ccWFpT72.s 			page 3


 118 0026 0E4C     		ldr	r4, .L7+4
 119 0028 2340     		ands	r3, r4
 120 002a 9360     		str	r3, [r2, #8]
 121              		.syntax divided
 122              	@ 1236 "Drivers/CMSIS/Include/cmsis_gcc.h" 1
 123 002c 81F31088 		MSR primask, r1
 124              	@ 0 "" 2
 125              		.thumb
 126              		.syntax unified
 127 0030 C36E     		ldr	r3, [r0, #108]
 128 0032 012B     		cmp	r3, #1
 129 0034 06D0     		beq	.L6
 130              	.L5:
 131 0036 8C23     		movs	r3, #140
 132 0038 2022     		movs	r2, #32
 133 003a C250     		str	r2, [r0, r3]
 134 003c 0023     		movs	r3, #0
 135 003e C366     		str	r3, [r0, #108]
 136 0040 4367     		str	r3, [r0, #116]
 137              		@ sp needed
 138 0042 30BD     		pop	{r4, r5, pc}
 139              	.L6:
 140              		.syntax divided
 141              	@ 1208 "Drivers/CMSIS/Include/cmsis_gcc.h" 1
 142 0044 EFF31081 		MRS r1, primask
 143              	@ 0 "" 2
 144              	@ 1236 "Drivers/CMSIS/Include/cmsis_gcc.h" 1
 145 0048 83F31088 		MSR primask, r3
 146              	@ 0 "" 2
 147              		.thumb
 148              		.syntax unified
 149 004c 0268     		ldr	r2, [r0]
 150 004e 1368     		ldr	r3, [r2]
 151 0050 1024     		movs	r4, #16
 152 0052 A343     		bics	r3, r4
 153 0054 1360     		str	r3, [r2]
 154              		.syntax divided
 155              	@ 1236 "Drivers/CMSIS/Include/cmsis_gcc.h" 1
 156 0056 81F31088 		MSR primask, r1
 157              	@ 0 "" 2
 158              		.thumb
 159              		.syntax unified
 160 005a ECE7     		b	.L5
 161              	.L8:
 162              		.align	2
 163              	.L7:
 164 005c DFFEFFFF 		.word	-289
 165 0060 FEFFFFEF 		.word	-268435458
 167              		.section	.text.UART_TxISR_8BIT,"ax",%progbits
 168              		.align	1
 169              		.syntax unified
 170              		.code	16
 171              		.thumb_func
 173              	UART_TxISR_8BIT:
 174              		@ args = 0, pretend = 0, frame = 0
 175              		@ frame_needed = 0, uses_anonymous_args = 0
 176 0000 10B5     		push	{r4, lr}
ARM GAS  /var/folders/3q/0p8b__hx1wx8zj8b56q9glhc0000gn/T//ccWFpT72.s 			page 4


 177 0002 8823     		movs	r3, #136
 178 0004 C358     		ldr	r3, [r0, r3]
 179 0006 212B     		cmp	r3, #33
 180 0008 00D0     		beq	.L12
 181              	.L9:
 182              		@ sp needed
 183 000a 10BD     		pop	{r4, pc}
 184              	.L12:
 185 000c 3533     		adds	r3, r3, #53
 186 000e C35A     		ldrh	r3, [r0, r3]
 187 0010 002B     		cmp	r3, #0
 188 0012 17D1     		bne	.L11
 189              		.syntax divided
 190              	@ 1208 "Drivers/CMSIS/Include/cmsis_gcc.h" 1
 191 0014 EFF3108C 		MRS ip, primask
 192              	@ 0 "" 2
 193              		.thumb
 194              		.syntax unified
 195 0018 0122     		movs	r2, #1
 196              		.syntax divided
 197              	@ 1236 "Drivers/CMSIS/Include/cmsis_gcc.h" 1
 198 001a 82F31088 		MSR primask, r2
 199              	@ 0 "" 2
 200              		.thumb
 201              		.syntax unified
 202 001e 0168     		ldr	r1, [r0]
 203 0020 0B68     		ldr	r3, [r1]
 204 0022 8024     		movs	r4, #128
 205 0024 A343     		bics	r3, r4
 206 0026 0B60     		str	r3, [r1]
 207              		.syntax divided
 208              	@ 1236 "Drivers/CMSIS/Include/cmsis_gcc.h" 1
 209 0028 8CF31088 		MSR primask, ip
 210              	@ 0 "" 2
 211              	@ 1208 "Drivers/CMSIS/Include/cmsis_gcc.h" 1
 212 002c EFF31081 		MRS r1, primask
 213              	@ 0 "" 2
 214              	@ 1236 "Drivers/CMSIS/Include/cmsis_gcc.h" 1
 215 0030 82F31088 		MSR primask, r2
 216              	@ 0 "" 2
 217              		.thumb
 218              		.syntax unified
 219 0034 0268     		ldr	r2, [r0]
 220 0036 1368     		ldr	r3, [r2]
 221 0038 4020     		movs	r0, #64
 222 003a 0343     		orrs	r3, r0
 223 003c 1360     		str	r3, [r2]
 224              		.syntax divided
 225              	@ 1236 "Drivers/CMSIS/Include/cmsis_gcc.h" 1
 226 003e 81F31088 		MSR primask, r1
 227              	@ 0 "" 2
 228              		.thumb
 229              		.syntax unified
 230 0042 E2E7     		b	.L9
 231              	.L11:
 232 0044 036D     		ldr	r3, [r0, #80]
 233 0046 1A78     		ldrb	r2, [r3]
ARM GAS  /var/folders/3q/0p8b__hx1wx8zj8b56q9glhc0000gn/T//ccWFpT72.s 			page 5


 234 0048 0368     		ldr	r3, [r0]
 235 004a 9A62     		str	r2, [r3, #40]
 236 004c 036D     		ldr	r3, [r0, #80]
 237 004e 0133     		adds	r3, r3, #1
 238 0050 0365     		str	r3, [r0, #80]
 239 0052 5622     		movs	r2, #86
 240 0054 835A     		ldrh	r3, [r0, r2]
 241 0056 013B     		subs	r3, r3, #1
 242 0058 9BB2     		uxth	r3, r3
 243 005a 8352     		strh	r3, [r0, r2]
 244 005c D5E7     		b	.L9
 246              		.section	.text.UART_TxISR_16BIT,"ax",%progbits
 247              		.align	1
 248              		.syntax unified
 249              		.code	16
 250              		.thumb_func
 252              	UART_TxISR_16BIT:
 253              		@ args = 0, pretend = 0, frame = 0
 254              		@ frame_needed = 0, uses_anonymous_args = 0
 255 0000 10B5     		push	{r4, lr}
 256 0002 8823     		movs	r3, #136
 257 0004 C358     		ldr	r3, [r0, r3]
 258 0006 212B     		cmp	r3, #33
 259 0008 00D0     		beq	.L16
 260              	.L13:
 261              		@ sp needed
 262 000a 10BD     		pop	{r4, pc}
 263              	.L16:
 264 000c 3533     		adds	r3, r3, #53
 265 000e C35A     		ldrh	r3, [r0, r3]
 266 0010 002B     		cmp	r3, #0
 267 0012 17D1     		bne	.L15
 268              		.syntax divided
 269              	@ 1208 "Drivers/CMSIS/Include/cmsis_gcc.h" 1
 270 0014 EFF3108C 		MRS ip, primask
 271              	@ 0 "" 2
 272              		.thumb
 273              		.syntax unified
 274 0018 0122     		movs	r2, #1
 275              		.syntax divided
 276              	@ 1236 "Drivers/CMSIS/Include/cmsis_gcc.h" 1
 277 001a 82F31088 		MSR primask, r2
 278              	@ 0 "" 2
 279              		.thumb
 280              		.syntax unified
 281 001e 0168     		ldr	r1, [r0]
 282 0020 0B68     		ldr	r3, [r1]
 283 0022 8024     		movs	r4, #128
 284 0024 A343     		bics	r3, r4
 285 0026 0B60     		str	r3, [r1]
 286              		.syntax divided
 287              	@ 1236 "Drivers/CMSIS/Include/cmsis_gcc.h" 1
 288 0028 8CF31088 		MSR primask, ip
 289              	@ 0 "" 2
 290              	@ 1208 "Drivers/CMSIS/Include/cmsis_gcc.h" 1
 291 002c EFF31081 		MRS r1, primask
 292              	@ 0 "" 2
ARM GAS  /var/folders/3q/0p8b__hx1wx8zj8b56q9glhc0000gn/T//ccWFpT72.s 			page 6


 293              	@ 1236 "Drivers/CMSIS/Include/cmsis_gcc.h" 1
 294 0030 82F31088 		MSR primask, r2
 295              	@ 0 "" 2
 296              		.thumb
 297              		.syntax unified
 298 0034 0268     		ldr	r2, [r0]
 299 0036 1368     		ldr	r3, [r2]
 300 0038 4020     		movs	r0, #64
 301 003a 0343     		orrs	r3, r0
 302 003c 1360     		str	r3, [r2]
 303              		.syntax divided
 304              	@ 1236 "Drivers/CMSIS/Include/cmsis_gcc.h" 1
 305 003e 81F31088 		MSR primask, r1
 306              	@ 0 "" 2
 307              		.thumb
 308              		.syntax unified
 309 0042 E2E7     		b	.L13
 310              	.L15:
 311 0044 036D     		ldr	r3, [r0, #80]
 312 0046 1B88     		ldrh	r3, [r3]
 313 0048 0268     		ldr	r2, [r0]
 314 004a DB05     		lsls	r3, r3, #23
 315 004c DB0D     		lsrs	r3, r3, #23
 316 004e 9362     		str	r3, [r2, #40]
 317 0050 036D     		ldr	r3, [r0, #80]
 318 0052 0233     		adds	r3, r3, #2
 319 0054 0365     		str	r3, [r0, #80]
 320 0056 5622     		movs	r2, #86
 321 0058 835A     		ldrh	r3, [r0, r2]
 322 005a 013B     		subs	r3, r3, #1
 323 005c 9BB2     		uxth	r3, r3
 324 005e 8352     		strh	r3, [r0, r2]
 325 0060 D3E7     		b	.L13
 327              		.section	.text.UART_TxISR_8BIT_FIFOEN,"ax",%progbits
 328              		.align	1
 329              		.syntax unified
 330              		.code	16
 331              		.thumb_func
 333              	UART_TxISR_8BIT_FIFOEN:
 334              		@ args = 0, pretend = 0, frame = 0
 335              		@ frame_needed = 0, uses_anonymous_args = 0
 336 0000 10B5     		push	{r4, lr}
 337 0002 8823     		movs	r3, #136
 338 0004 C358     		ldr	r3, [r0, r3]
 339 0006 212B     		cmp	r3, #33
 340 0008 00D0     		beq	.L24
 341              	.L17:
 342              		@ sp needed
 343 000a 10BD     		pop	{r4, pc}
 344              	.L24:
 345 000c 4933     		adds	r3, r3, #73
 346 000e C35A     		ldrh	r3, [r0, r3]
 347 0010 19E0     		b	.L19
 348              	.L25:
 349              		.syntax divided
 350              	@ 1208 "Drivers/CMSIS/Include/cmsis_gcc.h" 1
 351 0012 EFF3108C 		MRS ip, primask
ARM GAS  /var/folders/3q/0p8b__hx1wx8zj8b56q9glhc0000gn/T//ccWFpT72.s 			page 7


 352              	@ 0 "" 2
 353              		.thumb
 354              		.syntax unified
 355 0016 0132     		adds	r2, r2, #1
 356              		.syntax divided
 357              	@ 1236 "Drivers/CMSIS/Include/cmsis_gcc.h" 1
 358 0018 82F31088 		MSR primask, r2
 359              	@ 0 "" 2
 360              		.thumb
 361              		.syntax unified
 362 001c 0168     		ldr	r1, [r0]
 363 001e 8B68     		ldr	r3, [r1, #8]
 364 0020 144C     		ldr	r4, .L26
 365 0022 2340     		ands	r3, r4
 366 0024 8B60     		str	r3, [r1, #8]
 367              		.syntax divided
 368              	@ 1236 "Drivers/CMSIS/Include/cmsis_gcc.h" 1
 369 0026 8CF31088 		MSR primask, ip
 370              	@ 0 "" 2
 371              	@ 1208 "Drivers/CMSIS/Include/cmsis_gcc.h" 1
 372 002a EFF31081 		MRS r1, primask
 373              	@ 0 "" 2
 374              	@ 1236 "Drivers/CMSIS/Include/cmsis_gcc.h" 1
 375 002e 82F31088 		MSR primask, r2
 376              	@ 0 "" 2
 377              		.thumb
 378              		.syntax unified
 379 0032 0268     		ldr	r2, [r0]
 380 0034 1368     		ldr	r3, [r2]
 381 0036 4020     		movs	r0, #64
 382 0038 0343     		orrs	r3, r0
 383 003a 1360     		str	r3, [r2]
 384              		.syntax divided
 385              	@ 1236 "Drivers/CMSIS/Include/cmsis_gcc.h" 1
 386 003c 81F31088 		MSR primask, r1
 387              	@ 0 "" 2
 388              		.thumb
 389              		.syntax unified
 390 0040 E3E7     		b	.L17
 391              	.L21:
 392 0042 013B     		subs	r3, r3, #1
 393 0044 9BB2     		uxth	r3, r3
 394              	.L19:
 395 0046 002B     		cmp	r3, #0
 396 0048 DFD0     		beq	.L17
 397 004a 5622     		movs	r2, #86
 398 004c 825A     		ldrh	r2, [r0, r2]
 399 004e 002A     		cmp	r2, #0
 400 0050 DFD0     		beq	.L25
 401 0052 0168     		ldr	r1, [r0]
 402 0054 CA69     		ldr	r2, [r1, #28]
 403 0056 1206     		lsls	r2, r2, #24
 404 0058 F3D5     		bpl	.L21
 405 005a 026D     		ldr	r2, [r0, #80]
 406 005c 1278     		ldrb	r2, [r2]
 407 005e 8A62     		str	r2, [r1, #40]
 408 0060 026D     		ldr	r2, [r0, #80]
ARM GAS  /var/folders/3q/0p8b__hx1wx8zj8b56q9glhc0000gn/T//ccWFpT72.s 			page 8


 409 0062 0132     		adds	r2, r2, #1
 410 0064 0265     		str	r2, [r0, #80]
 411 0066 5621     		movs	r1, #86
 412 0068 425A     		ldrh	r2, [r0, r1]
 413 006a 013A     		subs	r2, r2, #1
 414 006c 92B2     		uxth	r2, r2
 415 006e 4252     		strh	r2, [r0, r1]
 416 0070 E7E7     		b	.L21
 417              	.L27:
 418 0072 C046     		.align	2
 419              	.L26:
 420 0074 FFFF7FFF 		.word	-8388609
 422              		.section	.text.UART_TxISR_16BIT_FIFOEN,"ax",%progbits
 423              		.align	1
 424              		.syntax unified
 425              		.code	16
 426              		.thumb_func
 428              	UART_TxISR_16BIT_FIFOEN:
 429              		@ args = 0, pretend = 0, frame = 0
 430              		@ frame_needed = 0, uses_anonymous_args = 0
 431 0000 10B5     		push	{r4, lr}
 432 0002 8823     		movs	r3, #136
 433 0004 C358     		ldr	r3, [r0, r3]
 434 0006 212B     		cmp	r3, #33
 435 0008 00D0     		beq	.L35
 436              	.L28:
 437              		@ sp needed
 438 000a 10BD     		pop	{r4, pc}
 439              	.L35:
 440 000c 4933     		adds	r3, r3, #73
 441 000e C35A     		ldrh	r3, [r0, r3]
 442 0010 19E0     		b	.L30
 443              	.L36:
 444              		.syntax divided
 445              	@ 1208 "Drivers/CMSIS/Include/cmsis_gcc.h" 1
 446 0012 EFF3108C 		MRS ip, primask
 447              	@ 0 "" 2
 448              		.thumb
 449              		.syntax unified
 450 0016 0132     		adds	r2, r2, #1
 451              		.syntax divided
 452              	@ 1236 "Drivers/CMSIS/Include/cmsis_gcc.h" 1
 453 0018 82F31088 		MSR primask, r2
 454              	@ 0 "" 2
 455              		.thumb
 456              		.syntax unified
 457 001c 0168     		ldr	r1, [r0]
 458 001e 8B68     		ldr	r3, [r1, #8]
 459 0020 154C     		ldr	r4, .L37
 460 0022 2340     		ands	r3, r4
 461 0024 8B60     		str	r3, [r1, #8]
 462              		.syntax divided
 463              	@ 1236 "Drivers/CMSIS/Include/cmsis_gcc.h" 1
 464 0026 8CF31088 		MSR primask, ip
 465              	@ 0 "" 2
 466              	@ 1208 "Drivers/CMSIS/Include/cmsis_gcc.h" 1
 467 002a EFF31081 		MRS r1, primask
ARM GAS  /var/folders/3q/0p8b__hx1wx8zj8b56q9glhc0000gn/T//ccWFpT72.s 			page 9


 468              	@ 0 "" 2
 469              	@ 1236 "Drivers/CMSIS/Include/cmsis_gcc.h" 1
 470 002e 82F31088 		MSR primask, r2
 471              	@ 0 "" 2
 472              		.thumb
 473              		.syntax unified
 474 0032 0268     		ldr	r2, [r0]
 475 0034 1368     		ldr	r3, [r2]
 476 0036 4020     		movs	r0, #64
 477 0038 0343     		orrs	r3, r0
 478 003a 1360     		str	r3, [r2]
 479              		.syntax divided
 480              	@ 1236 "Drivers/CMSIS/Include/cmsis_gcc.h" 1
 481 003c 81F31088 		MSR primask, r1
 482              	@ 0 "" 2
 483              		.thumb
 484              		.syntax unified
 485 0040 E3E7     		b	.L28
 486              	.L32:
 487 0042 013B     		subs	r3, r3, #1
 488 0044 9BB2     		uxth	r3, r3
 489              	.L30:
 490 0046 002B     		cmp	r3, #0
 491 0048 DFD0     		beq	.L28
 492 004a 5622     		movs	r2, #86
 493 004c 825A     		ldrh	r2, [r0, r2]
 494 004e 002A     		cmp	r2, #0
 495 0050 DFD0     		beq	.L36
 496 0052 0168     		ldr	r1, [r0]
 497 0054 CA69     		ldr	r2, [r1, #28]
 498 0056 1206     		lsls	r2, r2, #24
 499 0058 F3D5     		bpl	.L32
 500 005a 026D     		ldr	r2, [r0, #80]
 501 005c 1288     		ldrh	r2, [r2]
 502 005e D205     		lsls	r2, r2, #23
 503 0060 D20D     		lsrs	r2, r2, #23
 504 0062 8A62     		str	r2, [r1, #40]
 505 0064 026D     		ldr	r2, [r0, #80]
 506 0066 0232     		adds	r2, r2, #2
 507 0068 0265     		str	r2, [r0, #80]
 508 006a 5621     		movs	r1, #86
 509 006c 425A     		ldrh	r2, [r0, r1]
 510 006e 013A     		subs	r2, r2, #1
 511 0070 92B2     		uxth	r2, r2
 512 0072 4252     		strh	r2, [r0, r1]
 513 0074 E5E7     		b	.L32
 514              	.L38:
 515 0076 C046     		.align	2
 516              	.L37:
 517 0078 FFFF7FFF 		.word	-8388609
 519              		.section	.text.HAL_UART_MspInit,"ax",%progbits
 520              		.align	1
 521              		.weak	HAL_UART_MspInit
 522              		.syntax unified
 523              		.code	16
 524              		.thumb_func
 526              	HAL_UART_MspInit:
ARM GAS  /var/folders/3q/0p8b__hx1wx8zj8b56q9glhc0000gn/T//ccWFpT72.s 			page 10


 527              		@ args = 0, pretend = 0, frame = 0
 528              		@ frame_needed = 0, uses_anonymous_args = 0
 529              		@ link register save eliminated.
 530              		@ sp needed
 531 0000 7047     		bx	lr
 533              		.section	.text.HAL_UART_MspDeInit,"ax",%progbits
 534              		.align	1
 535              		.weak	HAL_UART_MspDeInit
 536              		.syntax unified
 537              		.code	16
 538              		.thumb_func
 540              	HAL_UART_MspDeInit:
 541              		@ args = 0, pretend = 0, frame = 0
 542              		@ frame_needed = 0, uses_anonymous_args = 0
 543              		@ link register save eliminated.
 544              		@ sp needed
 545 0000 7047     		bx	lr
 547              		.section	.text.HAL_UART_DeInit,"ax",%progbits
 548              		.align	1
 549              		.global	HAL_UART_DeInit
 550              		.syntax unified
 551              		.code	16
 552              		.thumb_func
 554              	HAL_UART_DeInit:
 555              		@ args = 0, pretend = 0, frame = 0
 556              		@ frame_needed = 0, uses_anonymous_args = 0
 557 0000 70B5     		push	{r4, r5, r6, lr}
 558 0002 041E     		subs	r4, r0, #0
 559 0004 1BD0     		beq	.L43
 560 0006 8826     		movs	r6, #136
 561 0008 2423     		movs	r3, #36
 562 000a 8351     		str	r3, [r0, r6]
 563 000c 0268     		ldr	r2, [r0]
 564 000e 1368     		ldr	r3, [r2]
 565 0010 0121     		movs	r1, #1
 566 0012 8B43     		bics	r3, r1
 567 0014 1360     		str	r3, [r2]
 568 0016 0368     		ldr	r3, [r0]
 569 0018 0025     		movs	r5, #0
 570 001a 1D60     		str	r5, [r3]
 571 001c 0368     		ldr	r3, [r0]
 572 001e 5D60     		str	r5, [r3, #4]
 573 0020 0368     		ldr	r3, [r0]
 574 0022 9D60     		str	r5, [r3, #8]
 575 0024 FFF7FEFF 		bl	HAL_UART_MspDeInit
 576 0028 9023     		movs	r3, #144
 577 002a E550     		str	r5, [r4, r3]
 578 002c A551     		str	r5, [r4, r6]
 579 002e 043B     		subs	r3, r3, #4
 580 0030 E550     		str	r5, [r4, r3]
 581 0032 E566     		str	r5, [r4, #108]
 582 0034 2567     		str	r5, [r4, #112]
 583 0036 083B     		subs	r3, r3, #8
 584 0038 E554     		strb	r5, [r4, r3]
 585 003a 0020     		movs	r0, #0
 586              	.L42:
 587              		@ sp needed
ARM GAS  /var/folders/3q/0p8b__hx1wx8zj8b56q9glhc0000gn/T//ccWFpT72.s 			page 11


 588 003c 70BD     		pop	{r4, r5, r6, pc}
 589              	.L43:
 590 003e 0120     		movs	r0, #1
 591 0040 FCE7     		b	.L42
 593              		.section	.text.HAL_UART_Transmit_IT,"ax",%progbits
 594              		.align	1
 595              		.global	HAL_UART_Transmit_IT
 596              		.syntax unified
 597              		.code	16
 598              		.thumb_func
 600              	HAL_UART_Transmit_IT:
 601              		@ args = 0, pretend = 0, frame = 0
 602              		@ frame_needed = 0, uses_anonymous_args = 0
 603 0000 10B5     		push	{r4, lr}
 604 0002 8823     		movs	r3, #136
 605 0004 C358     		ldr	r3, [r0, r3]
 606 0006 202B     		cmp	r3, #32
 607 0008 52D1     		bne	.L53
 608 000a 0029     		cmp	r1, #0
 609 000c 52D0     		beq	.L54
 610 000e 002A     		cmp	r2, #0
 611 0010 52D0     		beq	.L55
 612 0012 8368     		ldr	r3, [r0, #8]
 613 0014 8024     		movs	r4, #128
 614 0016 6401     		lsls	r4, r4, #5
 615 0018 A342     		cmp	r3, r4
 616 001a 04D1     		bne	.L46
 617 001c 0469     		ldr	r4, [r0, #16]
 618 001e 002C     		cmp	r4, #0
 619 0020 01D1     		bne	.L46
 620 0022 CC07     		lsls	r4, r1, #31
 621 0024 4AD4     		bmi	.L56
 622              	.L46:
 623 0026 0165     		str	r1, [r0, #80]
 624 0028 5421     		movs	r1, #84
 625 002a 4252     		strh	r2, [r0, r1]
 626 002c 0231     		adds	r1, r1, #2
 627 002e 4252     		strh	r2, [r0, r1]
 628 0030 0022     		movs	r2, #0
 629 0032 8267     		str	r2, [r0, #120]
 630 0034 3A31     		adds	r1, r1, #58
 631 0036 4250     		str	r2, [r0, r1]
 632 0038 8832     		adds	r2, r2, #136
 633 003a 6F39     		subs	r1, r1, #111
 634 003c 8150     		str	r1, [r0, r2]
 635 003e 416E     		ldr	r1, [r0, #100]
 636 0040 8022     		movs	r2, #128
 637 0042 9205     		lsls	r2, r2, #22
 638 0044 9142     		cmp	r1, r2
 639 0046 13D0     		beq	.L57
 640 0048 8022     		movs	r2, #128
 641 004a 5201     		lsls	r2, r2, #5
 642 004c 9342     		cmp	r3, r2
 643 004e 29D0     		beq	.L58
 644              	.L51:
 645 0050 1B4B     		ldr	r3, .L60
 646 0052 8367     		str	r3, [r0, #120]
ARM GAS  /var/folders/3q/0p8b__hx1wx8zj8b56q9glhc0000gn/T//ccWFpT72.s 			page 12


 647              	.L52:
 648              		.syntax divided
 649              	@ 1208 "Drivers/CMSIS/Include/cmsis_gcc.h" 1
 650 0054 EFF31081 		MRS r1, primask
 651              	@ 0 "" 2
 652              		.thumb
 653              		.syntax unified
 654 0058 0123     		movs	r3, #1
 655              		.syntax divided
 656              	@ 1236 "Drivers/CMSIS/Include/cmsis_gcc.h" 1
 657 005a 83F31088 		MSR primask, r3
 658              	@ 0 "" 2
 659              		.thumb
 660              		.syntax unified
 661 005e 0268     		ldr	r2, [r0]
 662 0060 1368     		ldr	r3, [r2]
 663 0062 8020     		movs	r0, #128
 664 0064 0343     		orrs	r3, r0
 665 0066 1360     		str	r3, [r2]
 666              		.syntax divided
 667              	@ 1236 "Drivers/CMSIS/Include/cmsis_gcc.h" 1
 668 0068 81F31088 		MSR primask, r1
 669              	@ 0 "" 2
 670              		.thumb
 671              		.syntax unified
 672              	.L50:
 673 006c 0020     		movs	r0, #0
 674 006e 20E0     		b	.L45
 675              	.L57:
 676 0070 8022     		movs	r2, #128
 677 0072 5201     		lsls	r2, r2, #5
 678 0074 9342     		cmp	r3, r2
 679 0076 0FD0     		beq	.L59
 680              	.L48:
 681 0078 124B     		ldr	r3, .L60+4
 682 007a 8367     		str	r3, [r0, #120]
 683              	.L49:
 684              		.syntax divided
 685              	@ 1208 "Drivers/CMSIS/Include/cmsis_gcc.h" 1
 686 007c EFF31081 		MRS r1, primask
 687              	@ 0 "" 2
 688              		.thumb
 689              		.syntax unified
 690 0080 0123     		movs	r3, #1
 691              		.syntax divided
 692              	@ 1236 "Drivers/CMSIS/Include/cmsis_gcc.h" 1
 693 0082 83F31088 		MSR primask, r3
 694              	@ 0 "" 2
 695              		.thumb
 696              		.syntax unified
 697 0086 0268     		ldr	r2, [r0]
 698 0088 9068     		ldr	r0, [r2, #8]
 699 008a 8023     		movs	r3, #128
 700 008c 1B04     		lsls	r3, r3, #16
 701 008e 0343     		orrs	r3, r0
 702 0090 9360     		str	r3, [r2, #8]
 703              		.syntax divided
ARM GAS  /var/folders/3q/0p8b__hx1wx8zj8b56q9glhc0000gn/T//ccWFpT72.s 			page 13


 704              	@ 1236 "Drivers/CMSIS/Include/cmsis_gcc.h" 1
 705 0092 81F31088 		MSR primask, r1
 706              	@ 0 "" 2
 707              		.thumb
 708              		.syntax unified
 709 0096 E9E7     		b	.L50
 710              	.L59:
 711 0098 0369     		ldr	r3, [r0, #16]
 712 009a 002B     		cmp	r3, #0
 713 009c ECD1     		bne	.L48
 714 009e 0A4B     		ldr	r3, .L60+8
 715 00a0 8367     		str	r3, [r0, #120]
 716 00a2 EBE7     		b	.L49
 717              	.L58:
 718 00a4 0369     		ldr	r3, [r0, #16]
 719 00a6 002B     		cmp	r3, #0
 720 00a8 D2D1     		bne	.L51
 721 00aa 084B     		ldr	r3, .L60+12
 722 00ac 8367     		str	r3, [r0, #120]
 723 00ae D1E7     		b	.L52
 724              	.L53:
 725 00b0 0220     		movs	r0, #2
 726              	.L45:
 727              		@ sp needed
 728 00b2 10BD     		pop	{r4, pc}
 729              	.L54:
 730 00b4 0120     		movs	r0, #1
 731 00b6 FCE7     		b	.L45
 732              	.L55:
 733 00b8 0120     		movs	r0, #1
 734 00ba FAE7     		b	.L45
 735              	.L56:
 736 00bc 0120     		movs	r0, #1
 737 00be F8E7     		b	.L45
 738              	.L61:
 739              		.align	2
 740              	.L60:
 741 00c0 00000000 		.word	UART_TxISR_8BIT
 742 00c4 00000000 		.word	UART_TxISR_8BIT_FIFOEN
 743 00c8 00000000 		.word	UART_TxISR_16BIT_FIFOEN
 744 00cc 00000000 		.word	UART_TxISR_16BIT
 746              		.section	.text.HAL_UART_Transmit_DMA,"ax",%progbits
 747              		.align	1
 748              		.global	HAL_UART_Transmit_DMA
 749              		.syntax unified
 750              		.code	16
 751              		.thumb_func
 753              	HAL_UART_Transmit_DMA:
 754              		@ args = 0, pretend = 0, frame = 0
 755              		@ frame_needed = 0, uses_anonymous_args = 0
 756 0000 10B5     		push	{r4, lr}
 757 0002 0400     		movs	r4, r0
 758 0004 1300     		movs	r3, r2
 759 0006 8822     		movs	r2, #136
 760 0008 8258     		ldr	r2, [r0, r2]
 761 000a 202A     		cmp	r2, #32
 762 000c 49D1     		bne	.L66
ARM GAS  /var/folders/3q/0p8b__hx1wx8zj8b56q9glhc0000gn/T//ccWFpT72.s 			page 14


 763 000e 0029     		cmp	r1, #0
 764 0010 49D0     		beq	.L67
 765 0012 002B     		cmp	r3, #0
 766 0014 49D0     		beq	.L68
 767 0016 8068     		ldr	r0, [r0, #8]
 768 0018 8022     		movs	r2, #128
 769 001a 5201     		lsls	r2, r2, #5
 770 001c 9042     		cmp	r0, r2
 771 001e 28D0     		beq	.L70
 772              	.L64:
 773 0020 2165     		str	r1, [r4, #80]
 774 0022 5422     		movs	r2, #84
 775 0024 A352     		strh	r3, [r4, r2]
 776 0026 0232     		adds	r2, r2, #2
 777 0028 A352     		strh	r3, [r4, r2]
 778 002a 3A32     		adds	r2, r2, #58
 779 002c 0021     		movs	r1, #0
 780 002e A150     		str	r1, [r4, r2]
 781 0030 083A     		subs	r2, r2, #8
 782 0032 2131     		adds	r1, r1, #33
 783 0034 A150     		str	r1, [r4, r2]
 784 0036 E26F     		ldr	r2, [r4, #124]
 785 0038 002A     		cmp	r2, #0
 786 003a 21D0     		beq	.L65
 787 003c 1C49     		ldr	r1, .L71
 788 003e D162     		str	r1, [r2, #44]
 789 0040 E26F     		ldr	r2, [r4, #124]
 790 0042 1C49     		ldr	r1, .L71+4
 791 0044 1163     		str	r1, [r2, #48]
 792 0046 E26F     		ldr	r2, [r4, #124]
 793 0048 1B49     		ldr	r1, .L71+8
 794 004a 5163     		str	r1, [r2, #52]
 795 004c E26F     		ldr	r2, [r4, #124]
 796 004e 0021     		movs	r1, #0
 797 0050 9163     		str	r1, [r2, #56]
 798 0052 216D     		ldr	r1, [r4, #80]
 799 0054 2268     		ldr	r2, [r4]
 800 0056 2832     		adds	r2, r2, #40
 801 0058 E06F     		ldr	r0, [r4, #124]
 802 005a FFF7FEFF 		bl	HAL_DMA_Start_IT
 803 005e 0028     		cmp	r0, #0
 804 0060 0ED0     		beq	.L65
 805 0062 9023     		movs	r3, #144
 806 0064 1022     		movs	r2, #16
 807 0066 E250     		str	r2, [r4, r3]
 808 0068 083B     		subs	r3, r3, #8
 809 006a 1032     		adds	r2, r2, #16
 810 006c E250     		str	r2, [r4, r3]
 811 006e 0120     		movs	r0, #1
 812 0070 18E0     		b	.L63
 813              	.L70:
 814 0072 2269     		ldr	r2, [r4, #16]
 815 0074 002A     		cmp	r2, #0
 816 0076 D3D1     		bne	.L64
 817 0078 CA07     		lsls	r2, r1, #31
 818 007a D1D5     		bpl	.L64
 819 007c 0120     		movs	r0, #1
ARM GAS  /var/folders/3q/0p8b__hx1wx8zj8b56q9glhc0000gn/T//ccWFpT72.s 			page 15


 820 007e 11E0     		b	.L63
 821              	.L65:
 822 0080 2368     		ldr	r3, [r4]
 823 0082 4022     		movs	r2, #64
 824 0084 1A62     		str	r2, [r3, #32]
 825              		.syntax divided
 826              	@ 1208 "Drivers/CMSIS/Include/cmsis_gcc.h" 1
 827 0086 EFF31081 		MRS r1, primask
 828              	@ 0 "" 2
 829              		.thumb
 830              		.syntax unified
 831 008a 0123     		movs	r3, #1
 832              		.syntax divided
 833              	@ 1236 "Drivers/CMSIS/Include/cmsis_gcc.h" 1
 834 008c 83F31088 		MSR primask, r3
 835              	@ 0 "" 2
 836              		.thumb
 837              		.syntax unified
 838 0090 2268     		ldr	r2, [r4]
 839 0092 9368     		ldr	r3, [r2, #8]
 840 0094 8020     		movs	r0, #128
 841 0096 0343     		orrs	r3, r0
 842 0098 9360     		str	r3, [r2, #8]
 843              		.syntax divided
 844              	@ 1236 "Drivers/CMSIS/Include/cmsis_gcc.h" 1
 845 009a 81F31088 		MSR primask, r1
 846              	@ 0 "" 2
 847              		.thumb
 848              		.syntax unified
 849 009e 0020     		movs	r0, #0
 850 00a0 00E0     		b	.L63
 851              	.L66:
 852 00a2 0220     		movs	r0, #2
 853              	.L63:
 854              		@ sp needed
 855 00a4 10BD     		pop	{r4, pc}
 856              	.L67:
 857 00a6 0120     		movs	r0, #1
 858 00a8 FCE7     		b	.L63
 859              	.L68:
 860 00aa 0120     		movs	r0, #1
 861 00ac FAE7     		b	.L63
 862              	.L72:
 863 00ae C046     		.align	2
 864              	.L71:
 865 00b0 00000000 		.word	UART_DMATransmitCplt
 866 00b4 00000000 		.word	UART_DMATxHalfCplt
 867 00b8 00000000 		.word	UART_DMAError
 869              		.section	.text.HAL_UART_DMAPause,"ax",%progbits
 870              		.align	1
 871              		.global	HAL_UART_DMAPause
 872              		.syntax unified
 873              		.code	16
 874              		.thumb_func
 876              	HAL_UART_DMAPause:
 877              		@ args = 0, pretend = 0, frame = 0
 878              		@ frame_needed = 0, uses_anonymous_args = 0
ARM GAS  /var/folders/3q/0p8b__hx1wx8zj8b56q9glhc0000gn/T//ccWFpT72.s 			page 16


 879 0000 30B5     		push	{r4, r5, lr}
 880 0002 8823     		movs	r3, #136
 881 0004 C158     		ldr	r1, [r0, r3]
 882 0006 0433     		adds	r3, r3, #4
 883 0008 C258     		ldr	r2, [r0, r3]
 884 000a 0368     		ldr	r3, [r0]
 885 000c 9B68     		ldr	r3, [r3, #8]
 886 000e 1B06     		lsls	r3, r3, #24
 887 0010 01D5     		bpl	.L74
 888 0012 2129     		cmp	r1, #33
 889 0014 07D0     		beq	.L78
 890              	.L74:
 891 0016 0368     		ldr	r3, [r0]
 892 0018 9B68     		ldr	r3, [r3, #8]
 893 001a 5B06     		lsls	r3, r3, #25
 894 001c 01D5     		bpl	.L75
 895 001e 222A     		cmp	r2, #34
 896 0020 0ED0     		beq	.L79
 897              	.L75:
 898 0022 0020     		movs	r0, #0
 899              		@ sp needed
 900 0024 30BD     		pop	{r4, r5, pc}
 901              	.L78:
 902              		.syntax divided
 903              	@ 1208 "Drivers/CMSIS/Include/cmsis_gcc.h" 1
 904 0026 EFF31084 		MRS r4, primask
 905              	@ 0 "" 2
 906              		.thumb
 907              		.syntax unified
 908 002a 0123     		movs	r3, #1
 909              		.syntax divided
 910              	@ 1236 "Drivers/CMSIS/Include/cmsis_gcc.h" 1
 911 002c 83F31088 		MSR primask, r3
 912              	@ 0 "" 2
 913              		.thumb
 914              		.syntax unified
 915 0030 0168     		ldr	r1, [r0]
 916 0032 8B68     		ldr	r3, [r1, #8]
 917 0034 8025     		movs	r5, #128
 918 0036 AB43     		bics	r3, r5
 919 0038 8B60     		str	r3, [r1, #8]
 920              		.syntax divided
 921              	@ 1236 "Drivers/CMSIS/Include/cmsis_gcc.h" 1
 922 003a 84F31088 		MSR primask, r4
 923              	@ 0 "" 2
 924              		.thumb
 925              		.syntax unified
 926 003e EAE7     		b	.L74
 927              	.L79:
 928              		.syntax divided
 929              	@ 1208 "Drivers/CMSIS/Include/cmsis_gcc.h" 1
 930 0040 EFF3108C 		MRS ip, primask
 931              	@ 0 "" 2
 932              		.thumb
 933              		.syntax unified
 934 0044 0123     		movs	r3, #1
 935              		.syntax divided
ARM GAS  /var/folders/3q/0p8b__hx1wx8zj8b56q9glhc0000gn/T//ccWFpT72.s 			page 17


 936              	@ 1236 "Drivers/CMSIS/Include/cmsis_gcc.h" 1
 937 0046 83F31088 		MSR primask, r3
 938              	@ 0 "" 2
 939              		.thumb
 940              		.syntax unified
 941 004a 0168     		ldr	r1, [r0]
 942 004c 0A68     		ldr	r2, [r1]
 943 004e 0D4C     		ldr	r4, .L80
 944 0050 2240     		ands	r2, r4
 945 0052 0A60     		str	r2, [r1]
 946              		.syntax divided
 947              	@ 1236 "Drivers/CMSIS/Include/cmsis_gcc.h" 1
 948 0054 8CF31088 		MSR primask, ip
 949              	@ 0 "" 2
 950              	@ 1208 "Drivers/CMSIS/Include/cmsis_gcc.h" 1
 951 0058 EFF3108C 		MRS ip, primask
 952              	@ 0 "" 2
 953              	@ 1236 "Drivers/CMSIS/Include/cmsis_gcc.h" 1
 954 005c 83F31088 		MSR primask, r3
 955              	@ 0 "" 2
 956              		.thumb
 957              		.syntax unified
 958 0060 0168     		ldr	r1, [r0]
 959 0062 8A68     		ldr	r2, [r1, #8]
 960 0064 9A43     		bics	r2, r3
 961 0066 8A60     		str	r2, [r1, #8]
 962              		.syntax divided
 963              	@ 1236 "Drivers/CMSIS/Include/cmsis_gcc.h" 1
 964 0068 8CF31088 		MSR primask, ip
 965              	@ 0 "" 2
 966              	@ 1208 "Drivers/CMSIS/Include/cmsis_gcc.h" 1
 967 006c EFF31081 		MRS r1, primask
 968              	@ 0 "" 2
 969              	@ 1236 "Drivers/CMSIS/Include/cmsis_gcc.h" 1
 970 0070 83F31088 		MSR primask, r3
 971              	@ 0 "" 2
 972              		.thumb
 973              		.syntax unified
 974 0074 0268     		ldr	r2, [r0]
 975 0076 9368     		ldr	r3, [r2, #8]
 976 0078 4020     		movs	r0, #64
 977 007a 8343     		bics	r3, r0
 978 007c 9360     		str	r3, [r2, #8]
 979              		.syntax divided
 980              	@ 1236 "Drivers/CMSIS/Include/cmsis_gcc.h" 1
 981 007e 81F31088 		MSR primask, r1
 982              	@ 0 "" 2
 983              		.thumb
 984              		.syntax unified
 985 0082 CEE7     		b	.L75
 986              	.L81:
 987              		.align	2
 988              	.L80:
 989 0084 FFFEFFFF 		.word	-257
 991              		.section	.text.HAL_UART_DMAResume,"ax",%progbits
 992              		.align	1
 993              		.global	HAL_UART_DMAResume
ARM GAS  /var/folders/3q/0p8b__hx1wx8zj8b56q9glhc0000gn/T//ccWFpT72.s 			page 18


 994              		.syntax unified
 995              		.code	16
 996              		.thumb_func
 998              	HAL_UART_DMAResume:
 999              		@ args = 0, pretend = 0, frame = 0
 1000              		@ frame_needed = 0, uses_anonymous_args = 0
 1001 0000 10B5     		push	{r4, lr}
 1002 0002 8823     		movs	r3, #136
 1003 0004 C358     		ldr	r3, [r0, r3]
 1004 0006 212B     		cmp	r3, #33
 1005 0008 05D0     		beq	.L86
 1006              	.L83:
 1007 000a 8C23     		movs	r3, #140
 1008 000c C358     		ldr	r3, [r0, r3]
 1009 000e 222B     		cmp	r3, #34
 1010 0010 0ED0     		beq	.L87
 1011              	.L84:
 1012 0012 0020     		movs	r0, #0
 1013              		@ sp needed
 1014 0014 10BD     		pop	{r4, pc}
 1015              	.L86:
 1016              		.syntax divided
 1017              	@ 1208 "Drivers/CMSIS/Include/cmsis_gcc.h" 1
 1018 0016 EFF31081 		MRS r1, primask
 1019              	@ 0 "" 2
 1020              		.thumb
 1021              		.syntax unified
 1022 001a 203B     		subs	r3, r3, #32
 1023              		.syntax divided
 1024              	@ 1236 "Drivers/CMSIS/Include/cmsis_gcc.h" 1
 1025 001c 83F31088 		MSR primask, r3
 1026              	@ 0 "" 2
 1027              		.thumb
 1028              		.syntax unified
 1029 0020 0268     		ldr	r2, [r0]
 1030 0022 9368     		ldr	r3, [r2, #8]
 1031 0024 8024     		movs	r4, #128
 1032 0026 2343     		orrs	r3, r4
 1033 0028 9360     		str	r3, [r2, #8]
 1034              		.syntax divided
 1035              	@ 1236 "Drivers/CMSIS/Include/cmsis_gcc.h" 1
 1036 002a 81F31088 		MSR primask, r1
 1037              	@ 0 "" 2
 1038              		.thumb
 1039              		.syntax unified
 1040 002e ECE7     		b	.L83
 1041              	.L87:
 1042 0030 0368     		ldr	r3, [r0]
 1043 0032 0822     		movs	r2, #8
 1044 0034 1A62     		str	r2, [r3, #32]
 1045 0036 0369     		ldr	r3, [r0, #16]
 1046 0038 002B     		cmp	r3, #0
 1047 003a 0BD0     		beq	.L85
 1048              		.syntax divided
 1049              	@ 1208 "Drivers/CMSIS/Include/cmsis_gcc.h" 1
 1050 003c EFF31081 		MRS r1, primask
 1051              	@ 0 "" 2
ARM GAS  /var/folders/3q/0p8b__hx1wx8zj8b56q9glhc0000gn/T//ccWFpT72.s 			page 19


 1052              		.thumb
 1053              		.syntax unified
 1054 0040 0123     		movs	r3, #1
 1055              		.syntax divided
 1056              	@ 1236 "Drivers/CMSIS/Include/cmsis_gcc.h" 1
 1057 0042 83F31088 		MSR primask, r3
 1058              	@ 0 "" 2
 1059              		.thumb
 1060              		.syntax unified
 1061 0046 0268     		ldr	r2, [r0]
 1062 0048 1468     		ldr	r4, [r2]
 1063 004a FF33     		adds	r3, r3, #255
 1064 004c 2343     		orrs	r3, r4
 1065 004e 1360     		str	r3, [r2]
 1066              		.syntax divided
 1067              	@ 1236 "Drivers/CMSIS/Include/cmsis_gcc.h" 1
 1068 0050 81F31088 		MSR primask, r1
 1069              	@ 0 "" 2
 1070              		.thumb
 1071              		.syntax unified
 1072              	.L85:
 1073              		.syntax divided
 1074              	@ 1208 "Drivers/CMSIS/Include/cmsis_gcc.h" 1
 1075 0054 EFF3108C 		MRS ip, primask
 1076              	@ 0 "" 2
 1077              		.thumb
 1078              		.syntax unified
 1079 0058 0123     		movs	r3, #1
 1080              		.syntax divided
 1081              	@ 1236 "Drivers/CMSIS/Include/cmsis_gcc.h" 1
 1082 005a 83F31088 		MSR primask, r3
 1083              	@ 0 "" 2
 1084              		.thumb
 1085              		.syntax unified
 1086 005e 0168     		ldr	r1, [r0]
 1087 0060 8A68     		ldr	r2, [r1, #8]
 1088 0062 1A43     		orrs	r2, r3
 1089 0064 8A60     		str	r2, [r1, #8]
 1090              		.syntax divided
 1091              	@ 1236 "Drivers/CMSIS/Include/cmsis_gcc.h" 1
 1092 0066 8CF31088 		MSR primask, ip
 1093              	@ 0 "" 2
 1094              	@ 1208 "Drivers/CMSIS/Include/cmsis_gcc.h" 1
 1095 006a EFF31081 		MRS r1, primask
 1096              	@ 0 "" 2
 1097              	@ 1236 "Drivers/CMSIS/Include/cmsis_gcc.h" 1
 1098 006e 83F31088 		MSR primask, r3
 1099              	@ 0 "" 2
 1100              		.thumb
 1101              		.syntax unified
 1102 0072 0268     		ldr	r2, [r0]
 1103 0074 9368     		ldr	r3, [r2, #8]
 1104 0076 4020     		movs	r0, #64
 1105 0078 0343     		orrs	r3, r0
 1106 007a 9360     		str	r3, [r2, #8]
 1107              		.syntax divided
 1108              	@ 1236 "Drivers/CMSIS/Include/cmsis_gcc.h" 1
ARM GAS  /var/folders/3q/0p8b__hx1wx8zj8b56q9glhc0000gn/T//ccWFpT72.s 			page 20


 1109 007c 81F31088 		MSR primask, r1
 1110              	@ 0 "" 2
 1111              		.thumb
 1112              		.syntax unified
 1113 0080 C7E7     		b	.L84
 1115              		.section	.text.HAL_UART_DMAStop,"ax",%progbits
 1116              		.align	1
 1117              		.global	HAL_UART_DMAStop
 1118              		.syntax unified
 1119              		.code	16
 1120              		.thumb_func
 1122              	HAL_UART_DMAStop:
 1123              		@ args = 0, pretend = 0, frame = 0
 1124              		@ frame_needed = 0, uses_anonymous_args = 0
 1125 0000 70B5     		push	{r4, r5, r6, lr}
 1126 0002 0400     		movs	r4, r0
 1127 0004 8823     		movs	r3, #136
 1128 0006 C258     		ldr	r2, [r0, r3]
 1129 0008 0433     		adds	r3, r3, #4
 1130 000a C558     		ldr	r5, [r0, r3]
 1131 000c 0368     		ldr	r3, [r0]
 1132 000e 9B68     		ldr	r3, [r3, #8]
 1133 0010 1B06     		lsls	r3, r3, #24
 1134 0012 01D5     		bpl	.L89
 1135 0014 212A     		cmp	r2, #33
 1136 0016 07D0     		beq	.L96
 1137              	.L89:
 1138 0018 2368     		ldr	r3, [r4]
 1139 001a 9B68     		ldr	r3, [r3, #8]
 1140 001c 5B06     		lsls	r3, r3, #25
 1141 001e 48D5     		bpl	.L93
 1142 0020 222D     		cmp	r5, #34
 1143 0022 22D0     		beq	.L97
 1144 0024 0020     		movs	r0, #0
 1145 0026 45E0     		b	.L91
 1146              	.L96:
 1147              		.syntax divided
 1148              	@ 1208 "Drivers/CMSIS/Include/cmsis_gcc.h" 1
 1149 0028 EFF31081 		MRS r1, primask
 1150              	@ 0 "" 2
 1151              		.thumb
 1152              		.syntax unified
 1153 002c 0123     		movs	r3, #1
 1154              		.syntax divided
 1155              	@ 1236 "Drivers/CMSIS/Include/cmsis_gcc.h" 1
 1156 002e 83F31088 		MSR primask, r3
 1157              	@ 0 "" 2
 1158              		.thumb
 1159              		.syntax unified
 1160 0032 0268     		ldr	r2, [r0]
 1161 0034 9368     		ldr	r3, [r2, #8]
 1162 0036 8020     		movs	r0, #128
 1163 0038 8343     		bics	r3, r0
 1164 003a 9360     		str	r3, [r2, #8]
 1165              		.syntax divided
 1166              	@ 1236 "Drivers/CMSIS/Include/cmsis_gcc.h" 1
 1167 003c 81F31088 		MSR primask, r1
ARM GAS  /var/folders/3q/0p8b__hx1wx8zj8b56q9glhc0000gn/T//ccWFpT72.s 			page 21


 1168              	@ 0 "" 2
 1169              		.thumb
 1170              		.syntax unified
 1171 0040 E06F     		ldr	r0, [r4, #124]
 1172 0042 0028     		cmp	r0, #0
 1173 0044 03D0     		beq	.L90
 1174 0046 FFF7FEFF 		bl	HAL_DMA_Abort
 1175 004a 0028     		cmp	r0, #0
 1176 004c 03D1     		bne	.L98
 1177              	.L90:
 1178 004e 2000     		movs	r0, r4
 1179 0050 FFF7FEFF 		bl	UART_EndTxTransfer
 1180 0054 E0E7     		b	.L89
 1181              	.L98:
 1182 0056 E06F     		ldr	r0, [r4, #124]
 1183 0058 FFF7FEFF 		bl	HAL_DMA_GetError
 1184 005c 2028     		cmp	r0, #32
 1185 005e F6D1     		bne	.L90
 1186 0060 9023     		movs	r3, #144
 1187 0062 1022     		movs	r2, #16
 1188 0064 E250     		str	r2, [r4, r3]
 1189 0066 1D38     		subs	r0, r0, #29
 1190 0068 24E0     		b	.L91
 1191              	.L97:
 1192              		.syntax divided
 1193              	@ 1208 "Drivers/CMSIS/Include/cmsis_gcc.h" 1
 1194 006a EFF31081 		MRS r1, primask
 1195              	@ 0 "" 2
 1196              		.thumb
 1197              		.syntax unified
 1198 006e 0123     		movs	r3, #1
 1199              		.syntax divided
 1200              	@ 1236 "Drivers/CMSIS/Include/cmsis_gcc.h" 1
 1201 0070 83F31088 		MSR primask, r3
 1202              	@ 0 "" 2
 1203              		.thumb
 1204              		.syntax unified
 1205 0074 2268     		ldr	r2, [r4]
 1206 0076 9368     		ldr	r3, [r2, #8]
 1207 0078 4020     		movs	r0, #64
 1208 007a 8343     		bics	r3, r0
 1209 007c 9360     		str	r3, [r2, #8]
 1210              		.syntax divided
 1211              	@ 1236 "Drivers/CMSIS/Include/cmsis_gcc.h" 1
 1212 007e 81F31088 		MSR primask, r1
 1213              	@ 0 "" 2
 1214              		.thumb
 1215              		.syntax unified
 1216 0082 8023     		movs	r3, #128
 1217 0084 E058     		ldr	r0, [r4, r3]
 1218 0086 0028     		cmp	r0, #0
 1219 0088 03D0     		beq	.L92
 1220 008a FFF7FEFF 		bl	HAL_DMA_Abort
 1221 008e 0028     		cmp	r0, #0
 1222 0090 04D1     		bne	.L99
 1223              	.L92:
 1224 0092 2000     		movs	r0, r4
ARM GAS  /var/folders/3q/0p8b__hx1wx8zj8b56q9glhc0000gn/T//ccWFpT72.s 			page 22


 1225 0094 FFF7FEFF 		bl	UART_EndRxTransfer
 1226 0098 0020     		movs	r0, #0
 1227 009a 0BE0     		b	.L91
 1228              	.L99:
 1229 009c 8023     		movs	r3, #128
 1230 009e E058     		ldr	r0, [r4, r3]
 1231 00a0 FFF7FEFF 		bl	HAL_DMA_GetError
 1232 00a4 2028     		cmp	r0, #32
 1233 00a6 F4D1     		bne	.L92
 1234 00a8 9023     		movs	r3, #144
 1235 00aa 1022     		movs	r2, #16
 1236 00ac E250     		str	r2, [r4, r3]
 1237 00ae 1D38     		subs	r0, r0, #29
 1238 00b0 00E0     		b	.L91
 1239              	.L93:
 1240 00b2 0020     		movs	r0, #0
 1241              	.L91:
 1242              		@ sp needed
 1243 00b4 70BD     		pop	{r4, r5, r6, pc}
 1245              		.section	.text.HAL_UART_Abort,"ax",%progbits
 1246              		.align	1
 1247              		.global	HAL_UART_Abort
 1248              		.syntax unified
 1249              		.code	16
 1250              		.thumb_func
 1252              	HAL_UART_Abort:
 1253              		@ args = 0, pretend = 0, frame = 0
 1254              		@ frame_needed = 0, uses_anonymous_args = 0
 1255 0000 70B5     		push	{r4, r5, r6, lr}
 1256 0002 0400     		movs	r4, r0
 1257              		.syntax divided
 1258              	@ 1208 "Drivers/CMSIS/Include/cmsis_gcc.h" 1
 1259 0004 EFF31080 		MRS r0, primask
 1260              	@ 0 "" 2
 1261              		.thumb
 1262              		.syntax unified
 1263 0008 0122     		movs	r2, #1
 1264              		.syntax divided
 1265              	@ 1236 "Drivers/CMSIS/Include/cmsis_gcc.h" 1
 1266 000a 82F31088 		MSR primask, r2
 1267              	@ 0 "" 2
 1268              		.thumb
 1269              		.syntax unified
 1270 000e 2168     		ldr	r1, [r4]
 1271 0010 0B68     		ldr	r3, [r1]
 1272 0012 464D     		ldr	r5, .L112
 1273 0014 2B40     		ands	r3, r5
 1274 0016 0B60     		str	r3, [r1]
 1275              		.syntax divided
 1276              	@ 1236 "Drivers/CMSIS/Include/cmsis_gcc.h" 1
 1277 0018 80F31088 		MSR primask, r0
 1278              	@ 0 "" 2
 1279              	@ 1208 "Drivers/CMSIS/Include/cmsis_gcc.h" 1
 1280 001c EFF31081 		MRS r1, primask
 1281              	@ 0 "" 2
 1282              	@ 1236 "Drivers/CMSIS/Include/cmsis_gcc.h" 1
 1283 0020 82F31088 		MSR primask, r2
ARM GAS  /var/folders/3q/0p8b__hx1wx8zj8b56q9glhc0000gn/T//ccWFpT72.s 			page 23


 1284              	@ 0 "" 2
 1285              		.thumb
 1286              		.syntax unified
 1287 0024 2268     		ldr	r2, [r4]
 1288 0026 9368     		ldr	r3, [r2, #8]
 1289 0028 4148     		ldr	r0, .L112+4
 1290 002a 0340     		ands	r3, r0
 1291 002c 9360     		str	r3, [r2, #8]
 1292              		.syntax divided
 1293              	@ 1236 "Drivers/CMSIS/Include/cmsis_gcc.h" 1
 1294 002e 81F31088 		MSR primask, r1
 1295              	@ 0 "" 2
 1296              		.thumb
 1297              		.syntax unified
 1298 0032 E36E     		ldr	r3, [r4, #108]
 1299 0034 012B     		cmp	r3, #1
 1300 0036 52D0     		beq	.L108
 1301              	.L101:
 1302 0038 2368     		ldr	r3, [r4]
 1303 003a 9B68     		ldr	r3, [r3, #8]
 1304 003c 1B06     		lsls	r3, r3, #24
 1305 003e 15D5     		bpl	.L102
 1306              		.syntax divided
 1307              	@ 1208 "Drivers/CMSIS/Include/cmsis_gcc.h" 1
 1308 0040 EFF31081 		MRS r1, primask
 1309              	@ 0 "" 2
 1310              		.thumb
 1311              		.syntax unified
 1312 0044 0123     		movs	r3, #1
 1313              		.syntax divided
 1314              	@ 1236 "Drivers/CMSIS/Include/cmsis_gcc.h" 1
 1315 0046 83F31088 		MSR primask, r3
 1316              	@ 0 "" 2
 1317              		.thumb
 1318              		.syntax unified
 1319 004a 2268     		ldr	r2, [r4]
 1320 004c 9368     		ldr	r3, [r2, #8]
 1321 004e 8020     		movs	r0, #128
 1322 0050 8343     		bics	r3, r0
 1323 0052 9360     		str	r3, [r2, #8]
 1324              		.syntax divided
 1325              	@ 1236 "Drivers/CMSIS/Include/cmsis_gcc.h" 1
 1326 0054 81F31088 		MSR primask, r1
 1327              	@ 0 "" 2
 1328              		.thumb
 1329              		.syntax unified
 1330 0058 E36F     		ldr	r3, [r4, #124]
 1331 005a 002B     		cmp	r3, #0
 1332 005c 06D0     		beq	.L102
 1333 005e 0022     		movs	r2, #0
 1334 0060 9A63     		str	r2, [r3, #56]
 1335 0062 E06F     		ldr	r0, [r4, #124]
 1336 0064 FFF7FEFF 		bl	HAL_DMA_Abort
 1337 0068 0028     		cmp	r0, #0
 1338 006a 44D1     		bne	.L109
 1339              	.L102:
 1340 006c 2368     		ldr	r3, [r4]
ARM GAS  /var/folders/3q/0p8b__hx1wx8zj8b56q9glhc0000gn/T//ccWFpT72.s 			page 24


 1341 006e 9B68     		ldr	r3, [r3, #8]
 1342 0070 5B06     		lsls	r3, r3, #25
 1343 0072 17D5     		bpl	.L104
 1344              		.syntax divided
 1345              	@ 1208 "Drivers/CMSIS/Include/cmsis_gcc.h" 1
 1346 0074 EFF31081 		MRS r1, primask
 1347              	@ 0 "" 2
 1348              		.thumb
 1349              		.syntax unified
 1350 0078 0123     		movs	r3, #1
 1351              		.syntax divided
 1352              	@ 1236 "Drivers/CMSIS/Include/cmsis_gcc.h" 1
 1353 007a 83F31088 		MSR primask, r3
 1354              	@ 0 "" 2
 1355              		.thumb
 1356              		.syntax unified
 1357 007e 2268     		ldr	r2, [r4]
 1358 0080 9368     		ldr	r3, [r2, #8]
 1359 0082 4020     		movs	r0, #64
 1360 0084 8343     		bics	r3, r0
 1361 0086 9360     		str	r3, [r2, #8]
 1362              		.syntax divided
 1363              	@ 1236 "Drivers/CMSIS/Include/cmsis_gcc.h" 1
 1364 0088 81F31088 		MSR primask, r1
 1365              	@ 0 "" 2
 1366              		.thumb
 1367              		.syntax unified
 1368 008c 8023     		movs	r3, #128
 1369 008e E358     		ldr	r3, [r4, r3]
 1370 0090 002B     		cmp	r3, #0
 1371 0092 07D0     		beq	.L104
 1372 0094 0022     		movs	r2, #0
 1373 0096 9A63     		str	r2, [r3, #56]
 1374 0098 8023     		movs	r3, #128
 1375 009a E058     		ldr	r0, [r4, r3]
 1376 009c FFF7FEFF 		bl	HAL_DMA_Abort
 1377 00a0 0028     		cmp	r0, #0
 1378 00a2 32D1     		bne	.L110
 1379              	.L104:
 1380 00a4 0023     		movs	r3, #0
 1381 00a6 5622     		movs	r2, #86
 1382 00a8 A352     		strh	r3, [r4, r2]
 1383 00aa 0832     		adds	r2, r2, #8
 1384 00ac A352     		strh	r3, [r4, r2]
 1385 00ae 2368     		ldr	r3, [r4]
 1386 00b0 4F3A     		subs	r2, r2, #79
 1387 00b2 1A62     		str	r2, [r3, #32]
 1388 00b4 626E     		ldr	r2, [r4, #100]
 1389 00b6 8023     		movs	r3, #128
 1390 00b8 9B05     		lsls	r3, r3, #22
 1391 00ba 9A42     		cmp	r2, r3
 1392 00bc 30D0     		beq	.L111
 1393              	.L105:
 1394 00be 2268     		ldr	r2, [r4]
 1395 00c0 9369     		ldr	r3, [r2, #24]
 1396 00c2 0821     		movs	r1, #8
 1397 00c4 0B43     		orrs	r3, r1
ARM GAS  /var/folders/3q/0p8b__hx1wx8zj8b56q9glhc0000gn/T//ccWFpT72.s 			page 25


 1398 00c6 9361     		str	r3, [r2, #24]
 1399 00c8 2023     		movs	r3, #32
 1400 00ca 8822     		movs	r2, #136
 1401 00cc A350     		str	r3, [r4, r2]
 1402 00ce 0432     		adds	r2, r2, #4
 1403 00d0 A350     		str	r3, [r4, r2]
 1404 00d2 0023     		movs	r3, #0
 1405 00d4 E366     		str	r3, [r4, #108]
 1406 00d6 0432     		adds	r2, r2, #4
 1407 00d8 A350     		str	r3, [r4, r2]
 1408 00da 0020     		movs	r0, #0
 1409              	.L103:
 1410              		@ sp needed
 1411 00dc 70BD     		pop	{r4, r5, r6, pc}
 1412              	.L108:
 1413              		.syntax divided
 1414              	@ 1208 "Drivers/CMSIS/Include/cmsis_gcc.h" 1
 1415 00de EFF31081 		MRS r1, primask
 1416              	@ 0 "" 2
 1417              	@ 1236 "Drivers/CMSIS/Include/cmsis_gcc.h" 1
 1418 00e2 83F31088 		MSR primask, r3
 1419              	@ 0 "" 2
 1420              		.thumb
 1421              		.syntax unified
 1422 00e6 2268     		ldr	r2, [r4]
 1423 00e8 1368     		ldr	r3, [r2]
 1424 00ea 1020     		movs	r0, #16
 1425 00ec 8343     		bics	r3, r0
 1426 00ee 1360     		str	r3, [r2]
 1427              		.syntax divided
 1428              	@ 1236 "Drivers/CMSIS/Include/cmsis_gcc.h" 1
 1429 00f0 81F31088 		MSR primask, r1
 1430              	@ 0 "" 2
 1431              		.thumb
 1432              		.syntax unified
 1433 00f4 A0E7     		b	.L101
 1434              	.L109:
 1435 00f6 E06F     		ldr	r0, [r4, #124]
 1436 00f8 FFF7FEFF 		bl	HAL_DMA_GetError
 1437 00fc 2028     		cmp	r0, #32
 1438 00fe B5D1     		bne	.L102
 1439 0100 9023     		movs	r3, #144
 1440 0102 1022     		movs	r2, #16
 1441 0104 E250     		str	r2, [r4, r3]
 1442 0106 1D38     		subs	r0, r0, #29
 1443 0108 E8E7     		b	.L103
 1444              	.L110:
 1445 010a 8023     		movs	r3, #128
 1446 010c E058     		ldr	r0, [r4, r3]
 1447 010e FFF7FEFF 		bl	HAL_DMA_GetError
 1448 0112 2028     		cmp	r0, #32
 1449 0114 C6D1     		bne	.L104
 1450 0116 9023     		movs	r3, #144
 1451 0118 1022     		movs	r2, #16
 1452 011a E250     		str	r2, [r4, r3]
 1453 011c 1D38     		subs	r0, r0, #29
 1454 011e DDE7     		b	.L103
ARM GAS  /var/folders/3q/0p8b__hx1wx8zj8b56q9glhc0000gn/T//ccWFpT72.s 			page 26


 1455              	.L111:
 1456 0120 2268     		ldr	r2, [r4]
 1457 0122 9369     		ldr	r3, [r2, #24]
 1458 0124 1021     		movs	r1, #16
 1459 0126 0B43     		orrs	r3, r1
 1460 0128 9361     		str	r3, [r2, #24]
 1461 012a C8E7     		b	.L105
 1462              	.L113:
 1463              		.align	2
 1464              	.L112:
 1465 012c 1FFEFFFF 		.word	-481
 1466 0130 FEFF7FEF 		.word	-276824066
 1468              		.section	.text.HAL_UART_AbortTransmit,"ax",%progbits
 1469              		.align	1
 1470              		.global	HAL_UART_AbortTransmit
 1471              		.syntax unified
 1472              		.code	16
 1473              		.thumb_func
 1475              	HAL_UART_AbortTransmit:
 1476              		@ args = 0, pretend = 0, frame = 0
 1477              		@ frame_needed = 0, uses_anonymous_args = 0
 1478 0000 70B5     		push	{r4, r5, r6, lr}
 1479 0002 0400     		movs	r4, r0
 1480              		.syntax divided
 1481              	@ 1208 "Drivers/CMSIS/Include/cmsis_gcc.h" 1
 1482 0004 EFF31080 		MRS r0, primask
 1483              	@ 0 "" 2
 1484              		.thumb
 1485              		.syntax unified
 1486 0008 0122     		movs	r2, #1
 1487              		.syntax divided
 1488              	@ 1236 "Drivers/CMSIS/Include/cmsis_gcc.h" 1
 1489 000a 82F31088 		MSR primask, r2
 1490              	@ 0 "" 2
 1491              		.thumb
 1492              		.syntax unified
 1493 000e 2168     		ldr	r1, [r4]
 1494 0010 0B68     		ldr	r3, [r1]
 1495 0012 C025     		movs	r5, #192
 1496 0014 AB43     		bics	r3, r5
 1497 0016 0B60     		str	r3, [r1]
 1498              		.syntax divided
 1499              	@ 1236 "Drivers/CMSIS/Include/cmsis_gcc.h" 1
 1500 0018 80F31088 		MSR primask, r0
 1501              	@ 0 "" 2
 1502              	@ 1208 "Drivers/CMSIS/Include/cmsis_gcc.h" 1
 1503 001c EFF31081 		MRS r1, primask
 1504              	@ 0 "" 2
 1505              	@ 1236 "Drivers/CMSIS/Include/cmsis_gcc.h" 1
 1506 0020 82F31088 		MSR primask, r2
 1507              	@ 0 "" 2
 1508              		.thumb
 1509              		.syntax unified
 1510 0024 2268     		ldr	r2, [r4]
 1511 0026 9368     		ldr	r3, [r2, #8]
 1512 0028 1D48     		ldr	r0, .L121
 1513 002a 0340     		ands	r3, r0
ARM GAS  /var/folders/3q/0p8b__hx1wx8zj8b56q9glhc0000gn/T//ccWFpT72.s 			page 27


 1514 002c 9360     		str	r3, [r2, #8]
 1515              		.syntax divided
 1516              	@ 1236 "Drivers/CMSIS/Include/cmsis_gcc.h" 1
 1517 002e 81F31088 		MSR primask, r1
 1518              	@ 0 "" 2
 1519              		.thumb
 1520              		.syntax unified
 1521 0032 2368     		ldr	r3, [r4]
 1522 0034 9B68     		ldr	r3, [r3, #8]
 1523 0036 1B06     		lsls	r3, r3, #24
 1524 0038 15D5     		bpl	.L115
 1525              		.syntax divided
 1526              	@ 1208 "Drivers/CMSIS/Include/cmsis_gcc.h" 1
 1527 003a EFF31081 		MRS r1, primask
 1528              	@ 0 "" 2
 1529              		.thumb
 1530              		.syntax unified
 1531 003e 0123     		movs	r3, #1
 1532              		.syntax divided
 1533              	@ 1236 "Drivers/CMSIS/Include/cmsis_gcc.h" 1
 1534 0040 83F31088 		MSR primask, r3
 1535              	@ 0 "" 2
 1536              		.thumb
 1537              		.syntax unified
 1538 0044 2268     		ldr	r2, [r4]
 1539 0046 9368     		ldr	r3, [r2, #8]
 1540 0048 8020     		movs	r0, #128
 1541 004a 8343     		bics	r3, r0
 1542 004c 9360     		str	r3, [r2, #8]
 1543              		.syntax divided
 1544              	@ 1236 "Drivers/CMSIS/Include/cmsis_gcc.h" 1
 1545 004e 81F31088 		MSR primask, r1
 1546              	@ 0 "" 2
 1547              		.thumb
 1548              		.syntax unified
 1549 0052 E36F     		ldr	r3, [r4, #124]
 1550 0054 002B     		cmp	r3, #0
 1551 0056 06D0     		beq	.L115
 1552 0058 0022     		movs	r2, #0
 1553 005a 9A63     		str	r2, [r3, #56]
 1554 005c E06F     		ldr	r0, [r4, #124]
 1555 005e FFF7FEFF 		bl	HAL_DMA_Abort
 1556 0062 0028     		cmp	r0, #0
 1557 0064 0CD1     		bne	.L119
 1558              	.L115:
 1559 0066 5623     		movs	r3, #86
 1560 0068 0022     		movs	r2, #0
 1561 006a E252     		strh	r2, [r4, r3]
 1562 006c 626E     		ldr	r2, [r4, #100]
 1563 006e 8023     		movs	r3, #128
 1564 0070 9B05     		lsls	r3, r3, #22
 1565 0072 9A42     		cmp	r2, r3
 1566 0074 0ED0     		beq	.L120
 1567              	.L117:
 1568 0076 8823     		movs	r3, #136
 1569 0078 2022     		movs	r2, #32
 1570 007a E250     		str	r2, [r4, r3]
ARM GAS  /var/folders/3q/0p8b__hx1wx8zj8b56q9glhc0000gn/T//ccWFpT72.s 			page 28


 1571 007c 0020     		movs	r0, #0
 1572              	.L116:
 1573              		@ sp needed
 1574 007e 70BD     		pop	{r4, r5, r6, pc}
 1575              	.L119:
 1576 0080 E06F     		ldr	r0, [r4, #124]
 1577 0082 FFF7FEFF 		bl	HAL_DMA_GetError
 1578 0086 2028     		cmp	r0, #32
 1579 0088 EDD1     		bne	.L115
 1580 008a 9023     		movs	r3, #144
 1581 008c 1022     		movs	r2, #16
 1582 008e E250     		str	r2, [r4, r3]
 1583 0090 1D38     		subs	r0, r0, #29
 1584 0092 F4E7     		b	.L116
 1585              	.L120:
 1586 0094 2268     		ldr	r2, [r4]
 1587 0096 9369     		ldr	r3, [r2, #24]
 1588 0098 1021     		movs	r1, #16
 1589 009a 0B43     		orrs	r3, r1
 1590 009c 9361     		str	r3, [r2, #24]
 1591 009e EAE7     		b	.L117
 1592              	.L122:
 1593              		.align	2
 1594              	.L121:
 1595 00a0 FFFF7FFF 		.word	-8388609
 1597              		.section	.text.HAL_UART_AbortReceive,"ax",%progbits
 1598              		.align	1
 1599              		.global	HAL_UART_AbortReceive
 1600              		.syntax unified
 1601              		.code	16
 1602              		.thumb_func
 1604              	HAL_UART_AbortReceive:
 1605              		@ args = 0, pretend = 0, frame = 0
 1606              		@ frame_needed = 0, uses_anonymous_args = 0
 1607 0000 70B5     		push	{r4, r5, r6, lr}
 1608 0002 0400     		movs	r4, r0
 1609              		.syntax divided
 1610              	@ 1208 "Drivers/CMSIS/Include/cmsis_gcc.h" 1
 1611 0004 EFF31080 		MRS r0, primask
 1612              	@ 0 "" 2
 1613              		.thumb
 1614              		.syntax unified
 1615 0008 0122     		movs	r2, #1
 1616              		.syntax divided
 1617              	@ 1236 "Drivers/CMSIS/Include/cmsis_gcc.h" 1
 1618 000a 82F31088 		MSR primask, r2
 1619              	@ 0 "" 2
 1620              		.thumb
 1621              		.syntax unified
 1622 000e 2168     		ldr	r1, [r4]
 1623 0010 0B68     		ldr	r3, [r1]
 1624 0012 2B4D     		ldr	r5, .L130
 1625 0014 2B40     		ands	r3, r5
 1626 0016 0B60     		str	r3, [r1]
 1627              		.syntax divided
 1628              	@ 1236 "Drivers/CMSIS/Include/cmsis_gcc.h" 1
 1629 0018 80F31088 		MSR primask, r0
ARM GAS  /var/folders/3q/0p8b__hx1wx8zj8b56q9glhc0000gn/T//ccWFpT72.s 			page 29


 1630              	@ 0 "" 2
 1631              	@ 1208 "Drivers/CMSIS/Include/cmsis_gcc.h" 1
 1632 001c EFF31081 		MRS r1, primask
 1633              	@ 0 "" 2
 1634              	@ 1236 "Drivers/CMSIS/Include/cmsis_gcc.h" 1
 1635 0020 82F31088 		MSR primask, r2
 1636              	@ 0 "" 2
 1637              		.thumb
 1638              		.syntax unified
 1639 0024 2268     		ldr	r2, [r4]
 1640 0026 9368     		ldr	r3, [r2, #8]
 1641 0028 2648     		ldr	r0, .L130+4
 1642 002a 0340     		ands	r3, r0
 1643 002c 9360     		str	r3, [r2, #8]
 1644              		.syntax divided
 1645              	@ 1236 "Drivers/CMSIS/Include/cmsis_gcc.h" 1
 1646 002e 81F31088 		MSR primask, r1
 1647              	@ 0 "" 2
 1648              		.thumb
 1649              		.syntax unified
 1650 0032 E36E     		ldr	r3, [r4, #108]
 1651 0034 012B     		cmp	r3, #1
 1652 0036 2CD0     		beq	.L128
 1653              	.L124:
 1654 0038 2368     		ldr	r3, [r4]
 1655 003a 9B68     		ldr	r3, [r3, #8]
 1656 003c 5B06     		lsls	r3, r3, #25
 1657 003e 17D5     		bpl	.L125
 1658              		.syntax divided
 1659              	@ 1208 "Drivers/CMSIS/Include/cmsis_gcc.h" 1
 1660 0040 EFF31081 		MRS r1, primask
 1661              	@ 0 "" 2
 1662              		.thumb
 1663              		.syntax unified
 1664 0044 0123     		movs	r3, #1
 1665              		.syntax divided
 1666              	@ 1236 "Drivers/CMSIS/Include/cmsis_gcc.h" 1
 1667 0046 83F31088 		MSR primask, r3
 1668              	@ 0 "" 2
 1669              		.thumb
 1670              		.syntax unified
 1671 004a 2268     		ldr	r2, [r4]
 1672 004c 9368     		ldr	r3, [r2, #8]
 1673 004e 4020     		movs	r0, #64
 1674 0050 8343     		bics	r3, r0
 1675 0052 9360     		str	r3, [r2, #8]
 1676              		.syntax divided
 1677              	@ 1236 "Drivers/CMSIS/Include/cmsis_gcc.h" 1
 1678 0054 81F31088 		MSR primask, r1
 1679              	@ 0 "" 2
 1680              		.thumb
 1681              		.syntax unified
 1682 0058 8023     		movs	r3, #128
 1683 005a E358     		ldr	r3, [r4, r3]
 1684 005c 002B     		cmp	r3, #0
 1685 005e 07D0     		beq	.L125
 1686 0060 0022     		movs	r2, #0
ARM GAS  /var/folders/3q/0p8b__hx1wx8zj8b56q9glhc0000gn/T//ccWFpT72.s 			page 30


 1687 0062 9A63     		str	r2, [r3, #56]
 1688 0064 8023     		movs	r3, #128
 1689 0066 E058     		ldr	r0, [r4, r3]
 1690 0068 FFF7FEFF 		bl	HAL_DMA_Abort
 1691 006c 0028     		cmp	r0, #0
 1692 006e 1CD1     		bne	.L129
 1693              	.L125:
 1694 0070 0022     		movs	r2, #0
 1695 0072 5E23     		movs	r3, #94
 1696 0074 E252     		strh	r2, [r4, r3]
 1697 0076 2368     		ldr	r3, [r4]
 1698 0078 0F21     		movs	r1, #15
 1699 007a 1962     		str	r1, [r3, #32]
 1700 007c 2168     		ldr	r1, [r4]
 1701 007e 8B69     		ldr	r3, [r1, #24]
 1702 0080 0820     		movs	r0, #8
 1703 0082 0343     		orrs	r3, r0
 1704 0084 8B61     		str	r3, [r1, #24]
 1705 0086 8C23     		movs	r3, #140
 1706 0088 2021     		movs	r1, #32
 1707 008a E150     		str	r1, [r4, r3]
 1708 008c E266     		str	r2, [r4, #108]
 1709 008e 0020     		movs	r0, #0
 1710              	.L126:
 1711              		@ sp needed
 1712 0090 70BD     		pop	{r4, r5, r6, pc}
 1713              	.L128:
 1714              		.syntax divided
 1715              	@ 1208 "Drivers/CMSIS/Include/cmsis_gcc.h" 1
 1716 0092 EFF31081 		MRS r1, primask
 1717              	@ 0 "" 2
 1718              	@ 1236 "Drivers/CMSIS/Include/cmsis_gcc.h" 1
 1719 0096 83F31088 		MSR primask, r3
 1720              	@ 0 "" 2
 1721              		.thumb
 1722              		.syntax unified
 1723 009a 2268     		ldr	r2, [r4]
 1724 009c 1368     		ldr	r3, [r2]
 1725 009e 1020     		movs	r0, #16
 1726 00a0 8343     		bics	r3, r0
 1727 00a2 1360     		str	r3, [r2]
 1728              		.syntax divided
 1729              	@ 1236 "Drivers/CMSIS/Include/cmsis_gcc.h" 1
 1730 00a4 81F31088 		MSR primask, r1
 1731              	@ 0 "" 2
 1732              		.thumb
 1733              		.syntax unified
 1734 00a8 C6E7     		b	.L124
 1735              	.L129:
 1736 00aa 8023     		movs	r3, #128
 1737 00ac E058     		ldr	r0, [r4, r3]
 1738 00ae FFF7FEFF 		bl	HAL_DMA_GetError
 1739 00b2 2028     		cmp	r0, #32
 1740 00b4 DCD1     		bne	.L125
 1741 00b6 9023     		movs	r3, #144
 1742 00b8 1022     		movs	r2, #16
 1743 00ba E250     		str	r2, [r4, r3]
ARM GAS  /var/folders/3q/0p8b__hx1wx8zj8b56q9glhc0000gn/T//ccWFpT72.s 			page 31


 1744 00bc 1D38     		subs	r0, r0, #29
 1745 00be E7E7     		b	.L126
 1746              	.L131:
 1747              		.align	2
 1748              	.L130:
 1749 00c0 DFFEFFFF 		.word	-289
 1750 00c4 FEFFFFEF 		.word	-268435458
 1752              		.section	.text.HAL_UART_TxCpltCallback,"ax",%progbits
 1753              		.align	1
 1754              		.weak	HAL_UART_TxCpltCallback
 1755              		.syntax unified
 1756              		.code	16
 1757              		.thumb_func
 1759              	HAL_UART_TxCpltCallback:
 1760              		@ args = 0, pretend = 0, frame = 0
 1761              		@ frame_needed = 0, uses_anonymous_args = 0
 1762              		@ link register save eliminated.
 1763              		@ sp needed
 1764 0000 7047     		bx	lr
 1766              		.section	.text.UART_DMATransmitCplt,"ax",%progbits
 1767              		.align	1
 1768              		.syntax unified
 1769              		.code	16
 1770              		.thumb_func
 1772              	UART_DMATransmitCplt:
 1773              		@ args = 0, pretend = 0, frame = 0
 1774              		@ frame_needed = 0, uses_anonymous_args = 0
 1775 0000 10B5     		push	{r4, lr}
 1776 0002 0300     		movs	r3, r0
 1777 0004 806A     		ldr	r0, [r0, #40]
 1778 0006 1B68     		ldr	r3, [r3]
 1779 0008 1B68     		ldr	r3, [r3]
 1780 000a 9B06     		lsls	r3, r3, #26
 1781 000c 1AD4     		bmi	.L134
 1782 000e 5623     		movs	r3, #86
 1783 0010 0022     		movs	r2, #0
 1784 0012 C252     		strh	r2, [r0, r3]
 1785              		.syntax divided
 1786              	@ 1208 "Drivers/CMSIS/Include/cmsis_gcc.h" 1
 1787 0014 EFF3108C 		MRS ip, primask
 1788              	@ 0 "" 2
 1789              		.thumb
 1790              		.syntax unified
 1791 0018 0132     		adds	r2, r2, #1
 1792              		.syntax divided
 1793              	@ 1236 "Drivers/CMSIS/Include/cmsis_gcc.h" 1
 1794 001a 82F31088 		MSR primask, r2
 1795              	@ 0 "" 2
 1796              		.thumb
 1797              		.syntax unified
 1798 001e 0168     		ldr	r1, [r0]
 1799 0020 8B68     		ldr	r3, [r1, #8]
 1800 0022 8024     		movs	r4, #128
 1801 0024 A343     		bics	r3, r4
 1802 0026 8B60     		str	r3, [r1, #8]
 1803              		.syntax divided
 1804              	@ 1236 "Drivers/CMSIS/Include/cmsis_gcc.h" 1
ARM GAS  /var/folders/3q/0p8b__hx1wx8zj8b56q9glhc0000gn/T//ccWFpT72.s 			page 32


 1805 0028 8CF31088 		MSR primask, ip
 1806              	@ 0 "" 2
 1807              	@ 1208 "Drivers/CMSIS/Include/cmsis_gcc.h" 1
 1808 002c EFF31081 		MRS r1, primask
 1809              	@ 0 "" 2
 1810              	@ 1236 "Drivers/CMSIS/Include/cmsis_gcc.h" 1
 1811 0030 82F31088 		MSR primask, r2
 1812              	@ 0 "" 2
 1813              		.thumb
 1814              		.syntax unified
 1815 0034 0268     		ldr	r2, [r0]
 1816 0036 1368     		ldr	r3, [r2]
 1817 0038 4020     		movs	r0, #64
 1818 003a 0343     		orrs	r3, r0
 1819 003c 1360     		str	r3, [r2]
 1820              		.syntax divided
 1821              	@ 1236 "Drivers/CMSIS/Include/cmsis_gcc.h" 1
 1822 003e 81F31088 		MSR primask, r1
 1823              	@ 0 "" 2
 1824              		.thumb
 1825              		.syntax unified
 1826              	.L133:
 1827              		@ sp needed
 1828 0042 10BD     		pop	{r4, pc}
 1829              	.L134:
 1830 0044 FFF7FEFF 		bl	HAL_UART_TxCpltCallback
 1831 0048 FBE7     		b	.L133
 1833              		.section	.text.UART_EndTransmit_IT,"ax",%progbits
 1834              		.align	1
 1835              		.syntax unified
 1836              		.code	16
 1837              		.thumb_func
 1839              	UART_EndTransmit_IT:
 1840              		@ args = 0, pretend = 0, frame = 0
 1841              		@ frame_needed = 0, uses_anonymous_args = 0
 1842 0000 10B5     		push	{r4, lr}
 1843              		.syntax divided
 1844              	@ 1208 "Drivers/CMSIS/Include/cmsis_gcc.h" 1
 1845 0002 EFF31081 		MRS r1, primask
 1846              	@ 0 "" 2
 1847              		.thumb
 1848              		.syntax unified
 1849 0006 0123     		movs	r3, #1
 1850              		.syntax divided
 1851              	@ 1236 "Drivers/CMSIS/Include/cmsis_gcc.h" 1
 1852 0008 83F31088 		MSR primask, r3
 1853              	@ 0 "" 2
 1854              		.thumb
 1855              		.syntax unified
 1856 000c 0268     		ldr	r2, [r0]
 1857 000e 1368     		ldr	r3, [r2]
 1858 0010 4024     		movs	r4, #64
 1859 0012 A343     		bics	r3, r4
 1860 0014 1360     		str	r3, [r2]
 1861              		.syntax divided
 1862              	@ 1236 "Drivers/CMSIS/Include/cmsis_gcc.h" 1
 1863 0016 81F31088 		MSR primask, r1
ARM GAS  /var/folders/3q/0p8b__hx1wx8zj8b56q9glhc0000gn/T//ccWFpT72.s 			page 33


 1864              	@ 0 "" 2
 1865              		.thumb
 1866              		.syntax unified
 1867 001a 8823     		movs	r3, #136
 1868 001c 2022     		movs	r2, #32
 1869 001e C250     		str	r2, [r0, r3]
 1870 0020 0023     		movs	r3, #0
 1871 0022 8367     		str	r3, [r0, #120]
 1872 0024 FFF7FEFF 		bl	HAL_UART_TxCpltCallback
 1873              		@ sp needed
 1874 0028 10BD     		pop	{r4, pc}
 1876              		.section	.text.HAL_UART_TxHalfCpltCallback,"ax",%progbits
 1877              		.align	1
 1878              		.weak	HAL_UART_TxHalfCpltCallback
 1879              		.syntax unified
 1880              		.code	16
 1881              		.thumb_func
 1883              	HAL_UART_TxHalfCpltCallback:
 1884              		@ args = 0, pretend = 0, frame = 0
 1885              		@ frame_needed = 0, uses_anonymous_args = 0
 1886              		@ link register save eliminated.
 1887              		@ sp needed
 1888 0000 7047     		bx	lr
 1890              		.section	.text.UART_DMATxHalfCplt,"ax",%progbits
 1891              		.align	1
 1892              		.syntax unified
 1893              		.code	16
 1894              		.thumb_func
 1896              	UART_DMATxHalfCplt:
 1897              		@ args = 0, pretend = 0, frame = 0
 1898              		@ frame_needed = 0, uses_anonymous_args = 0
 1899 0000 10B5     		push	{r4, lr}
 1900 0002 806A     		ldr	r0, [r0, #40]
 1901 0004 FFF7FEFF 		bl	HAL_UART_TxHalfCpltCallback
 1902              		@ sp needed
 1903 0008 10BD     		pop	{r4, pc}
 1905              		.section	.text.HAL_UART_RxCpltCallback,"ax",%progbits
 1906              		.align	1
 1907              		.weak	HAL_UART_RxCpltCallback
 1908              		.syntax unified
 1909              		.code	16
 1910              		.thumb_func
 1912              	HAL_UART_RxCpltCallback:
 1913              		@ args = 0, pretend = 0, frame = 0
 1914              		@ frame_needed = 0, uses_anonymous_args = 0
 1915              		@ link register save eliminated.
 1916              		@ sp needed
 1917 0000 7047     		bx	lr
 1919              		.section	.text.HAL_UART_RxHalfCpltCallback,"ax",%progbits
 1920              		.align	1
 1921              		.weak	HAL_UART_RxHalfCpltCallback
 1922              		.syntax unified
 1923              		.code	16
 1924              		.thumb_func
 1926              	HAL_UART_RxHalfCpltCallback:
 1927              		@ args = 0, pretend = 0, frame = 0
 1928              		@ frame_needed = 0, uses_anonymous_args = 0
ARM GAS  /var/folders/3q/0p8b__hx1wx8zj8b56q9glhc0000gn/T//ccWFpT72.s 			page 34


 1929              		@ link register save eliminated.
 1930              		@ sp needed
 1931 0000 7047     		bx	lr
 1933              		.section	.text.HAL_UART_ErrorCallback,"ax",%progbits
 1934              		.align	1
 1935              		.weak	HAL_UART_ErrorCallback
 1936              		.syntax unified
 1937              		.code	16
 1938              		.thumb_func
 1940              	HAL_UART_ErrorCallback:
 1941              		@ args = 0, pretend = 0, frame = 0
 1942              		@ frame_needed = 0, uses_anonymous_args = 0
 1943              		@ link register save eliminated.
 1944              		@ sp needed
 1945 0000 7047     		bx	lr
 1947              		.section	.text.UART_DMAError,"ax",%progbits
 1948              		.align	1
 1949              		.syntax unified
 1950              		.code	16
 1951              		.thumb_func
 1953              	UART_DMAError:
 1954              		@ args = 0, pretend = 0, frame = 0
 1955              		@ frame_needed = 0, uses_anonymous_args = 0
 1956 0000 70B5     		push	{r4, r5, r6, lr}
 1957 0002 846A     		ldr	r4, [r0, #40]
 1958 0004 8823     		movs	r3, #136
 1959 0006 E258     		ldr	r2, [r4, r3]
 1960 0008 0433     		adds	r3, r3, #4
 1961 000a E558     		ldr	r5, [r4, r3]
 1962 000c 2368     		ldr	r3, [r4]
 1963 000e 9B68     		ldr	r3, [r3, #8]
 1964 0010 1B06     		lsls	r3, r3, #24
 1965 0012 01D5     		bpl	.L143
 1966 0014 212A     		cmp	r2, #33
 1967 0016 0ED0     		beq	.L147
 1968              	.L143:
 1969 0018 2368     		ldr	r3, [r4]
 1970 001a 9B68     		ldr	r3, [r3, #8]
 1971 001c 5B06     		lsls	r3, r3, #25
 1972 001e 01D5     		bpl	.L144
 1973 0020 222D     		cmp	r5, #34
 1974 0022 0FD0     		beq	.L148
 1975              	.L144:
 1976 0024 9022     		movs	r2, #144
 1977 0026 A358     		ldr	r3, [r4, r2]
 1978 0028 1021     		movs	r1, #16
 1979 002a 0B43     		orrs	r3, r1
 1980 002c A350     		str	r3, [r4, r2]
 1981 002e 2000     		movs	r0, r4
 1982 0030 FFF7FEFF 		bl	HAL_UART_ErrorCallback
 1983              		@ sp needed
 1984 0034 70BD     		pop	{r4, r5, r6, pc}
 1985              	.L147:
 1986 0036 5623     		movs	r3, #86
 1987 0038 0022     		movs	r2, #0
 1988 003a E252     		strh	r2, [r4, r3]
 1989 003c 2000     		movs	r0, r4
ARM GAS  /var/folders/3q/0p8b__hx1wx8zj8b56q9glhc0000gn/T//ccWFpT72.s 			page 35


 1990 003e FFF7FEFF 		bl	UART_EndTxTransfer
 1991 0042 E9E7     		b	.L143
 1992              	.L148:
 1993 0044 5E23     		movs	r3, #94
 1994 0046 0022     		movs	r2, #0
 1995 0048 E252     		strh	r2, [r4, r3]
 1996 004a 2000     		movs	r0, r4
 1997 004c FFF7FEFF 		bl	UART_EndRxTransfer
 1998 0050 E8E7     		b	.L144
 2000              		.section	.text.UART_DMAAbortOnError,"ax",%progbits
 2001              		.align	1
 2002              		.syntax unified
 2003              		.code	16
 2004              		.thumb_func
 2006              	UART_DMAAbortOnError:
 2007              		@ args = 0, pretend = 0, frame = 0
 2008              		@ frame_needed = 0, uses_anonymous_args = 0
 2009 0000 10B5     		push	{r4, lr}
 2010 0002 806A     		ldr	r0, [r0, #40]
 2011 0004 5E23     		movs	r3, #94
 2012 0006 0022     		movs	r2, #0
 2013 0008 C252     		strh	r2, [r0, r3]
 2014 000a FFF7FEFF 		bl	HAL_UART_ErrorCallback
 2015              		@ sp needed
 2016 000e 10BD     		pop	{r4, pc}
 2018              		.section	.text.HAL_UART_AbortCpltCallback,"ax",%progbits
 2019              		.align	1
 2020              		.weak	HAL_UART_AbortCpltCallback
 2021              		.syntax unified
 2022              		.code	16
 2023              		.thumb_func
 2025              	HAL_UART_AbortCpltCallback:
 2026              		@ args = 0, pretend = 0, frame = 0
 2027              		@ frame_needed = 0, uses_anonymous_args = 0
 2028              		@ link register save eliminated.
 2029              		@ sp needed
 2030 0000 7047     		bx	lr
 2032              		.section	.text.HAL_UART_Abort_IT,"ax",%progbits
 2033              		.align	1
 2034              		.global	HAL_UART_Abort_IT
 2035              		.syntax unified
 2036              		.code	16
 2037              		.thumb_func
 2039              	HAL_UART_Abort_IT:
 2040              		@ args = 0, pretend = 0, frame = 0
 2041              		@ frame_needed = 0, uses_anonymous_args = 0
 2042 0000 70B5     		push	{r4, r5, r6, lr}
 2043 0002 0400     		movs	r4, r0
 2044              		.syntax divided
 2045              	@ 1208 "Drivers/CMSIS/Include/cmsis_gcc.h" 1
 2046 0004 EFF31080 		MRS r0, primask
 2047              	@ 0 "" 2
 2048              		.thumb
 2049              		.syntax unified
 2050 0008 0122     		movs	r2, #1
 2051              		.syntax divided
 2052              	@ 1236 "Drivers/CMSIS/Include/cmsis_gcc.h" 1
ARM GAS  /var/folders/3q/0p8b__hx1wx8zj8b56q9glhc0000gn/T//ccWFpT72.s 			page 36


 2053 000a 82F31088 		MSR primask, r2
 2054              	@ 0 "" 2
 2055              		.thumb
 2056              		.syntax unified
 2057 000e 2168     		ldr	r1, [r4]
 2058 0010 0B68     		ldr	r3, [r1]
 2059 0012 504D     		ldr	r5, .L168
 2060 0014 2B40     		ands	r3, r5
 2061 0016 0B60     		str	r3, [r1]
 2062              		.syntax divided
 2063              	@ 1236 "Drivers/CMSIS/Include/cmsis_gcc.h" 1
 2064 0018 80F31088 		MSR primask, r0
 2065              	@ 0 "" 2
 2066              	@ 1208 "Drivers/CMSIS/Include/cmsis_gcc.h" 1
 2067 001c EFF31081 		MRS r1, primask
 2068              	@ 0 "" 2
 2069              	@ 1236 "Drivers/CMSIS/Include/cmsis_gcc.h" 1
 2070 0020 82F31088 		MSR primask, r2
 2071              	@ 0 "" 2
 2072              		.thumb
 2073              		.syntax unified
 2074 0024 2268     		ldr	r2, [r4]
 2075 0026 9368     		ldr	r3, [r2, #8]
 2076 0028 4B48     		ldr	r0, .L168+4
 2077 002a 0340     		ands	r3, r0
 2078 002c 9360     		str	r3, [r2, #8]
 2079              		.syntax divided
 2080              	@ 1236 "Drivers/CMSIS/Include/cmsis_gcc.h" 1
 2081 002e 81F31088 		MSR primask, r1
 2082              	@ 0 "" 2
 2083              		.thumb
 2084              		.syntax unified
 2085 0032 E36E     		ldr	r3, [r4, #108]
 2086 0034 012B     		cmp	r3, #1
 2087 0036 2ED0     		beq	.L166
 2088              	.L152:
 2089 0038 E36F     		ldr	r3, [r4, #124]
 2090 003a 002B     		cmp	r3, #0
 2091 003c 05D0     		beq	.L153
 2092 003e 2268     		ldr	r2, [r4]
 2093 0040 9268     		ldr	r2, [r2, #8]
 2094 0042 1206     		lsls	r2, r2, #24
 2095 0044 33D5     		bpl	.L154
 2096 0046 454A     		ldr	r2, .L168+8
 2097 0048 9A63     		str	r2, [r3, #56]
 2098              	.L153:
 2099 004a 8023     		movs	r3, #128
 2100 004c E358     		ldr	r3, [r4, r3]
 2101 004e 002B     		cmp	r3, #0
 2102 0050 05D0     		beq	.L155
 2103 0052 2268     		ldr	r2, [r4]
 2104 0054 9268     		ldr	r2, [r2, #8]
 2105 0056 5206     		lsls	r2, r2, #25
 2106 0058 2CD5     		bpl	.L156
 2107 005a 414A     		ldr	r2, .L168+12
 2108 005c 9A63     		str	r2, [r3, #56]
 2109              	.L155:
ARM GAS  /var/folders/3q/0p8b__hx1wx8zj8b56q9glhc0000gn/T//ccWFpT72.s 			page 37


 2110 005e 2368     		ldr	r3, [r4]
 2111 0060 9B68     		ldr	r3, [r3, #8]
 2112 0062 1B06     		lsls	r3, r3, #24
 2113 0064 29D5     		bpl	.L162
 2114              		.syntax divided
 2115              	@ 1208 "Drivers/CMSIS/Include/cmsis_gcc.h" 1
 2116 0066 EFF31081 		MRS r1, primask
 2117              	@ 0 "" 2
 2118              		.thumb
 2119              		.syntax unified
 2120 006a 0123     		movs	r3, #1
 2121              		.syntax divided
 2122              	@ 1236 "Drivers/CMSIS/Include/cmsis_gcc.h" 1
 2123 006c 83F31088 		MSR primask, r3
 2124              	@ 0 "" 2
 2125              		.thumb
 2126              		.syntax unified
 2127 0070 2268     		ldr	r2, [r4]
 2128 0072 9368     		ldr	r3, [r2, #8]
 2129 0074 8020     		movs	r0, #128
 2130 0076 8343     		bics	r3, r0
 2131 0078 9360     		str	r3, [r2, #8]
 2132              		.syntax divided
 2133              	@ 1236 "Drivers/CMSIS/Include/cmsis_gcc.h" 1
 2134 007a 81F31088 		MSR primask, r1
 2135              	@ 0 "" 2
 2136              		.thumb
 2137              		.syntax unified
 2138 007e E06F     		ldr	r0, [r4, #124]
 2139 0080 0028     		cmp	r0, #0
 2140 0082 58D0     		beq	.L163
 2141 0084 FFF7FEFF 		bl	HAL_DMA_Abort_IT
 2142 0088 0028     		cmp	r0, #0
 2143 008a 56D0     		beq	.L164
 2144 008c E36F     		ldr	r3, [r4, #124]
 2145 008e 0022     		movs	r2, #0
 2146 0090 9A63     		str	r2, [r3, #56]
 2147 0092 0132     		adds	r2, r2, #1
 2148 0094 12E0     		b	.L157
 2149              	.L166:
 2150              		.syntax divided
 2151              	@ 1208 "Drivers/CMSIS/Include/cmsis_gcc.h" 1
 2152 0096 EFF31081 		MRS r1, primask
 2153              	@ 0 "" 2
 2154              	@ 1236 "Drivers/CMSIS/Include/cmsis_gcc.h" 1
 2155 009a 83F31088 		MSR primask, r3
 2156              	@ 0 "" 2
 2157              		.thumb
 2158              		.syntax unified
 2159 009e 2268     		ldr	r2, [r4]
 2160 00a0 1368     		ldr	r3, [r2]
 2161 00a2 1020     		movs	r0, #16
 2162 00a4 8343     		bics	r3, r0
 2163 00a6 1360     		str	r3, [r2]
 2164              		.syntax divided
 2165              	@ 1236 "Drivers/CMSIS/Include/cmsis_gcc.h" 1
 2166 00a8 81F31088 		MSR primask, r1
ARM GAS  /var/folders/3q/0p8b__hx1wx8zj8b56q9glhc0000gn/T//ccWFpT72.s 			page 38


 2167              	@ 0 "" 2
 2168              		.thumb
 2169              		.syntax unified
 2170 00ac C4E7     		b	.L152
 2171              	.L154:
 2172 00ae 0022     		movs	r2, #0
 2173 00b0 9A63     		str	r2, [r3, #56]
 2174 00b2 CAE7     		b	.L153
 2175              	.L156:
 2176 00b4 0022     		movs	r2, #0
 2177 00b6 9A63     		str	r2, [r3, #56]
 2178 00b8 D1E7     		b	.L155
 2179              	.L162:
 2180 00ba 0122     		movs	r2, #1
 2181              	.L157:
 2182 00bc 2368     		ldr	r3, [r4]
 2183 00be 9B68     		ldr	r3, [r3, #8]
 2184 00c0 5B06     		lsls	r3, r3, #25
 2185 00c2 3CD5     		bpl	.L158
 2186              		.syntax divided
 2187              	@ 1208 "Drivers/CMSIS/Include/cmsis_gcc.h" 1
 2188 00c4 EFF31080 		MRS r0, primask
 2189              	@ 0 "" 2
 2190              		.thumb
 2191              		.syntax unified
 2192 00c8 0123     		movs	r3, #1
 2193              		.syntax divided
 2194              	@ 1236 "Drivers/CMSIS/Include/cmsis_gcc.h" 1
 2195 00ca 83F31088 		MSR primask, r3
 2196              	@ 0 "" 2
 2197              		.thumb
 2198              		.syntax unified
 2199 00ce 2168     		ldr	r1, [r4]
 2200 00d0 8B68     		ldr	r3, [r1, #8]
 2201 00d2 4025     		movs	r5, #64
 2202 00d4 AB43     		bics	r3, r5
 2203 00d6 8B60     		str	r3, [r1, #8]
 2204              		.syntax divided
 2205              	@ 1236 "Drivers/CMSIS/Include/cmsis_gcc.h" 1
 2206 00d8 80F31088 		MSR primask, r0
 2207              	@ 0 "" 2
 2208              		.thumb
 2209              		.syntax unified
 2210 00dc 8023     		movs	r3, #128
 2211 00de E058     		ldr	r0, [r4, r3]
 2212 00e0 0028     		cmp	r0, #0
 2213 00e2 2CD0     		beq	.L158
 2214 00e4 FFF7FEFF 		bl	HAL_DMA_Abort_IT
 2215 00e8 0028     		cmp	r0, #0
 2216 00ea 2AD0     		beq	.L159
 2217 00ec 8023     		movs	r3, #128
 2218 00ee E358     		ldr	r3, [r4, r3]
 2219 00f0 0022     		movs	r2, #0
 2220 00f2 9A63     		str	r2, [r3, #56]
 2221              	.L160:
 2222 00f4 0023     		movs	r3, #0
 2223 00f6 5622     		movs	r2, #86
ARM GAS  /var/folders/3q/0p8b__hx1wx8zj8b56q9glhc0000gn/T//ccWFpT72.s 			page 39


 2224 00f8 A352     		strh	r3, [r4, r2]
 2225 00fa 0832     		adds	r2, r2, #8
 2226 00fc A352     		strh	r3, [r4, r2]
 2227 00fe 6367     		str	r3, [r4, #116]
 2228 0100 A367     		str	r3, [r4, #120]
 2229 0102 3232     		adds	r2, r2, #50
 2230 0104 A350     		str	r3, [r4, r2]
 2231 0106 2368     		ldr	r3, [r4]
 2232 0108 813A     		subs	r2, r2, #129
 2233 010a 1A62     		str	r2, [r3, #32]
 2234 010c 626E     		ldr	r2, [r4, #100]
 2235 010e 8023     		movs	r3, #128
 2236 0110 9B05     		lsls	r3, r3, #22
 2237 0112 9A42     		cmp	r2, r3
 2238 0114 17D0     		beq	.L167
 2239              	.L161:
 2240 0116 2268     		ldr	r2, [r4]
 2241 0118 9369     		ldr	r3, [r2, #24]
 2242 011a 0821     		movs	r1, #8
 2243 011c 0B43     		orrs	r3, r1
 2244 011e 9361     		str	r3, [r2, #24]
 2245 0120 2023     		movs	r3, #32
 2246 0122 8822     		movs	r2, #136
 2247 0124 A350     		str	r3, [r4, r2]
 2248 0126 0432     		adds	r2, r2, #4
 2249 0128 A350     		str	r3, [r4, r2]
 2250 012a 0023     		movs	r3, #0
 2251 012c E366     		str	r3, [r4, #108]
 2252 012e 2000     		movs	r0, r4
 2253 0130 FFF7FEFF 		bl	HAL_UART_AbortCpltCallback
 2254 0134 05E0     		b	.L159
 2255              	.L163:
 2256 0136 0122     		movs	r2, #1
 2257 0138 C0E7     		b	.L157
 2258              	.L164:
 2259 013a 0022     		movs	r2, #0
 2260 013c BEE7     		b	.L157
 2261              	.L158:
 2262 013e 012A     		cmp	r2, #1
 2263 0140 D8D0     		beq	.L160
 2264              	.L159:
 2265 0142 0020     		movs	r0, #0
 2266              		@ sp needed
 2267 0144 70BD     		pop	{r4, r5, r6, pc}
 2268              	.L167:
 2269 0146 2268     		ldr	r2, [r4]
 2270 0148 9369     		ldr	r3, [r2, #24]
 2271 014a 1021     		movs	r1, #16
 2272 014c 0B43     		orrs	r3, r1
 2273 014e 9361     		str	r3, [r2, #24]
 2274 0150 E1E7     		b	.L161
 2275              	.L169:
 2276 0152 C046     		.align	2
 2277              	.L168:
 2278 0154 1FFEFFFF 		.word	-481
 2279 0158 FEFF7FEF 		.word	-276824066
 2280 015c 00000000 		.word	UART_DMATxAbortCallback
ARM GAS  /var/folders/3q/0p8b__hx1wx8zj8b56q9glhc0000gn/T//ccWFpT72.s 			page 40


 2281 0160 00000000 		.word	UART_DMARxAbortCallback
 2283              		.section	.text.UART_DMARxAbortCallback,"ax",%progbits
 2284              		.align	1
 2285              		.syntax unified
 2286              		.code	16
 2287              		.thumb_func
 2289              	UART_DMARxAbortCallback:
 2290              		@ args = 0, pretend = 0, frame = 0
 2291              		@ frame_needed = 0, uses_anonymous_args = 0
 2292 0000 10B5     		push	{r4, lr}
 2293 0002 806A     		ldr	r0, [r0, #40]
 2294 0004 8023     		movs	r3, #128
 2295 0006 C358     		ldr	r3, [r0, r3]
 2296 0008 0022     		movs	r2, #0
 2297 000a 9A63     		str	r2, [r3, #56]
 2298 000c C36F     		ldr	r3, [r0, #124]
 2299 000e 002B     		cmp	r3, #0
 2300 0010 02D0     		beq	.L171
 2301 0012 9B6B     		ldr	r3, [r3, #56]
 2302 0014 002B     		cmp	r3, #0
 2303 0016 16D1     		bne	.L170
 2304              	.L171:
 2305 0018 0023     		movs	r3, #0
 2306 001a 5622     		movs	r2, #86
 2307 001c 8352     		strh	r3, [r0, r2]
 2308 001e 0832     		adds	r2, r2, #8
 2309 0020 8352     		strh	r3, [r0, r2]
 2310 0022 3232     		adds	r2, r2, #50
 2311 0024 8350     		str	r3, [r0, r2]
 2312 0026 0268     		ldr	r2, [r0]
 2313 0028 0F21     		movs	r1, #15
 2314 002a 1162     		str	r1, [r2, #32]
 2315 002c 0168     		ldr	r1, [r0]
 2316 002e 8A69     		ldr	r2, [r1, #24]
 2317 0030 0824     		movs	r4, #8
 2318 0032 2243     		orrs	r2, r4
 2319 0034 8A61     		str	r2, [r1, #24]
 2320 0036 2022     		movs	r2, #32
 2321 0038 8821     		movs	r1, #136
 2322 003a 4250     		str	r2, [r0, r1]
 2323 003c 0431     		adds	r1, r1, #4
 2324 003e 4250     		str	r2, [r0, r1]
 2325 0040 C366     		str	r3, [r0, #108]
 2326 0042 FFF7FEFF 		bl	HAL_UART_AbortCpltCallback
 2327              	.L170:
 2328              		@ sp needed
 2329 0046 10BD     		pop	{r4, pc}
 2331              		.section	.text.UART_DMATxAbortCallback,"ax",%progbits
 2332              		.align	1
 2333              		.syntax unified
 2334              		.code	16
 2335              		.thumb_func
 2337              	UART_DMATxAbortCallback:
 2338              		@ args = 0, pretend = 0, frame = 0
 2339              		@ frame_needed = 0, uses_anonymous_args = 0
 2340 0000 10B5     		push	{r4, lr}
 2341 0002 806A     		ldr	r0, [r0, #40]
ARM GAS  /var/folders/3q/0p8b__hx1wx8zj8b56q9glhc0000gn/T//ccWFpT72.s 			page 41


 2342 0004 C36F     		ldr	r3, [r0, #124]
 2343 0006 0022     		movs	r2, #0
 2344 0008 9A63     		str	r2, [r3, #56]
 2345 000a 8023     		movs	r3, #128
 2346 000c C358     		ldr	r3, [r0, r3]
 2347 000e 002B     		cmp	r3, #0
 2348 0010 02D0     		beq	.L174
 2349 0012 9B6B     		ldr	r3, [r3, #56]
 2350 0014 002B     		cmp	r3, #0
 2351 0016 17D1     		bne	.L173
 2352              	.L174:
 2353 0018 0023     		movs	r3, #0
 2354 001a 5622     		movs	r2, #86
 2355 001c 8352     		strh	r3, [r0, r2]
 2356 001e 0832     		adds	r2, r2, #8
 2357 0020 8352     		strh	r3, [r0, r2]
 2358 0022 3232     		adds	r2, r2, #50
 2359 0024 8350     		str	r3, [r0, r2]
 2360 0026 0368     		ldr	r3, [r0]
 2361 0028 813A     		subs	r2, r2, #129
 2362 002a 1A62     		str	r2, [r3, #32]
 2363 002c 426E     		ldr	r2, [r0, #100]
 2364 002e 8023     		movs	r3, #128
 2365 0030 9B05     		lsls	r3, r3, #22
 2366 0032 9A42     		cmp	r2, r3
 2367 0034 09D0     		beq	.L177
 2368              	.L176:
 2369 0036 2023     		movs	r3, #32
 2370 0038 8822     		movs	r2, #136
 2371 003a 8350     		str	r3, [r0, r2]
 2372 003c 0432     		adds	r2, r2, #4
 2373 003e 8350     		str	r3, [r0, r2]
 2374 0040 0023     		movs	r3, #0
 2375 0042 C366     		str	r3, [r0, #108]
 2376 0044 FFF7FEFF 		bl	HAL_UART_AbortCpltCallback
 2377              	.L173:
 2378              		@ sp needed
 2379 0048 10BD     		pop	{r4, pc}
 2380              	.L177:
 2381 004a 0268     		ldr	r2, [r0]
 2382 004c 9369     		ldr	r3, [r2, #24]
 2383 004e 1021     		movs	r1, #16
 2384 0050 0B43     		orrs	r3, r1
 2385 0052 9361     		str	r3, [r2, #24]
 2386 0054 EFE7     		b	.L176
 2388              		.section	.text.HAL_UART_AbortTransmitCpltCallback,"ax",%progbits
 2389              		.align	1
 2390              		.weak	HAL_UART_AbortTransmitCpltCallback
 2391              		.syntax unified
 2392              		.code	16
 2393              		.thumb_func
 2395              	HAL_UART_AbortTransmitCpltCallback:
 2396              		@ args = 0, pretend = 0, frame = 0
 2397              		@ frame_needed = 0, uses_anonymous_args = 0
 2398              		@ link register save eliminated.
 2399              		@ sp needed
 2400 0000 7047     		bx	lr
ARM GAS  /var/folders/3q/0p8b__hx1wx8zj8b56q9glhc0000gn/T//ccWFpT72.s 			page 42


 2402              		.section	.text.HAL_UART_AbortTransmit_IT,"ax",%progbits
 2403              		.align	1
 2404              		.global	HAL_UART_AbortTransmit_IT
 2405              		.syntax unified
 2406              		.code	16
 2407              		.thumb_func
 2409              	HAL_UART_AbortTransmit_IT:
 2410              		@ args = 0, pretend = 0, frame = 0
 2411              		@ frame_needed = 0, uses_anonymous_args = 0
 2412 0000 70B5     		push	{r4, r5, r6, lr}
 2413 0002 0400     		movs	r4, r0
 2414              		.syntax divided
 2415              	@ 1208 "Drivers/CMSIS/Include/cmsis_gcc.h" 1
 2416 0004 EFF31080 		MRS r0, primask
 2417              	@ 0 "" 2
 2418              		.thumb
 2419              		.syntax unified
 2420 0008 0122     		movs	r2, #1
 2421              		.syntax divided
 2422              	@ 1236 "Drivers/CMSIS/Include/cmsis_gcc.h" 1
 2423 000a 82F31088 		MSR primask, r2
 2424              	@ 0 "" 2
 2425              		.thumb
 2426              		.syntax unified
 2427 000e 2168     		ldr	r1, [r4]
 2428 0010 0B68     		ldr	r3, [r1]
 2429 0012 C025     		movs	r5, #192
 2430 0014 AB43     		bics	r3, r5
 2431 0016 0B60     		str	r3, [r1]
 2432              		.syntax divided
 2433              	@ 1236 "Drivers/CMSIS/Include/cmsis_gcc.h" 1
 2434 0018 80F31088 		MSR primask, r0
 2435              	@ 0 "" 2
 2436              	@ 1208 "Drivers/CMSIS/Include/cmsis_gcc.h" 1
 2437 001c EFF31081 		MRS r1, primask
 2438              	@ 0 "" 2
 2439              	@ 1236 "Drivers/CMSIS/Include/cmsis_gcc.h" 1
 2440 0020 82F31088 		MSR primask, r2
 2441              	@ 0 "" 2
 2442              		.thumb
 2443              		.syntax unified
 2444 0024 2268     		ldr	r2, [r4]
 2445 0026 9368     		ldr	r3, [r2, #8]
 2446 0028 2148     		ldr	r0, .L185
 2447 002a 0340     		ands	r3, r0
 2448 002c 9360     		str	r3, [r2, #8]
 2449              		.syntax divided
 2450              	@ 1236 "Drivers/CMSIS/Include/cmsis_gcc.h" 1
 2451 002e 81F31088 		MSR primask, r1
 2452              	@ 0 "" 2
 2453              		.thumb
 2454              		.syntax unified
 2455 0032 2268     		ldr	r2, [r4]
 2456 0034 9368     		ldr	r3, [r2, #8]
 2457 0036 1B06     		lsls	r3, r3, #24
 2458 0038 24D5     		bpl	.L180
 2459              		.syntax divided
ARM GAS  /var/folders/3q/0p8b__hx1wx8zj8b56q9glhc0000gn/T//ccWFpT72.s 			page 43


 2460              	@ 1208 "Drivers/CMSIS/Include/cmsis_gcc.h" 1
 2461 003a EFF31081 		MRS r1, primask
 2462              	@ 0 "" 2
 2463              		.thumb
 2464              		.syntax unified
 2465 003e 0123     		movs	r3, #1
 2466              		.syntax divided
 2467              	@ 1236 "Drivers/CMSIS/Include/cmsis_gcc.h" 1
 2468 0040 83F31088 		MSR primask, r3
 2469              	@ 0 "" 2
 2470              		.thumb
 2471              		.syntax unified
 2472 0044 2268     		ldr	r2, [r4]
 2473 0046 9368     		ldr	r3, [r2, #8]
 2474 0048 8020     		movs	r0, #128
 2475 004a 8343     		bics	r3, r0
 2476 004c 9360     		str	r3, [r2, #8]
 2477              		.syntax divided
 2478              	@ 1236 "Drivers/CMSIS/Include/cmsis_gcc.h" 1
 2479 004e 81F31088 		MSR primask, r1
 2480              	@ 0 "" 2
 2481              		.thumb
 2482              		.syntax unified
 2483 0052 E36F     		ldr	r3, [r4, #124]
 2484 0054 002B     		cmp	r3, #0
 2485 0056 0AD0     		beq	.L181
 2486 0058 164A     		ldr	r2, .L185+4
 2487 005a 9A63     		str	r2, [r3, #56]
 2488 005c E06F     		ldr	r0, [r4, #124]
 2489 005e FFF7FEFF 		bl	HAL_DMA_Abort_IT
 2490 0062 0028     		cmp	r0, #0
 2491 0064 1DD0     		beq	.L182
 2492 0066 E06F     		ldr	r0, [r4, #124]
 2493 0068 836B     		ldr	r3, [r0, #56]
 2494 006a 9847     		blx	r3
 2495 006c 19E0     		b	.L182
 2496              	.L181:
 2497 006e 0023     		movs	r3, #0
 2498 0070 5622     		movs	r2, #86
 2499 0072 A352     		strh	r3, [r4, r2]
 2500 0074 A367     		str	r3, [r4, #120]
 2501 0076 8833     		adds	r3, r3, #136
 2502 0078 363A     		subs	r2, r2, #54
 2503 007a E250     		str	r2, [r4, r3]
 2504 007c 2000     		movs	r0, r4
 2505 007e FFF7FEFF 		bl	HAL_UART_AbortTransmitCpltCallback
 2506 0082 0EE0     		b	.L182
 2507              	.L180:
 2508 0084 0023     		movs	r3, #0
 2509 0086 5621     		movs	r1, #86
 2510 0088 6352     		strh	r3, [r4, r1]
 2511 008a A367     		str	r3, [r4, #120]
 2512 008c 616E     		ldr	r1, [r4, #100]
 2513 008e 8023     		movs	r3, #128
 2514 0090 9B05     		lsls	r3, r3, #22
 2515 0092 9942     		cmp	r1, r3
 2516 0094 07D0     		beq	.L184
ARM GAS  /var/folders/3q/0p8b__hx1wx8zj8b56q9glhc0000gn/T//ccWFpT72.s 			page 44


 2517              	.L183:
 2518 0096 8823     		movs	r3, #136
 2519 0098 2022     		movs	r2, #32
 2520 009a E250     		str	r2, [r4, r3]
 2521 009c 2000     		movs	r0, r4
 2522 009e FFF7FEFF 		bl	HAL_UART_AbortTransmitCpltCallback
 2523              	.L182:
 2524 00a2 0020     		movs	r0, #0
 2525              		@ sp needed
 2526 00a4 70BD     		pop	{r4, r5, r6, pc}
 2527              	.L184:
 2528 00a6 9369     		ldr	r3, [r2, #24]
 2529 00a8 1021     		movs	r1, #16
 2530 00aa 0B43     		orrs	r3, r1
 2531 00ac 9361     		str	r3, [r2, #24]
 2532 00ae F2E7     		b	.L183
 2533              	.L186:
 2534              		.align	2
 2535              	.L185:
 2536 00b0 FFFF7FFF 		.word	-8388609
 2537 00b4 00000000 		.word	UART_DMATxOnlyAbortCallback
 2539              		.section	.text.UART_DMATxOnlyAbortCallback,"ax",%progbits
 2540              		.align	1
 2541              		.syntax unified
 2542              		.code	16
 2543              		.thumb_func
 2545              	UART_DMATxOnlyAbortCallback:
 2546              		@ args = 0, pretend = 0, frame = 0
 2547              		@ frame_needed = 0, uses_anonymous_args = 0
 2548 0000 10B5     		push	{r4, lr}
 2549 0002 806A     		ldr	r0, [r0, #40]
 2550 0004 5623     		movs	r3, #86
 2551 0006 0022     		movs	r2, #0
 2552 0008 C252     		strh	r2, [r0, r3]
 2553 000a 426E     		ldr	r2, [r0, #100]
 2554 000c 8023     		movs	r3, #128
 2555 000e 9B05     		lsls	r3, r3, #22
 2556 0010 9A42     		cmp	r2, r3
 2557 0012 05D0     		beq	.L189
 2558              	.L188:
 2559 0014 8823     		movs	r3, #136
 2560 0016 2022     		movs	r2, #32
 2561 0018 C250     		str	r2, [r0, r3]
 2562 001a FFF7FEFF 		bl	HAL_UART_AbortTransmitCpltCallback
 2563              		@ sp needed
 2564 001e 10BD     		pop	{r4, pc}
 2565              	.L189:
 2566 0020 0268     		ldr	r2, [r0]
 2567 0022 9369     		ldr	r3, [r2, #24]
 2568 0024 1021     		movs	r1, #16
 2569 0026 0B43     		orrs	r3, r1
 2570 0028 9361     		str	r3, [r2, #24]
 2571 002a F3E7     		b	.L188
 2573              		.section	.text.HAL_UART_AbortReceiveCpltCallback,"ax",%progbits
 2574              		.align	1
 2575              		.weak	HAL_UART_AbortReceiveCpltCallback
 2576              		.syntax unified
ARM GAS  /var/folders/3q/0p8b__hx1wx8zj8b56q9glhc0000gn/T//ccWFpT72.s 			page 45


 2577              		.code	16
 2578              		.thumb_func
 2580              	HAL_UART_AbortReceiveCpltCallback:
 2581              		@ args = 0, pretend = 0, frame = 0
 2582              		@ frame_needed = 0, uses_anonymous_args = 0
 2583              		@ link register save eliminated.
 2584              		@ sp needed
 2585 0000 7047     		bx	lr
 2587              		.section	.text.HAL_UART_AbortReceive_IT,"ax",%progbits
 2588              		.align	1
 2589              		.global	HAL_UART_AbortReceive_IT
 2590              		.syntax unified
 2591              		.code	16
 2592              		.thumb_func
 2594              	HAL_UART_AbortReceive_IT:
 2595              		@ args = 0, pretend = 0, frame = 0
 2596              		@ frame_needed = 0, uses_anonymous_args = 0
 2597 0000 70B5     		push	{r4, r5, r6, lr}
 2598 0002 0400     		movs	r4, r0
 2599              		.syntax divided
 2600              	@ 1208 "Drivers/CMSIS/Include/cmsis_gcc.h" 1
 2601 0004 EFF31080 		MRS r0, primask
 2602              	@ 0 "" 2
 2603              		.thumb
 2604              		.syntax unified
 2605 0008 0122     		movs	r2, #1
 2606              		.syntax divided
 2607              	@ 1236 "Drivers/CMSIS/Include/cmsis_gcc.h" 1
 2608 000a 82F31088 		MSR primask, r2
 2609              	@ 0 "" 2
 2610              		.thumb
 2611              		.syntax unified
 2612 000e 2168     		ldr	r1, [r4]
 2613 0010 0B68     		ldr	r3, [r1]
 2614 0012 314D     		ldr	r5, .L197
 2615 0014 2B40     		ands	r3, r5
 2616 0016 0B60     		str	r3, [r1]
 2617              		.syntax divided
 2618              	@ 1236 "Drivers/CMSIS/Include/cmsis_gcc.h" 1
 2619 0018 80F31088 		MSR primask, r0
 2620              	@ 0 "" 2
 2621              	@ 1208 "Drivers/CMSIS/Include/cmsis_gcc.h" 1
 2622 001c EFF31081 		MRS r1, primask
 2623              	@ 0 "" 2
 2624              	@ 1236 "Drivers/CMSIS/Include/cmsis_gcc.h" 1
 2625 0020 82F31088 		MSR primask, r2
 2626              	@ 0 "" 2
 2627              		.thumb
 2628              		.syntax unified
 2629 0024 2268     		ldr	r2, [r4]
 2630 0026 9368     		ldr	r3, [r2, #8]
 2631 0028 2C48     		ldr	r0, .L197+4
 2632 002a 0340     		ands	r3, r0
 2633 002c 9360     		str	r3, [r2, #8]
 2634              		.syntax divided
 2635              	@ 1236 "Drivers/CMSIS/Include/cmsis_gcc.h" 1
 2636 002e 81F31088 		MSR primask, r1
ARM GAS  /var/folders/3q/0p8b__hx1wx8zj8b56q9glhc0000gn/T//ccWFpT72.s 			page 46


 2637              	@ 0 "" 2
 2638              		.thumb
 2639              		.syntax unified
 2640 0032 E36E     		ldr	r3, [r4, #108]
 2641 0034 012B     		cmp	r3, #1
 2642 0036 20D0     		beq	.L196
 2643              	.L192:
 2644 0038 2268     		ldr	r2, [r4]
 2645 003a 9368     		ldr	r3, [r2, #8]
 2646 003c 5B06     		lsls	r3, r3, #25
 2647 003e 3CD5     		bpl	.L193
 2648              		.syntax divided
 2649              	@ 1208 "Drivers/CMSIS/Include/cmsis_gcc.h" 1
 2650 0040 EFF31081 		MRS r1, primask
 2651              	@ 0 "" 2
 2652              		.thumb
 2653              		.syntax unified
 2654 0044 0123     		movs	r3, #1
 2655              		.syntax divided
 2656              	@ 1236 "Drivers/CMSIS/Include/cmsis_gcc.h" 1
 2657 0046 83F31088 		MSR primask, r3
 2658              	@ 0 "" 2
 2659              		.thumb
 2660              		.syntax unified
 2661 004a 2268     		ldr	r2, [r4]
 2662 004c 9368     		ldr	r3, [r2, #8]
 2663 004e 4020     		movs	r0, #64
 2664 0050 8343     		bics	r3, r0
 2665 0052 9360     		str	r3, [r2, #8]
 2666              		.syntax divided
 2667              	@ 1236 "Drivers/CMSIS/Include/cmsis_gcc.h" 1
 2668 0054 81F31088 		MSR primask, r1
 2669              	@ 0 "" 2
 2670              		.thumb
 2671              		.syntax unified
 2672 0058 8023     		movs	r3, #128
 2673 005a E358     		ldr	r3, [r4, r3]
 2674 005c 002B     		cmp	r3, #0
 2675 005e 18D0     		beq	.L194
 2676 0060 1F4A     		ldr	r2, .L197+8
 2677 0062 9A63     		str	r2, [r3, #56]
 2678 0064 8023     		movs	r3, #128
 2679 0066 E058     		ldr	r0, [r4, r3]
 2680 0068 FFF7FEFF 		bl	HAL_DMA_Abort_IT
 2681 006c 0028     		cmp	r0, #0
 2682 006e 31D0     		beq	.L195
 2683 0070 8023     		movs	r3, #128
 2684 0072 E058     		ldr	r0, [r4, r3]
 2685 0074 836B     		ldr	r3, [r0, #56]
 2686 0076 9847     		blx	r3
 2687 0078 2CE0     		b	.L195
 2688              	.L196:
 2689              		.syntax divided
 2690              	@ 1208 "Drivers/CMSIS/Include/cmsis_gcc.h" 1
 2691 007a EFF31081 		MRS r1, primask
 2692              	@ 0 "" 2
 2693              	@ 1236 "Drivers/CMSIS/Include/cmsis_gcc.h" 1
ARM GAS  /var/folders/3q/0p8b__hx1wx8zj8b56q9glhc0000gn/T//ccWFpT72.s 			page 47


 2694 007e 83F31088 		MSR primask, r3
 2695              	@ 0 "" 2
 2696              		.thumb
 2697              		.syntax unified
 2698 0082 2268     		ldr	r2, [r4]
 2699 0084 1368     		ldr	r3, [r2]
 2700 0086 1020     		movs	r0, #16
 2701 0088 8343     		bics	r3, r0
 2702 008a 1360     		str	r3, [r2]
 2703              		.syntax divided
 2704              	@ 1236 "Drivers/CMSIS/Include/cmsis_gcc.h" 1
 2705 008c 81F31088 		MSR primask, r1
 2706              	@ 0 "" 2
 2707              		.thumb
 2708              		.syntax unified
 2709 0090 D2E7     		b	.L192
 2710              	.L194:
 2711 0092 0023     		movs	r3, #0
 2712 0094 5E22     		movs	r2, #94
 2713 0096 A352     		strh	r3, [r4, r2]
 2714 0098 A365     		str	r3, [r4, #88]
 2715 009a 2268     		ldr	r2, [r4]
 2716 009c 0F21     		movs	r1, #15
 2717 009e 1162     		str	r1, [r2, #32]
 2718 00a0 2168     		ldr	r1, [r4]
 2719 00a2 8A69     		ldr	r2, [r1, #24]
 2720 00a4 0820     		movs	r0, #8
 2721 00a6 0243     		orrs	r2, r0
 2722 00a8 8A61     		str	r2, [r1, #24]
 2723 00aa 8C22     		movs	r2, #140
 2724 00ac 2021     		movs	r1, #32
 2725 00ae A150     		str	r1, [r4, r2]
 2726 00b0 E366     		str	r3, [r4, #108]
 2727 00b2 2000     		movs	r0, r4
 2728 00b4 FFF7FEFF 		bl	HAL_UART_AbortReceiveCpltCallback
 2729 00b8 0CE0     		b	.L195
 2730              	.L193:
 2731 00ba 0023     		movs	r3, #0
 2732 00bc 5E21     		movs	r1, #94
 2733 00be 6352     		strh	r3, [r4, r1]
 2734 00c0 A365     		str	r3, [r4, #88]
 2735 00c2 4F39     		subs	r1, r1, #79
 2736 00c4 1162     		str	r1, [r2, #32]
 2737 00c6 8C22     		movs	r2, #140
 2738 00c8 1131     		adds	r1, r1, #17
 2739 00ca A150     		str	r1, [r4, r2]
 2740 00cc E366     		str	r3, [r4, #108]
 2741 00ce 2000     		movs	r0, r4
 2742 00d0 FFF7FEFF 		bl	HAL_UART_AbortReceiveCpltCallback
 2743              	.L195:
 2744 00d4 0020     		movs	r0, #0
 2745              		@ sp needed
 2746 00d6 70BD     		pop	{r4, r5, r6, pc}
 2747              	.L198:
 2748              		.align	2
 2749              	.L197:
 2750 00d8 DFFEFFFF 		.word	-289
ARM GAS  /var/folders/3q/0p8b__hx1wx8zj8b56q9glhc0000gn/T//ccWFpT72.s 			page 48


 2751 00dc FEFFFFEF 		.word	-268435458
 2752 00e0 00000000 		.word	UART_DMARxOnlyAbortCallback
 2754              		.section	.text.UART_DMARxOnlyAbortCallback,"ax",%progbits
 2755              		.align	1
 2756              		.syntax unified
 2757              		.code	16
 2758              		.thumb_func
 2760              	UART_DMARxOnlyAbortCallback:
 2761              		@ args = 0, pretend = 0, frame = 0
 2762              		@ frame_needed = 0, uses_anonymous_args = 0
 2763 0000 10B5     		push	{r4, lr}
 2764 0002 806A     		ldr	r0, [r0, #40]
 2765 0004 0022     		movs	r2, #0
 2766 0006 5E23     		movs	r3, #94
 2767 0008 C252     		strh	r2, [r0, r3]
 2768 000a 0368     		ldr	r3, [r0]
 2769 000c 0F21     		movs	r1, #15
 2770 000e 1962     		str	r1, [r3, #32]
 2771 0010 0168     		ldr	r1, [r0]
 2772 0012 8B69     		ldr	r3, [r1, #24]
 2773 0014 0824     		movs	r4, #8
 2774 0016 2343     		orrs	r3, r4
 2775 0018 8B61     		str	r3, [r1, #24]
 2776 001a 8C23     		movs	r3, #140
 2777 001c 2021     		movs	r1, #32
 2778 001e C150     		str	r1, [r0, r3]
 2779 0020 C266     		str	r2, [r0, #108]
 2780 0022 FFF7FEFF 		bl	HAL_UART_AbortReceiveCpltCallback
 2781              		@ sp needed
 2782 0026 10BD     		pop	{r4, pc}
 2784              		.section	.text.HAL_UARTEx_RxEventCallback,"ax",%progbits
 2785              		.align	1
 2786              		.weak	HAL_UARTEx_RxEventCallback
 2787              		.syntax unified
 2788              		.code	16
 2789              		.thumb_func
 2791              	HAL_UARTEx_RxEventCallback:
 2792              		@ args = 0, pretend = 0, frame = 0
 2793              		@ frame_needed = 0, uses_anonymous_args = 0
 2794              		@ link register save eliminated.
 2795              		@ sp needed
 2796 0000 7047     		bx	lr
 2798              		.section	.text.HAL_UART_IRQHandler,"ax",%progbits
 2799              		.align	1
 2800              		.global	HAL_UART_IRQHandler
 2801              		.syntax unified
 2802              		.code	16
 2803              		.thumb_func
 2805              	HAL_UART_IRQHandler:
 2806              		@ args = 0, pretend = 0, frame = 0
 2807              		@ frame_needed = 0, uses_anonymous_args = 0
 2808 0000 F8B5     		push	{r3, r4, r5, r6, r7, lr}
 2809 0002 0400     		movs	r4, r0
 2810 0004 0268     		ldr	r2, [r0]
 2811 0006 D369     		ldr	r3, [r2, #28]
 2812 0008 1068     		ldr	r0, [r2]
 2813 000a 9168     		ldr	r1, [r2, #8]
ARM GAS  /var/folders/3q/0p8b__hx1wx8zj8b56q9glhc0000gn/T//ccWFpT72.s 			page 49


 2814 000c BD4D     		ldr	r5, .L270
 2815 000e 2B42     		tst	r3, r5
 2816 0010 0BD1     		bne	.L202
 2817 0012 9D06     		lsls	r5, r3, #26
 2818 0014 11D5     		bpl	.L203
 2819 0016 8506     		lsls	r5, r0, #26
 2820 0018 01D4     		bmi	.L204
 2821 001a CD00     		lsls	r5, r1, #3
 2822 001c 0DD5     		bpl	.L203
 2823              	.L204:
 2824 001e 636F     		ldr	r3, [r4, #116]
 2825 0020 002B     		cmp	r3, #0
 2826 0022 2AD0     		beq	.L201
 2827 0024 2000     		movs	r0, r4
 2828 0026 9847     		blx	r3
 2829 0028 27E0     		b	.L201
 2830              	.L202:
 2831 002a B74D     		ldr	r5, .L270+4
 2832 002c 0E00     		movs	r6, r1
 2833 002e 2E40     		ands	r6, r5
 2834 0030 2942     		tst	r1, r5
 2835 0032 23D1     		bne	.L207
 2836 0034 B54D     		ldr	r5, .L270+8
 2837 0036 2842     		tst	r0, r5
 2838 0038 20D1     		bne	.L207
 2839              	.L203:
 2840 003a E56E     		ldr	r5, [r4, #108]
 2841 003c 012D     		cmp	r5, #1
 2842 003e 00D1     		bne	.LCB2310
 2843 0040 A4E0     		b	.L264	@long jump
 2844              	.LCB2310:
 2845              	.L221:
 2846 0042 DD02     		lsls	r5, r3, #11
 2847 0044 02D5     		bpl	.L227
 2848 0046 4D02     		lsls	r5, r1, #9
 2849 0048 00D5     		bpl	.LCB2319
 2850 004a 49E1     		b	.L265	@long jump
 2851              	.LCB2319:
 2852              	.L227:
 2853 004c 1A06     		lsls	r2, r3, #24
 2854 004e 05D5     		bpl	.L228
 2855 0050 0206     		lsls	r2, r0, #24
 2856 0052 00D5     		bpl	.LCB2328
 2857 0054 4BE1     		b	.L229	@long jump
 2858              	.LCB2328:
 2859 0056 0902     		lsls	r1, r1, #8
 2860 0058 00D5     		bpl	.LCB2332
 2861 005a 48E1     		b	.L229	@long jump
 2862              	.LCB2332:
 2863              	.L228:
 2864 005c 5A06     		lsls	r2, r3, #25
 2865 005e 02D5     		bpl	.L231
 2866 0060 4206     		lsls	r2, r0, #25
 2867 0062 00D5     		bpl	.LCB2341
 2868 0064 4AE1     		b	.L266	@long jump
 2869              	.LCB2341:
 2870              	.L231:
ARM GAS  /var/folders/3q/0p8b__hx1wx8zj8b56q9glhc0000gn/T//ccWFpT72.s 			page 50


 2871 0066 1A02     		lsls	r2, r3, #8
 2872 0068 02D5     		bpl	.L232
 2873 006a 4200     		lsls	r2, r0, #1
 2874 006c 00D5     		bpl	.LCB2350
 2875 006e 57E1     		b	.L267	@long jump
 2876              	.LCB2350:
 2877              	.L232:
 2878 0070 DB01     		lsls	r3, r3, #7
 2879 0072 02D5     		bpl	.L201
 2880 0074 0028     		cmp	r0, #0
 2881 0076 00DA     		bge	.LCB2357
 2882 0078 56E1     		b	.L268	@long jump
 2883              	.LCB2357:
 2884              	.L201:
 2885              		@ sp needed
 2886 007a F8BD     		pop	{r3, r4, r5, r6, r7, pc}
 2887              	.L207:
 2888 007c DD07     		lsls	r5, r3, #31
 2889 007e 07D5     		bpl	.L208
 2890 0080 C505     		lsls	r5, r0, #23
 2891 0082 05D5     		bpl	.L208
 2892 0084 0127     		movs	r7, #1
 2893 0086 1762     		str	r7, [r2, #32]
 2894 0088 9025     		movs	r5, #144
 2895 008a 6259     		ldr	r2, [r4, r5]
 2896 008c 3A43     		orrs	r2, r7
 2897 008e 6251     		str	r2, [r4, r5]
 2898              	.L208:
 2899 0090 9A07     		lsls	r2, r3, #30
 2900 0092 09D5     		bpl	.L209
 2901 0094 CA07     		lsls	r2, r1, #31
 2902 0096 07D5     		bpl	.L209
 2903 0098 2268     		ldr	r2, [r4]
 2904 009a 0225     		movs	r5, #2
 2905 009c 1562     		str	r5, [r2, #32]
 2906 009e 8E35     		adds	r5, r5, #142
 2907 00a0 6259     		ldr	r2, [r4, r5]
 2908 00a2 0427     		movs	r7, #4
 2909 00a4 3A43     		orrs	r2, r7
 2910 00a6 6251     		str	r2, [r4, r5]
 2911              	.L209:
 2912 00a8 5A07     		lsls	r2, r3, #29
 2913 00aa 09D5     		bpl	.L210
 2914 00ac CA07     		lsls	r2, r1, #31
 2915 00ae 07D5     		bpl	.L210
 2916 00b0 2268     		ldr	r2, [r4]
 2917 00b2 0425     		movs	r5, #4
 2918 00b4 1562     		str	r5, [r2, #32]
 2919 00b6 8C35     		adds	r5, r5, #140
 2920 00b8 6259     		ldr	r2, [r4, r5]
 2921 00ba 0227     		movs	r7, #2
 2922 00bc 3A43     		orrs	r2, r7
 2923 00be 6251     		str	r2, [r4, r5]
 2924              	.L210:
 2925 00c0 1A07     		lsls	r2, r3, #28
 2926 00c2 0AD5     		bpl	.L211
 2927 00c4 8206     		lsls	r2, r0, #26
ARM GAS  /var/folders/3q/0p8b__hx1wx8zj8b56q9glhc0000gn/T//ccWFpT72.s 			page 51


 2928 00c6 01D4     		bmi	.L212
 2929 00c8 002E     		cmp	r6, #0
 2930 00ca 06D0     		beq	.L211
 2931              	.L212:
 2932 00cc 2268     		ldr	r2, [r4]
 2933 00ce 0826     		movs	r6, #8
 2934 00d0 1662     		str	r6, [r2, #32]
 2935 00d2 9025     		movs	r5, #144
 2936 00d4 6259     		ldr	r2, [r4, r5]
 2937 00d6 3243     		orrs	r2, r6
 2938 00d8 6251     		str	r2, [r4, r5]
 2939              	.L211:
 2940 00da 1A05     		lsls	r2, r3, #20
 2941 00dc 0AD5     		bpl	.L213
 2942 00de 4201     		lsls	r2, r0, #5
 2943 00e0 08D5     		bpl	.L213
 2944 00e2 2268     		ldr	r2, [r4]
 2945 00e4 8025     		movs	r5, #128
 2946 00e6 2D01     		lsls	r5, r5, #4
 2947 00e8 1562     		str	r5, [r2, #32]
 2948 00ea 9025     		movs	r5, #144
 2949 00ec 6259     		ldr	r2, [r4, r5]
 2950 00ee 2026     		movs	r6, #32
 2951 00f0 3243     		orrs	r2, r6
 2952 00f2 6251     		str	r2, [r4, r5]
 2953              	.L213:
 2954 00f4 9022     		movs	r2, #144
 2955 00f6 A258     		ldr	r2, [r4, r2]
 2956 00f8 002A     		cmp	r2, #0
 2957 00fa BED0     		beq	.L201
 2958 00fc 9B06     		lsls	r3, r3, #26
 2959 00fe 08D5     		bpl	.L215
 2960 0100 8006     		lsls	r0, r0, #26
 2961 0102 01D4     		bmi	.L216
 2962 0104 C900     		lsls	r1, r1, #3
 2963 0106 04D5     		bpl	.L215
 2964              	.L216:
 2965 0108 636F     		ldr	r3, [r4, #116]
 2966 010a 002B     		cmp	r3, #0
 2967 010c 01D0     		beq	.L215
 2968 010e 2000     		movs	r0, r4
 2969 0110 9847     		blx	r3
 2970              	.L215:
 2971 0112 9023     		movs	r3, #144
 2972 0114 E258     		ldr	r2, [r4, r3]
 2973 0116 2368     		ldr	r3, [r4]
 2974 0118 9B68     		ldr	r3, [r3, #8]
 2975 011a 5B06     		lsls	r3, r3, #25
 2976 011c 02D4     		bmi	.L217
 2977 011e 2823     		movs	r3, #40
 2978 0120 1342     		tst	r3, r2
 2979 0122 2CD0     		beq	.L218
 2980              	.L217:
 2981 0124 2000     		movs	r0, r4
 2982 0126 FFF7FEFF 		bl	UART_EndRxTransfer
 2983 012a 2368     		ldr	r3, [r4]
 2984 012c 9B68     		ldr	r3, [r3, #8]
ARM GAS  /var/folders/3q/0p8b__hx1wx8zj8b56q9glhc0000gn/T//ccWFpT72.s 			page 52


 2985 012e 5B06     		lsls	r3, r3, #25
 2986 0130 21D5     		bpl	.L219
 2987              		.syntax divided
 2988              	@ 1208 "Drivers/CMSIS/Include/cmsis_gcc.h" 1
 2989 0132 EFF31081 		MRS r1, primask
 2990              	@ 0 "" 2
 2991              		.thumb
 2992              		.syntax unified
 2993 0136 0123     		movs	r3, #1
 2994              		.syntax divided
 2995              	@ 1236 "Drivers/CMSIS/Include/cmsis_gcc.h" 1
 2996 0138 83F31088 		MSR primask, r3
 2997              	@ 0 "" 2
 2998              		.thumb
 2999              		.syntax unified
 3000 013c 2268     		ldr	r2, [r4]
 3001 013e 9368     		ldr	r3, [r2, #8]
 3002 0140 4020     		movs	r0, #64
 3003 0142 8343     		bics	r3, r0
 3004 0144 9360     		str	r3, [r2, #8]
 3005              		.syntax divided
 3006              	@ 1236 "Drivers/CMSIS/Include/cmsis_gcc.h" 1
 3007 0146 81F31088 		MSR primask, r1
 3008              	@ 0 "" 2
 3009              		.thumb
 3010              		.syntax unified
 3011 014a 8023     		movs	r3, #128
 3012 014c E358     		ldr	r3, [r4, r3]
 3013 014e 002B     		cmp	r3, #0
 3014 0150 0DD0     		beq	.L220
 3015 0152 6F4A     		ldr	r2, .L270+12
 3016 0154 9A63     		str	r2, [r3, #56]
 3017 0156 8023     		movs	r3, #128
 3018 0158 E058     		ldr	r0, [r4, r3]
 3019 015a FFF7FEFF 		bl	HAL_DMA_Abort_IT
 3020 015e 0028     		cmp	r0, #0
 3021 0160 00D1     		bne	.LCB2525
 3022 0162 8AE7     		b	.L201	@long jump
 3023              	.LCB2525:
 3024 0164 8023     		movs	r3, #128
 3025 0166 E058     		ldr	r0, [r4, r3]
 3026 0168 836B     		ldr	r3, [r0, #56]
 3027 016a 9847     		blx	r3
 3028 016c 85E7     		b	.L201
 3029              	.L220:
 3030 016e 2000     		movs	r0, r4
 3031 0170 FFF7FEFF 		bl	HAL_UART_ErrorCallback
 3032 0174 81E7     		b	.L201
 3033              	.L219:
 3034 0176 2000     		movs	r0, r4
 3035 0178 FFF7FEFF 		bl	HAL_UART_ErrorCallback
 3036 017c 7DE7     		b	.L201
 3037              	.L218:
 3038 017e 2000     		movs	r0, r4
 3039 0180 FFF7FEFF 		bl	HAL_UART_ErrorCallback
 3040 0184 9023     		movs	r3, #144
 3041 0186 0022     		movs	r2, #0
ARM GAS  /var/folders/3q/0p8b__hx1wx8zj8b56q9glhc0000gn/T//ccWFpT72.s 			page 53


 3042 0188 E250     		str	r2, [r4, r3]
 3043 018a 76E7     		b	.L201
 3044              	.L264:
 3045 018c DD06     		lsls	r5, r3, #27
 3046 018e 00D4     		bmi	.LCB2558
 3047 0190 57E7     		b	.L221	@long jump
 3048              	.LCB2558:
 3049 0192 C506     		lsls	r5, r0, #27
 3050 0194 00D4     		bmi	.LCB2562
 3051 0196 54E7     		b	.L221	@long jump
 3052              	.LCB2562:
 3053 0198 1023     		movs	r3, #16
 3054 019a 1362     		str	r3, [r2, #32]
 3055 019c 2368     		ldr	r3, [r4]
 3056 019e 9B68     		ldr	r3, [r3, #8]
 3057 01a0 5B06     		lsls	r3, r3, #25
 3058 01a2 62D5     		bpl	.L222
 3059 01a4 8023     		movs	r3, #128
 3060 01a6 E158     		ldr	r1, [r4, r3]
 3061 01a8 0A68     		ldr	r2, [r1]
 3062 01aa 5368     		ldr	r3, [r2, #4]
 3063 01ac 9BB2     		uxth	r3, r3
 3064 01ae 002B     		cmp	r3, #0
 3065 01b0 4CD0     		beq	.L223
 3066 01b2 5C20     		movs	r0, #92
 3067 01b4 205A     		ldrh	r0, [r4, r0]
 3068 01b6 9842     		cmp	r0, r3
 3069 01b8 48D9     		bls	.L223
 3070 01ba 5E22     		movs	r2, #94
 3071 01bc A352     		strh	r3, [r4, r2]
 3072 01be 0B68     		ldr	r3, [r1]
 3073 01c0 1B68     		ldr	r3, [r3]
 3074 01c2 9B06     		lsls	r3, r3, #26
 3075 01c4 0BD5     		bpl	.L269
 3076              	.L224:
 3077 01c6 0223     		movs	r3, #2
 3078 01c8 2367     		str	r3, [r4, #112]
 3079 01ca 5A33     		adds	r3, r3, #90
 3080 01cc E15A     		ldrh	r1, [r4, r3]
 3081 01ce 0233     		adds	r3, r3, #2
 3082 01d0 E35A     		ldrh	r3, [r4, r3]
 3083 01d2 C91A     		subs	r1, r1, r3
 3084 01d4 89B2     		uxth	r1, r1
 3085 01d6 2000     		movs	r0, r4
 3086 01d8 FFF7FEFF 		bl	HAL_UARTEx_RxEventCallback
 3087 01dc 4DE7     		b	.L201
 3088              	.L269:
 3089              		.syntax divided
 3090              	@ 1208 "Drivers/CMSIS/Include/cmsis_gcc.h" 1
 3091 01de EFF31080 		MRS r0, primask
 3092              	@ 0 "" 2
 3093              		.thumb
 3094              		.syntax unified
 3095 01e2 0123     		movs	r3, #1
 3096              		.syntax divided
 3097              	@ 1236 "Drivers/CMSIS/Include/cmsis_gcc.h" 1
 3098 01e4 83F31088 		MSR primask, r3
ARM GAS  /var/folders/3q/0p8b__hx1wx8zj8b56q9glhc0000gn/T//ccWFpT72.s 			page 54


 3099              	@ 0 "" 2
 3100              		.thumb
 3101              		.syntax unified
 3102 01e8 2168     		ldr	r1, [r4]
 3103 01ea 0A68     		ldr	r2, [r1]
 3104 01ec 494D     		ldr	r5, .L270+16
 3105 01ee 2A40     		ands	r2, r5
 3106 01f0 0A60     		str	r2, [r1]
 3107              		.syntax divided
 3108              	@ 1236 "Drivers/CMSIS/Include/cmsis_gcc.h" 1
 3109 01f2 80F31088 		MSR primask, r0
 3110              	@ 0 "" 2
 3111              	@ 1208 "Drivers/CMSIS/Include/cmsis_gcc.h" 1
 3112 01f6 EFF31080 		MRS r0, primask
 3113              	@ 0 "" 2
 3114              	@ 1236 "Drivers/CMSIS/Include/cmsis_gcc.h" 1
 3115 01fa 83F31088 		MSR primask, r3
 3116              	@ 0 "" 2
 3117              		.thumb
 3118              		.syntax unified
 3119 01fe 2168     		ldr	r1, [r4]
 3120 0200 8A68     		ldr	r2, [r1, #8]
 3121 0202 9A43     		bics	r2, r3
 3122 0204 8A60     		str	r2, [r1, #8]
 3123              		.syntax divided
 3124              	@ 1236 "Drivers/CMSIS/Include/cmsis_gcc.h" 1
 3125 0206 80F31088 		MSR primask, r0
 3126              	@ 0 "" 2
 3127              	@ 1208 "Drivers/CMSIS/Include/cmsis_gcc.h" 1
 3128 020a EFF31080 		MRS r0, primask
 3129              	@ 0 "" 2
 3130              	@ 1236 "Drivers/CMSIS/Include/cmsis_gcc.h" 1
 3131 020e 83F31088 		MSR primask, r3
 3132              	@ 0 "" 2
 3133              		.thumb
 3134              		.syntax unified
 3135 0212 2168     		ldr	r1, [r4]
 3136 0214 8A68     		ldr	r2, [r1, #8]
 3137 0216 4235     		adds	r5, r5, #66
 3138 0218 FF35     		adds	r5, r5, #255
 3139 021a AA43     		bics	r2, r5
 3140 021c 8A60     		str	r2, [r1, #8]
 3141              		.syntax divided
 3142              	@ 1236 "Drivers/CMSIS/Include/cmsis_gcc.h" 1
 3143 021e 80F31088 		MSR primask, r0
 3144              	@ 0 "" 2
 3145              		.thumb
 3146              		.syntax unified
 3147 0222 8C22     		movs	r2, #140
 3148 0224 2021     		movs	r1, #32
 3149 0226 A150     		str	r1, [r4, r2]
 3150 0228 0022     		movs	r2, #0
 3151 022a E266     		str	r2, [r4, #108]
 3152              		.syntax divided
 3153              	@ 1208 "Drivers/CMSIS/Include/cmsis_gcc.h" 1
 3154 022c EFF31081 		MRS r1, primask
 3155              	@ 0 "" 2
ARM GAS  /var/folders/3q/0p8b__hx1wx8zj8b56q9glhc0000gn/T//ccWFpT72.s 			page 55


 3156              	@ 1236 "Drivers/CMSIS/Include/cmsis_gcc.h" 1
 3157 0230 83F31088 		MSR primask, r3
 3158              	@ 0 "" 2
 3159              		.thumb
 3160              		.syntax unified
 3161 0234 2268     		ldr	r2, [r4]
 3162 0236 1368     		ldr	r3, [r2]
 3163 0238 1020     		movs	r0, #16
 3164 023a 8343     		bics	r3, r0
 3165 023c 1360     		str	r3, [r2]
 3166              		.syntax divided
 3167              	@ 1236 "Drivers/CMSIS/Include/cmsis_gcc.h" 1
 3168 023e 81F31088 		MSR primask, r1
 3169              	@ 0 "" 2
 3170              		.thumb
 3171              		.syntax unified
 3172 0242 8023     		movs	r3, #128
 3173 0244 E058     		ldr	r0, [r4, r3]
 3174 0246 FFF7FEFF 		bl	HAL_DMA_Abort
 3175 024a BCE7     		b	.L224
 3176              	.L223:
 3177 024c 5C21     		movs	r1, #92
 3178 024e 615A     		ldrh	r1, [r4, r1]
 3179 0250 9942     		cmp	r1, r3
 3180 0252 00D0     		beq	.LCB2654
 3181 0254 11E7     		b	.L201	@long jump
 3182              	.LCB2654:
 3183 0256 1368     		ldr	r3, [r2]
 3184 0258 9B06     		lsls	r3, r3, #26
 3185 025a 00D4     		bmi	.LCB2659
 3186 025c 0DE7     		b	.L201	@long jump
 3187              	.LCB2659:
 3188 025e 0223     		movs	r3, #2
 3189 0260 2367     		str	r3, [r4, #112]
 3190 0262 2000     		movs	r0, r4
 3191 0264 FFF7FEFF 		bl	HAL_UARTEx_RxEventCallback
 3192 0268 07E7     		b	.L201
 3193              	.L222:
 3194 026a 5C23     		movs	r3, #92
 3195 026c E35A     		ldrh	r3, [r4, r3]
 3196 026e 5E22     		movs	r2, #94
 3197 0270 A15A     		ldrh	r1, [r4, r2]
 3198 0272 591A     		subs	r1, r3, r1
 3199 0274 89B2     		uxth	r1, r1
 3200 0276 A35A     		ldrh	r3, [r4, r2]
 3201 0278 002B     		cmp	r3, #0
 3202 027a 00D1     		bne	.LCB2678
 3203 027c FDE6     		b	.L201	@long jump
 3204              	.LCB2678:
 3205 027e 0029     		cmp	r1, #0
 3206 0280 00D1     		bne	.LCB2680
 3207 0282 FAE6     		b	.L201	@long jump
 3208              	.LCB2680:
 3209              		.syntax divided
 3210              	@ 1208 "Drivers/CMSIS/Include/cmsis_gcc.h" 1
 3211 0284 EFF31085 		MRS r5, primask
 3212              	@ 0 "" 2
ARM GAS  /var/folders/3q/0p8b__hx1wx8zj8b56q9glhc0000gn/T//ccWFpT72.s 			page 56


 3213              		.thumb
 3214              		.syntax unified
 3215 0288 0123     		movs	r3, #1
 3216              		.syntax divided
 3217              	@ 1236 "Drivers/CMSIS/Include/cmsis_gcc.h" 1
 3218 028a 83F31088 		MSR primask, r3
 3219              	@ 0 "" 2
 3220              		.thumb
 3221              		.syntax unified
 3222 028e 2068     		ldr	r0, [r4]
 3223 0290 0268     		ldr	r2, [r0]
 3224 0292 214E     		ldr	r6, .L270+20
 3225 0294 3240     		ands	r2, r6
 3226 0296 0260     		str	r2, [r0]
 3227              		.syntax divided
 3228              	@ 1236 "Drivers/CMSIS/Include/cmsis_gcc.h" 1
 3229 0298 85F31088 		MSR primask, r5
 3230              	@ 0 "" 2
 3231              	@ 1208 "Drivers/CMSIS/Include/cmsis_gcc.h" 1
 3232 029c EFF31085 		MRS r5, primask
 3233              	@ 0 "" 2
 3234              	@ 1236 "Drivers/CMSIS/Include/cmsis_gcc.h" 1
 3235 02a0 83F31088 		MSR primask, r3
 3236              	@ 0 "" 2
 3237              		.thumb
 3238              		.syntax unified
 3239 02a4 2068     		ldr	r0, [r4]
 3240 02a6 8268     		ldr	r2, [r0, #8]
 3241 02a8 1C4E     		ldr	r6, .L270+24
 3242 02aa 3240     		ands	r2, r6
 3243 02ac 8260     		str	r2, [r0, #8]
 3244              		.syntax divided
 3245              	@ 1236 "Drivers/CMSIS/Include/cmsis_gcc.h" 1
 3246 02ae 85F31088 		MSR primask, r5
 3247              	@ 0 "" 2
 3248              		.thumb
 3249              		.syntax unified
 3250 02b2 8C22     		movs	r2, #140
 3251 02b4 2020     		movs	r0, #32
 3252 02b6 A050     		str	r0, [r4, r2]
 3253 02b8 0022     		movs	r2, #0
 3254 02ba E266     		str	r2, [r4, #108]
 3255 02bc 6267     		str	r2, [r4, #116]
 3256              		.syntax divided
 3257              	@ 1208 "Drivers/CMSIS/Include/cmsis_gcc.h" 1
 3258 02be EFF31080 		MRS r0, primask
 3259              	@ 0 "" 2
 3260              	@ 1236 "Drivers/CMSIS/Include/cmsis_gcc.h" 1
 3261 02c2 83F31088 		MSR primask, r3
 3262              	@ 0 "" 2
 3263              		.thumb
 3264              		.syntax unified
 3265 02c6 2268     		ldr	r2, [r4]
 3266 02c8 1368     		ldr	r3, [r2]
 3267 02ca 1025     		movs	r5, #16
 3268 02cc AB43     		bics	r3, r5
 3269 02ce 1360     		str	r3, [r2]
ARM GAS  /var/folders/3q/0p8b__hx1wx8zj8b56q9glhc0000gn/T//ccWFpT72.s 			page 57


 3270              		.syntax divided
 3271              	@ 1236 "Drivers/CMSIS/Include/cmsis_gcc.h" 1
 3272 02d0 80F31088 		MSR primask, r0
 3273              	@ 0 "" 2
 3274              		.thumb
 3275              		.syntax unified
 3276 02d4 0223     		movs	r3, #2
 3277 02d6 2367     		str	r3, [r4, #112]
 3278 02d8 2000     		movs	r0, r4
 3279 02da FFF7FEFF 		bl	HAL_UARTEx_RxEventCallback
 3280 02de CCE6     		b	.L201
 3281              	.L265:
 3282 02e0 8023     		movs	r3, #128
 3283 02e2 5B03     		lsls	r3, r3, #13
 3284 02e4 1362     		str	r3, [r2, #32]
 3285 02e6 2000     		movs	r0, r4
 3286 02e8 FFF7FEFF 		bl	HAL_UARTEx_WakeupCallback
 3287 02ec C5E6     		b	.L201
 3288              	.L229:
 3289 02ee A36F     		ldr	r3, [r4, #120]
 3290 02f0 002B     		cmp	r3, #0
 3291 02f2 00D1     		bne	.LCB2731
 3292 02f4 C1E6     		b	.L201	@long jump
 3293              	.LCB2731:
 3294 02f6 2000     		movs	r0, r4
 3295 02f8 9847     		blx	r3
 3296 02fa BEE6     		b	.L201
 3297              	.L266:
 3298 02fc 2000     		movs	r0, r4
 3299 02fe FFF7FEFF 		bl	UART_EndTransmit_IT
 3300 0302 BAE6     		b	.L201
 3301              	.L271:
 3302              		.align	2
 3303              	.L270:
 3304 0304 0F080000 		.word	2063
 3305 0308 01000010 		.word	268435457
 3306 030c 20010004 		.word	67109152
 3307 0310 00000000 		.word	UART_DMAAbortOnError
 3308 0314 FFFEFFFF 		.word	-257
 3309 0318 DFFEFFFF 		.word	-289
 3310 031c FEFFFFEF 		.word	-268435458
 3311              	.L267:
 3312 0320 2000     		movs	r0, r4
 3313 0322 FFF7FEFF 		bl	HAL_UARTEx_TxFifoEmptyCallback
 3314 0326 A8E6     		b	.L201
 3315              	.L268:
 3316 0328 2000     		movs	r0, r4
 3317 032a FFF7FEFF 		bl	HAL_UARTEx_RxFifoFullCallback
 3318 032e A4E6     		b	.L201
 3320              		.section	.text.UART_RxISR_8BIT,"ax",%progbits
 3321              		.align	1
 3322              		.syntax unified
 3323              		.code	16
 3324              		.thumb_func
 3326              	UART_RxISR_8BIT:
 3327              		@ args = 0, pretend = 0, frame = 0
 3328              		@ frame_needed = 0, uses_anonymous_args = 0
ARM GAS  /var/folders/3q/0p8b__hx1wx8zj8b56q9glhc0000gn/T//ccWFpT72.s 			page 58


 3329 0000 10B5     		push	{r4, lr}
 3330 0002 6023     		movs	r3, #96
 3331 0004 C35A     		ldrh	r3, [r0, r3]
 3332 0006 8C22     		movs	r2, #140
 3333 0008 8258     		ldr	r2, [r0, r2]
 3334 000a 222A     		cmp	r2, #34
 3335 000c 05D0     		beq	.L279
 3336 000e 0268     		ldr	r2, [r0]
 3337 0010 9369     		ldr	r3, [r2, #24]
 3338 0012 0821     		movs	r1, #8
 3339 0014 0B43     		orrs	r3, r1
 3340 0016 9361     		str	r3, [r2, #24]
 3341              	.L272:
 3342              		@ sp needed
 3343 0018 10BD     		pop	{r4, pc}
 3344              	.L279:
 3345 001a 0268     		ldr	r2, [r0]
 3346 001c 526A     		ldr	r2, [r2, #36]
 3347 001e DBB2     		uxtb	r3, r3
 3348 0020 816D     		ldr	r1, [r0, #88]
 3349 0022 1340     		ands	r3, r2
 3350 0024 0B70     		strb	r3, [r1]
 3351 0026 836D     		ldr	r3, [r0, #88]
 3352 0028 0133     		adds	r3, r3, #1
 3353 002a 8365     		str	r3, [r0, #88]
 3354 002c 5E22     		movs	r2, #94
 3355 002e 835A     		ldrh	r3, [r0, r2]
 3356 0030 013B     		subs	r3, r3, #1
 3357 0032 9BB2     		uxth	r3, r3
 3358 0034 8352     		strh	r3, [r0, r2]
 3359 0036 835A     		ldrh	r3, [r0, r2]
 3360 0038 002B     		cmp	r3, #0
 3361 003a EDD1     		bne	.L272
 3362              		.syntax divided
 3363              	@ 1208 "Drivers/CMSIS/Include/cmsis_gcc.h" 1
 3364 003c EFF3108C 		MRS ip, primask
 3365              	@ 0 "" 2
 3366              		.thumb
 3367              		.syntax unified
 3368 0040 5D3A     		subs	r2, r2, #93
 3369              		.syntax divided
 3370              	@ 1236 "Drivers/CMSIS/Include/cmsis_gcc.h" 1
 3371 0042 82F31088 		MSR primask, r2
 3372              	@ 0 "" 2
 3373              		.thumb
 3374              		.syntax unified
 3375 0046 0168     		ldr	r1, [r0]
 3376 0048 0B68     		ldr	r3, [r1]
 3377 004a 214C     		ldr	r4, .L280
 3378 004c 2340     		ands	r3, r4
 3379 004e 0B60     		str	r3, [r1]
 3380              		.syntax divided
 3381              	@ 1236 "Drivers/CMSIS/Include/cmsis_gcc.h" 1
 3382 0050 8CF31088 		MSR primask, ip
 3383              	@ 0 "" 2
 3384              	@ 1208 "Drivers/CMSIS/Include/cmsis_gcc.h" 1
 3385 0054 EFF3108C 		MRS ip, primask
ARM GAS  /var/folders/3q/0p8b__hx1wx8zj8b56q9glhc0000gn/T//ccWFpT72.s 			page 59


 3386              	@ 0 "" 2
 3387              	@ 1236 "Drivers/CMSIS/Include/cmsis_gcc.h" 1
 3388 0058 82F31088 		MSR primask, r2
 3389              	@ 0 "" 2
 3390              		.thumb
 3391              		.syntax unified
 3392 005c 0168     		ldr	r1, [r0]
 3393 005e 8B68     		ldr	r3, [r1, #8]
 3394 0060 9343     		bics	r3, r2
 3395 0062 8B60     		str	r3, [r1, #8]
 3396              		.syntax divided
 3397              	@ 1236 "Drivers/CMSIS/Include/cmsis_gcc.h" 1
 3398 0064 8CF31088 		MSR primask, ip
 3399              	@ 0 "" 2
 3400              		.thumb
 3401              		.syntax unified
 3402 0068 8C23     		movs	r3, #140
 3403 006a 1F32     		adds	r2, r2, #31
 3404 006c C250     		str	r2, [r0, r3]
 3405 006e 0023     		movs	r3, #0
 3406 0070 4367     		str	r3, [r0, #116]
 3407 0072 0367     		str	r3, [r0, #112]
 3408 0074 0368     		ldr	r3, [r0]
 3409 0076 5B68     		ldr	r3, [r3, #4]
 3410 0078 1B02     		lsls	r3, r3, #8
 3411 007a 0BD5     		bpl	.L275
 3412              		.syntax divided
 3413              	@ 1208 "Drivers/CMSIS/Include/cmsis_gcc.h" 1
 3414 007c EFF31081 		MRS r1, primask
 3415              	@ 0 "" 2
 3416              		.thumb
 3417              		.syntax unified
 3418 0080 0123     		movs	r3, #1
 3419              		.syntax divided
 3420              	@ 1236 "Drivers/CMSIS/Include/cmsis_gcc.h" 1
 3421 0082 83F31088 		MSR primask, r3
 3422              	@ 0 "" 2
 3423              		.thumb
 3424              		.syntax unified
 3425 0086 0268     		ldr	r2, [r0]
 3426 0088 1368     		ldr	r3, [r2]
 3427 008a 124C     		ldr	r4, .L280+4
 3428 008c 2340     		ands	r3, r4
 3429 008e 1360     		str	r3, [r2]
 3430              		.syntax divided
 3431              	@ 1236 "Drivers/CMSIS/Include/cmsis_gcc.h" 1
 3432 0090 81F31088 		MSR primask, r1
 3433              	@ 0 "" 2
 3434              		.thumb
 3435              		.syntax unified
 3436              	.L275:
 3437 0094 C36E     		ldr	r3, [r0, #108]
 3438 0096 012B     		cmp	r3, #1
 3439 0098 17D1     		bne	.L276
 3440 009a 0023     		movs	r3, #0
 3441 009c C366     		str	r3, [r0, #108]
 3442              		.syntax divided
ARM GAS  /var/folders/3q/0p8b__hx1wx8zj8b56q9glhc0000gn/T//ccWFpT72.s 			page 60


 3443              	@ 1208 "Drivers/CMSIS/Include/cmsis_gcc.h" 1
 3444 009e EFF31084 		MRS r4, primask
 3445              	@ 0 "" 2
 3446              		.thumb
 3447              		.syntax unified
 3448 00a2 0133     		adds	r3, r3, #1
 3449              		.syntax divided
 3450              	@ 1236 "Drivers/CMSIS/Include/cmsis_gcc.h" 1
 3451 00a4 83F31088 		MSR primask, r3
 3452              	@ 0 "" 2
 3453              		.thumb
 3454              		.syntax unified
 3455 00a8 0168     		ldr	r1, [r0]
 3456 00aa 0B68     		ldr	r3, [r1]
 3457 00ac 1022     		movs	r2, #16
 3458 00ae 9343     		bics	r3, r2
 3459 00b0 0B60     		str	r3, [r1]
 3460              		.syntax divided
 3461              	@ 1236 "Drivers/CMSIS/Include/cmsis_gcc.h" 1
 3462 00b2 84F31088 		MSR primask, r4
 3463              	@ 0 "" 2
 3464              		.thumb
 3465              		.syntax unified
 3466 00b6 0368     		ldr	r3, [r0]
 3467 00b8 D969     		ldr	r1, [r3, #28]
 3468 00ba 0A42     		tst	r2, r1
 3469 00bc 00D0     		beq	.L277
 3470 00be 1A62     		str	r2, [r3, #32]
 3471              	.L277:
 3472 00c0 5C23     		movs	r3, #92
 3473 00c2 C15A     		ldrh	r1, [r0, r3]
 3474 00c4 FFF7FEFF 		bl	HAL_UARTEx_RxEventCallback
 3475 00c8 A6E7     		b	.L272
 3476              	.L276:
 3477 00ca FFF7FEFF 		bl	HAL_UART_RxCpltCallback
 3478 00ce A3E7     		b	.L272
 3479              	.L281:
 3480              		.align	2
 3481              	.L280:
 3482 00d0 DFFEFFFF 		.word	-289
 3483 00d4 FFFFFFFB 		.word	-67108865
 3485              		.section	.text.UART_RxISR_16BIT,"ax",%progbits
 3486              		.align	1
 3487              		.syntax unified
 3488              		.code	16
 3489              		.thumb_func
 3491              	UART_RxISR_16BIT:
 3492              		@ args = 0, pretend = 0, frame = 0
 3493              		@ frame_needed = 0, uses_anonymous_args = 0
 3494 0000 10B5     		push	{r4, lr}
 3495 0002 6023     		movs	r3, #96
 3496 0004 C25A     		ldrh	r2, [r0, r3]
 3497 0006 2C33     		adds	r3, r3, #44
 3498 0008 C358     		ldr	r3, [r0, r3]
 3499 000a 222B     		cmp	r3, #34
 3500 000c 05D0     		beq	.L289
 3501 000e 0268     		ldr	r2, [r0]
ARM GAS  /var/folders/3q/0p8b__hx1wx8zj8b56q9glhc0000gn/T//ccWFpT72.s 			page 61


 3502 0010 9369     		ldr	r3, [r2, #24]
 3503 0012 0821     		movs	r1, #8
 3504 0014 0B43     		orrs	r3, r1
 3505 0016 9361     		str	r3, [r2, #24]
 3506              	.L282:
 3507              		@ sp needed
 3508 0018 10BD     		pop	{r4, pc}
 3509              	.L289:
 3510 001a 0368     		ldr	r3, [r0]
 3511 001c 5B6A     		ldr	r3, [r3, #36]
 3512 001e 816D     		ldr	r1, [r0, #88]
 3513 0020 1340     		ands	r3, r2
 3514 0022 0B80     		strh	r3, [r1]
 3515 0024 836D     		ldr	r3, [r0, #88]
 3516 0026 0233     		adds	r3, r3, #2
 3517 0028 8365     		str	r3, [r0, #88]
 3518 002a 5E22     		movs	r2, #94
 3519 002c 835A     		ldrh	r3, [r0, r2]
 3520 002e 013B     		subs	r3, r3, #1
 3521 0030 9BB2     		uxth	r3, r3
 3522 0032 8352     		strh	r3, [r0, r2]
 3523 0034 835A     		ldrh	r3, [r0, r2]
 3524 0036 002B     		cmp	r3, #0
 3525 0038 EED1     		bne	.L282
 3526              		.syntax divided
 3527              	@ 1208 "Drivers/CMSIS/Include/cmsis_gcc.h" 1
 3528 003a EFF3108C 		MRS ip, primask
 3529              	@ 0 "" 2
 3530              		.thumb
 3531              		.syntax unified
 3532 003e 5D3A     		subs	r2, r2, #93
 3533              		.syntax divided
 3534              	@ 1236 "Drivers/CMSIS/Include/cmsis_gcc.h" 1
 3535 0040 82F31088 		MSR primask, r2
 3536              	@ 0 "" 2
 3537              		.thumb
 3538              		.syntax unified
 3539 0044 0168     		ldr	r1, [r0]
 3540 0046 0B68     		ldr	r3, [r1]
 3541 0048 214C     		ldr	r4, .L290
 3542 004a 2340     		ands	r3, r4
 3543 004c 0B60     		str	r3, [r1]
 3544              		.syntax divided
 3545              	@ 1236 "Drivers/CMSIS/Include/cmsis_gcc.h" 1
 3546 004e 8CF31088 		MSR primask, ip
 3547              	@ 0 "" 2
 3548              	@ 1208 "Drivers/CMSIS/Include/cmsis_gcc.h" 1
 3549 0052 EFF3108C 		MRS ip, primask
 3550              	@ 0 "" 2
 3551              	@ 1236 "Drivers/CMSIS/Include/cmsis_gcc.h" 1
 3552 0056 82F31088 		MSR primask, r2
 3553              	@ 0 "" 2
 3554              		.thumb
 3555              		.syntax unified
 3556 005a 0168     		ldr	r1, [r0]
 3557 005c 8B68     		ldr	r3, [r1, #8]
 3558 005e 9343     		bics	r3, r2
ARM GAS  /var/folders/3q/0p8b__hx1wx8zj8b56q9glhc0000gn/T//ccWFpT72.s 			page 62


 3559 0060 8B60     		str	r3, [r1, #8]
 3560              		.syntax divided
 3561              	@ 1236 "Drivers/CMSIS/Include/cmsis_gcc.h" 1
 3562 0062 8CF31088 		MSR primask, ip
 3563              	@ 0 "" 2
 3564              		.thumb
 3565              		.syntax unified
 3566 0066 8C23     		movs	r3, #140
 3567 0068 1F32     		adds	r2, r2, #31
 3568 006a C250     		str	r2, [r0, r3]
 3569 006c 0023     		movs	r3, #0
 3570 006e 4367     		str	r3, [r0, #116]
 3571 0070 0367     		str	r3, [r0, #112]
 3572 0072 0368     		ldr	r3, [r0]
 3573 0074 5B68     		ldr	r3, [r3, #4]
 3574 0076 1B02     		lsls	r3, r3, #8
 3575 0078 0BD5     		bpl	.L285
 3576              		.syntax divided
 3577              	@ 1208 "Drivers/CMSIS/Include/cmsis_gcc.h" 1
 3578 007a EFF31081 		MRS r1, primask
 3579              	@ 0 "" 2
 3580              		.thumb
 3581              		.syntax unified
 3582 007e 0123     		movs	r3, #1
 3583              		.syntax divided
 3584              	@ 1236 "Drivers/CMSIS/Include/cmsis_gcc.h" 1
 3585 0080 83F31088 		MSR primask, r3
 3586              	@ 0 "" 2
 3587              		.thumb
 3588              		.syntax unified
 3589 0084 0268     		ldr	r2, [r0]
 3590 0086 1368     		ldr	r3, [r2]
 3591 0088 124C     		ldr	r4, .L290+4
 3592 008a 2340     		ands	r3, r4
 3593 008c 1360     		str	r3, [r2]
 3594              		.syntax divided
 3595              	@ 1236 "Drivers/CMSIS/Include/cmsis_gcc.h" 1
 3596 008e 81F31088 		MSR primask, r1
 3597              	@ 0 "" 2
 3598              		.thumb
 3599              		.syntax unified
 3600              	.L285:
 3601 0092 C36E     		ldr	r3, [r0, #108]
 3602 0094 012B     		cmp	r3, #1
 3603 0096 17D1     		bne	.L286
 3604 0098 0023     		movs	r3, #0
 3605 009a C366     		str	r3, [r0, #108]
 3606              		.syntax divided
 3607              	@ 1208 "Drivers/CMSIS/Include/cmsis_gcc.h" 1
 3608 009c EFF31084 		MRS r4, primask
 3609              	@ 0 "" 2
 3610              		.thumb
 3611              		.syntax unified
 3612 00a0 0133     		adds	r3, r3, #1
 3613              		.syntax divided
 3614              	@ 1236 "Drivers/CMSIS/Include/cmsis_gcc.h" 1
 3615 00a2 83F31088 		MSR primask, r3
ARM GAS  /var/folders/3q/0p8b__hx1wx8zj8b56q9glhc0000gn/T//ccWFpT72.s 			page 63


 3616              	@ 0 "" 2
 3617              		.thumb
 3618              		.syntax unified
 3619 00a6 0168     		ldr	r1, [r0]
 3620 00a8 0B68     		ldr	r3, [r1]
 3621 00aa 1022     		movs	r2, #16
 3622 00ac 9343     		bics	r3, r2
 3623 00ae 0B60     		str	r3, [r1]
 3624              		.syntax divided
 3625              	@ 1236 "Drivers/CMSIS/Include/cmsis_gcc.h" 1
 3626 00b0 84F31088 		MSR primask, r4
 3627              	@ 0 "" 2
 3628              		.thumb
 3629              		.syntax unified
 3630 00b4 0368     		ldr	r3, [r0]
 3631 00b6 D969     		ldr	r1, [r3, #28]
 3632 00b8 0A42     		tst	r2, r1
 3633 00ba 00D0     		beq	.L287
 3634 00bc 1A62     		str	r2, [r3, #32]
 3635              	.L287:
 3636 00be 5C23     		movs	r3, #92
 3637 00c0 C15A     		ldrh	r1, [r0, r3]
 3638 00c2 FFF7FEFF 		bl	HAL_UARTEx_RxEventCallback
 3639 00c6 A7E7     		b	.L282
 3640              	.L286:
 3641 00c8 FFF7FEFF 		bl	HAL_UART_RxCpltCallback
 3642 00cc A4E7     		b	.L282
 3643              	.L291:
 3644 00ce C046     		.align	2
 3645              	.L290:
 3646 00d0 DFFEFFFF 		.word	-289
 3647 00d4 FFFFFFFB 		.word	-67108865
 3649              		.section	.text.UART_RxISR_8BIT_FIFOEN,"ax",%progbits
 3650              		.align	1
 3651              		.syntax unified
 3652              		.code	16
 3653              		.thumb_func
 3655              	UART_RxISR_8BIT_FIFOEN:
 3656              		@ args = 0, pretend = 0, frame = 8
 3657              		@ frame_needed = 0, uses_anonymous_args = 0
 3658 0000 F0B5     		push	{r4, r5, r6, r7, lr}
 3659 0002 C646     		mov	lr, r8
 3660 0004 00B5     		push	{lr}
 3661 0006 82B0     		sub	sp, sp, #8
 3662 0008 0400     		movs	r4, r0
 3663 000a 6023     		movs	r3, #96
 3664 000c C35A     		ldrh	r3, [r0, r3]
 3665 000e 0193     		str	r3, [sp, #4]
 3666 0010 0368     		ldr	r3, [r0]
 3667 0012 DD69     		ldr	r5, [r3, #28]
 3668 0014 1A68     		ldr	r2, [r3]
 3669 0016 9046     		mov	r8, r2
 3670 0018 9F68     		ldr	r7, [r3, #8]
 3671 001a 8C22     		movs	r2, #140
 3672 001c 8258     		ldr	r2, [r0, r2]
 3673 001e 222A     		cmp	r2, #34
 3674 0020 07D0     		beq	.L313
ARM GAS  /var/folders/3q/0p8b__hx1wx8zj8b56q9glhc0000gn/T//ccWFpT72.s 			page 64


 3675 0022 9A69     		ldr	r2, [r3, #24]
 3676 0024 0821     		movs	r1, #8
 3677 0026 0A43     		orrs	r2, r1
 3678 0028 9A61     		str	r2, [r3, #24]
 3679              	.L292:
 3680 002a 02B0     		add	sp, sp, #8
 3681              		@ sp needed
 3682 002c 80BC     		pop	{r7}
 3683 002e B846     		mov	r8, r7
 3684 0030 F0BD     		pop	{r4, r5, r6, r7, pc}
 3685              	.L313:
 3686 0032 6823     		movs	r3, #104
 3687 0034 C65A     		ldrh	r6, [r0, r3]
 3688 0036 07E0     		b	.L294
 3689              	.L298:
 3690 0038 9023     		movs	r3, #144
 3691 003a E358     		ldr	r3, [r4, r3]
 3692 003c 002B     		cmp	r3, #0
 3693 003e 40D1     		bne	.L314
 3694              	.L295:
 3695 0040 5E23     		movs	r3, #94
 3696 0042 E35A     		ldrh	r3, [r4, r3]
 3697 0044 002B     		cmp	r3, #0
 3698 0046 43D0     		beq	.L315
 3699              	.L294:
 3700 0048 002E     		cmp	r6, #0
 3701 004a 00D1     		bne	.LCB3073
 3702 004c 88E0     		b	.L302	@long jump
 3703              	.LCB3073:
 3704 004e AD06     		lsls	r5, r5, #26
 3705 0050 00D4     		bmi	.LCB3077
 3706 0052 85E0     		b	.L302	@long jump
 3707              	.LCB3077:
 3708 0054 2368     		ldr	r3, [r4]
 3709 0056 5B6A     		ldr	r3, [r3, #36]
 3710 0058 6A46     		mov	r2, sp
 3711 005a 1279     		ldrb	r2, [r2, #4]
 3712 005c A16D     		ldr	r1, [r4, #88]
 3713 005e 1340     		ands	r3, r2
 3714 0060 0B70     		strb	r3, [r1]
 3715 0062 A36D     		ldr	r3, [r4, #88]
 3716 0064 0133     		adds	r3, r3, #1
 3717 0066 A365     		str	r3, [r4, #88]
 3718 0068 5E22     		movs	r2, #94
 3719 006a A35A     		ldrh	r3, [r4, r2]
 3720 006c 013B     		subs	r3, r3, #1
 3721 006e 9BB2     		uxth	r3, r3
 3722 0070 A352     		strh	r3, [r4, r2]
 3723 0072 2368     		ldr	r3, [r4]
 3724 0074 DD69     		ldr	r5, [r3, #28]
 3725 0076 6A07     		lsls	r2, r5, #29
 3726 0078 E2D0     		beq	.L295
 3727 007a EA07     		lsls	r2, r5, #31
 3728 007c 08D5     		bpl	.L296
 3729 007e 4246     		mov	r2, r8
 3730 0080 D205     		lsls	r2, r2, #23
 3731 0082 05D5     		bpl	.L296
ARM GAS  /var/folders/3q/0p8b__hx1wx8zj8b56q9glhc0000gn/T//ccWFpT72.s 			page 65


 3732 0084 0121     		movs	r1, #1
 3733 0086 1962     		str	r1, [r3, #32]
 3734 0088 9022     		movs	r2, #144
 3735 008a A358     		ldr	r3, [r4, r2]
 3736 008c 0B43     		orrs	r3, r1
 3737 008e A350     		str	r3, [r4, r2]
 3738              	.L296:
 3739 0090 AB07     		lsls	r3, r5, #30
 3740 0092 09D5     		bpl	.L297
 3741 0094 FB07     		lsls	r3, r7, #31
 3742 0096 07D5     		bpl	.L297
 3743 0098 2368     		ldr	r3, [r4]
 3744 009a 0222     		movs	r2, #2
 3745 009c 1A62     		str	r2, [r3, #32]
 3746 009e 8E32     		adds	r2, r2, #142
 3747 00a0 A358     		ldr	r3, [r4, r2]
 3748 00a2 0421     		movs	r1, #4
 3749 00a4 0B43     		orrs	r3, r1
 3750 00a6 A350     		str	r3, [r4, r2]
 3751              	.L297:
 3752 00a8 6B07     		lsls	r3, r5, #29
 3753 00aa C5D5     		bpl	.L298
 3754 00ac FB07     		lsls	r3, r7, #31
 3755 00ae C3D5     		bpl	.L298
 3756 00b0 2368     		ldr	r3, [r4]
 3757 00b2 0422     		movs	r2, #4
 3758 00b4 1A62     		str	r2, [r3, #32]
 3759 00b6 8C32     		adds	r2, r2, #140
 3760 00b8 A358     		ldr	r3, [r4, r2]
 3761 00ba 0221     		movs	r1, #2
 3762 00bc 0B43     		orrs	r3, r1
 3763 00be A350     		str	r3, [r4, r2]
 3764 00c0 BAE7     		b	.L298
 3765              	.L314:
 3766 00c2 2000     		movs	r0, r4
 3767 00c4 FFF7FEFF 		bl	HAL_UART_ErrorCallback
 3768 00c8 9023     		movs	r3, #144
 3769 00ca 0022     		movs	r2, #0
 3770 00cc E250     		str	r2, [r4, r3]
 3771 00ce B7E7     		b	.L295
 3772              	.L315:
 3773              		.syntax divided
 3774              	@ 1208 "Drivers/CMSIS/Include/cmsis_gcc.h" 1
 3775 00d0 EFF31080 		MRS r0, primask
 3776              	@ 0 "" 2
 3777              		.thumb
 3778              		.syntax unified
 3779 00d4 0122     		movs	r2, #1
 3780              		.syntax divided
 3781              	@ 1236 "Drivers/CMSIS/Include/cmsis_gcc.h" 1
 3782 00d6 82F31088 		MSR primask, r2
 3783              	@ 0 "" 2
 3784              		.thumb
 3785              		.syntax unified
 3786 00da 2168     		ldr	r1, [r4]
 3787 00dc 0B68     		ldr	r3, [r1]
 3788 00de 354D     		ldr	r5, .L316
ARM GAS  /var/folders/3q/0p8b__hx1wx8zj8b56q9glhc0000gn/T//ccWFpT72.s 			page 66


 3789 00e0 2B40     		ands	r3, r5
 3790 00e2 0B60     		str	r3, [r1]
 3791              		.syntax divided
 3792              	@ 1236 "Drivers/CMSIS/Include/cmsis_gcc.h" 1
 3793 00e4 80F31088 		MSR primask, r0
 3794              	@ 0 "" 2
 3795              	@ 1208 "Drivers/CMSIS/Include/cmsis_gcc.h" 1
 3796 00e8 EFF31081 		MRS r1, primask
 3797              	@ 0 "" 2
 3798              	@ 1236 "Drivers/CMSIS/Include/cmsis_gcc.h" 1
 3799 00ec 82F31088 		MSR primask, r2
 3800              	@ 0 "" 2
 3801              		.thumb
 3802              		.syntax unified
 3803 00f0 2268     		ldr	r2, [r4]
 3804 00f2 9368     		ldr	r3, [r2, #8]
 3805 00f4 3048     		ldr	r0, .L316+4
 3806 00f6 0340     		ands	r3, r0
 3807 00f8 9360     		str	r3, [r2, #8]
 3808              		.syntax divided
 3809              	@ 1236 "Drivers/CMSIS/Include/cmsis_gcc.h" 1
 3810 00fa 81F31088 		MSR primask, r1
 3811              	@ 0 "" 2
 3812              		.thumb
 3813              		.syntax unified
 3814 00fe 8C23     		movs	r3, #140
 3815 0100 2022     		movs	r2, #32
 3816 0102 E250     		str	r2, [r4, r3]
 3817 0104 0023     		movs	r3, #0
 3818 0106 6367     		str	r3, [r4, #116]
 3819 0108 2367     		str	r3, [r4, #112]
 3820 010a 2368     		ldr	r3, [r4]
 3821 010c 5B68     		ldr	r3, [r3, #4]
 3822 010e 1B02     		lsls	r3, r3, #8
 3823 0110 0BD5     		bpl	.L299
 3824              		.syntax divided
 3825              	@ 1208 "Drivers/CMSIS/Include/cmsis_gcc.h" 1
 3826 0112 EFF31081 		MRS r1, primask
 3827              	@ 0 "" 2
 3828              		.thumb
 3829              		.syntax unified
 3830 0116 0123     		movs	r3, #1
 3831              		.syntax divided
 3832              	@ 1236 "Drivers/CMSIS/Include/cmsis_gcc.h" 1
 3833 0118 83F31088 		MSR primask, r3
 3834              	@ 0 "" 2
 3835              		.thumb
 3836              		.syntax unified
 3837 011c 2268     		ldr	r2, [r4]
 3838 011e 1368     		ldr	r3, [r2]
 3839 0120 2648     		ldr	r0, .L316+8
 3840 0122 0340     		ands	r3, r0
 3841 0124 1360     		str	r3, [r2]
 3842              		.syntax divided
 3843              	@ 1236 "Drivers/CMSIS/Include/cmsis_gcc.h" 1
 3844 0126 81F31088 		MSR primask, r1
 3845              	@ 0 "" 2
ARM GAS  /var/folders/3q/0p8b__hx1wx8zj8b56q9glhc0000gn/T//ccWFpT72.s 			page 67


 3846              		.thumb
 3847              		.syntax unified
 3848              	.L299:
 3849 012a E36E     		ldr	r3, [r4, #108]
 3850 012c 012B     		cmp	r3, #1
 3851 012e 3CD1     		bne	.L300
 3852 0130 0023     		movs	r3, #0
 3853 0132 E366     		str	r3, [r4, #108]
 3854              		.syntax divided
 3855              	@ 1208 "Drivers/CMSIS/Include/cmsis_gcc.h" 1
 3856 0134 EFF31080 		MRS r0, primask
 3857              	@ 0 "" 2
 3858              		.thumb
 3859              		.syntax unified
 3860 0138 0133     		adds	r3, r3, #1
 3861              		.syntax divided
 3862              	@ 1236 "Drivers/CMSIS/Include/cmsis_gcc.h" 1
 3863 013a 83F31088 		MSR primask, r3
 3864              	@ 0 "" 2
 3865              		.thumb
 3866              		.syntax unified
 3867 013e 2168     		ldr	r1, [r4]
 3868 0140 0B68     		ldr	r3, [r1]
 3869 0142 1022     		movs	r2, #16
 3870 0144 9343     		bics	r3, r2
 3871 0146 0B60     		str	r3, [r1]
 3872              		.syntax divided
 3873              	@ 1236 "Drivers/CMSIS/Include/cmsis_gcc.h" 1
 3874 0148 80F31088 		MSR primask, r0
 3875              	@ 0 "" 2
 3876              		.thumb
 3877              		.syntax unified
 3878 014c 2368     		ldr	r3, [r4]
 3879 014e D969     		ldr	r1, [r3, #28]
 3880 0150 0A42     		tst	r2, r1
 3881 0152 00D0     		beq	.L301
 3882 0154 1A62     		str	r2, [r3, #32]
 3883              	.L301:
 3884 0156 5C23     		movs	r3, #92
 3885 0158 E15A     		ldrh	r1, [r4, r3]
 3886 015a 2000     		movs	r0, r4
 3887 015c FFF7FEFF 		bl	HAL_UARTEx_RxEventCallback
 3888              	.L302:
 3889 0160 5E23     		movs	r3, #94
 3890 0162 E35A     		ldrh	r3, [r4, r3]
 3891 0164 9AB2     		uxth	r2, r3
 3892 0166 002B     		cmp	r3, #0
 3893 0168 00D1     		bne	.LCB3237
 3894 016a 5EE7     		b	.L292	@long jump
 3895              	.LCB3237:
 3896 016c 6823     		movs	r3, #104
 3897 016e E35A     		ldrh	r3, [r4, r3]
 3898 0170 9342     		cmp	r3, r2
 3899 0172 00D8     		bhi	.LCB3241
 3900 0174 59E7     		b	.L292	@long jump
 3901              	.LCB3241:
 3902              		.syntax divided
ARM GAS  /var/folders/3q/0p8b__hx1wx8zj8b56q9glhc0000gn/T//ccWFpT72.s 			page 68


 3903              	@ 1208 "Drivers/CMSIS/Include/cmsis_gcc.h" 1
 3904 0176 EFF31080 		MRS r0, primask
 3905              	@ 0 "" 2
 3906              		.thumb
 3907              		.syntax unified
 3908 017a 0122     		movs	r2, #1
 3909              		.syntax divided
 3910              	@ 1236 "Drivers/CMSIS/Include/cmsis_gcc.h" 1
 3911 017c 82F31088 		MSR primask, r2
 3912              	@ 0 "" 2
 3913              		.thumb
 3914              		.syntax unified
 3915 0180 2168     		ldr	r1, [r4]
 3916 0182 8B68     		ldr	r3, [r1, #8]
 3917 0184 0E4D     		ldr	r5, .L316+12
 3918 0186 2B40     		ands	r3, r5
 3919 0188 8B60     		str	r3, [r1, #8]
 3920              		.syntax divided
 3921              	@ 1236 "Drivers/CMSIS/Include/cmsis_gcc.h" 1
 3922 018a 80F31088 		MSR primask, r0
 3923              	@ 0 "" 2
 3924              		.thumb
 3925              		.syntax unified
 3926 018e 0D4B     		ldr	r3, .L316+16
 3927 0190 6367     		str	r3, [r4, #116]
 3928              		.syntax divided
 3929              	@ 1208 "Drivers/CMSIS/Include/cmsis_gcc.h" 1
 3930 0192 EFF31081 		MRS r1, primask
 3931              	@ 0 "" 2
 3932              	@ 1236 "Drivers/CMSIS/Include/cmsis_gcc.h" 1
 3933 0196 82F31088 		MSR primask, r2
 3934              	@ 0 "" 2
 3935              		.thumb
 3936              		.syntax unified
 3937 019a 2268     		ldr	r2, [r4]
 3938 019c 1368     		ldr	r3, [r2]
 3939 019e 2020     		movs	r0, #32
 3940 01a0 0343     		orrs	r3, r0
 3941 01a2 1360     		str	r3, [r2]
 3942              		.syntax divided
 3943              	@ 1236 "Drivers/CMSIS/Include/cmsis_gcc.h" 1
 3944 01a4 81F31088 		MSR primask, r1
 3945              	@ 0 "" 2
 3946              		.thumb
 3947              		.syntax unified
 3948 01a8 3FE7     		b	.L292
 3949              	.L300:
 3950 01aa 2000     		movs	r0, r4
 3951 01ac FFF7FEFF 		bl	HAL_UART_RxCpltCallback
 3952 01b0 D6E7     		b	.L302
 3953              	.L317:
 3954 01b2 C046     		.align	2
 3955              	.L316:
 3956 01b4 FFFEFFFF 		.word	-257
 3957 01b8 FEFFFFEF 		.word	-268435458
 3958 01bc FFFFFFFB 		.word	-67108865
 3959 01c0 FFFFFFEF 		.word	-268435457
ARM GAS  /var/folders/3q/0p8b__hx1wx8zj8b56q9glhc0000gn/T//ccWFpT72.s 			page 69


 3960 01c4 00000000 		.word	UART_RxISR_8BIT
 3962              		.section	.text.UART_RxISR_16BIT_FIFOEN,"ax",%progbits
 3963              		.align	1
 3964              		.syntax unified
 3965              		.code	16
 3966              		.thumb_func
 3968              	UART_RxISR_16BIT_FIFOEN:
 3969              		@ args = 0, pretend = 0, frame = 0
 3970              		@ frame_needed = 0, uses_anonymous_args = 0
 3971 0000 F8B5     		push	{r3, r4, r5, r6, r7, lr}
 3972 0002 CE46     		mov	lr, r9
 3973 0004 4746     		mov	r7, r8
 3974 0006 80B5     		push	{r7, lr}
 3975 0008 0400     		movs	r4, r0
 3976 000a 6023     		movs	r3, #96
 3977 000c C55A     		ldrh	r5, [r0, r3]
 3978 000e 0368     		ldr	r3, [r0]
 3979 0010 DF69     		ldr	r7, [r3, #28]
 3980 0012 1A68     		ldr	r2, [r3]
 3981 0014 9046     		mov	r8, r2
 3982 0016 9A68     		ldr	r2, [r3, #8]
 3983 0018 9146     		mov	r9, r2
 3984 001a 8C22     		movs	r2, #140
 3985 001c 8258     		ldr	r2, [r0, r2]
 3986 001e 222A     		cmp	r2, #34
 3987 0020 07D0     		beq	.L339
 3988 0022 9A69     		ldr	r2, [r3, #24]
 3989 0024 0821     		movs	r1, #8
 3990 0026 0A43     		orrs	r2, r1
 3991 0028 9A61     		str	r2, [r3, #24]
 3992              	.L318:
 3993              		@ sp needed
 3994 002a C0BC     		pop	{r6, r7}
 3995 002c B946     		mov	r9, r7
 3996 002e B046     		mov	r8, r6
 3997 0030 F8BD     		pop	{r3, r4, r5, r6, r7, pc}
 3998              	.L339:
 3999 0032 6823     		movs	r3, #104
 4000 0034 C65A     		ldrh	r6, [r0, r3]
 4001 0036 07E0     		b	.L320
 4002              	.L324:
 4003 0038 9023     		movs	r3, #144
 4004 003a E358     		ldr	r3, [r4, r3]
 4005 003c 002B     		cmp	r3, #0
 4006 003e 40D1     		bne	.L340
 4007              	.L321:
 4008 0040 5E23     		movs	r3, #94
 4009 0042 E35A     		ldrh	r3, [r4, r3]
 4010 0044 002B     		cmp	r3, #0
 4011 0046 43D0     		beq	.L341
 4012              	.L320:
 4013 0048 002E     		cmp	r6, #0
 4014 004a 00D1     		bne	.LCB3337
 4015 004c 88E0     		b	.L328	@long jump
 4016              	.LCB3337:
 4017 004e BF06     		lsls	r7, r7, #26
 4018 0050 00D4     		bmi	.LCB3341
ARM GAS  /var/folders/3q/0p8b__hx1wx8zj8b56q9glhc0000gn/T//ccWFpT72.s 			page 70


 4019 0052 85E0     		b	.L328	@long jump
 4020              	.LCB3341:
 4021 0054 2368     		ldr	r3, [r4]
 4022 0056 5B6A     		ldr	r3, [r3, #36]
 4023 0058 A26D     		ldr	r2, [r4, #88]
 4024 005a 2B40     		ands	r3, r5
 4025 005c 1380     		strh	r3, [r2]
 4026 005e A36D     		ldr	r3, [r4, #88]
 4027 0060 0233     		adds	r3, r3, #2
 4028 0062 A365     		str	r3, [r4, #88]
 4029 0064 5E22     		movs	r2, #94
 4030 0066 A35A     		ldrh	r3, [r4, r2]
 4031 0068 013B     		subs	r3, r3, #1
 4032 006a 9BB2     		uxth	r3, r3
 4033 006c A352     		strh	r3, [r4, r2]
 4034 006e 2368     		ldr	r3, [r4]
 4035 0070 DF69     		ldr	r7, [r3, #28]
 4036 0072 7A07     		lsls	r2, r7, #29
 4037 0074 E4D0     		beq	.L321
 4038 0076 FA07     		lsls	r2, r7, #31
 4039 0078 08D5     		bpl	.L322
 4040 007a 4246     		mov	r2, r8
 4041 007c D205     		lsls	r2, r2, #23
 4042 007e 05D5     		bpl	.L322
 4043 0080 0121     		movs	r1, #1
 4044 0082 1962     		str	r1, [r3, #32]
 4045 0084 9022     		movs	r2, #144
 4046 0086 A358     		ldr	r3, [r4, r2]
 4047 0088 0B43     		orrs	r3, r1
 4048 008a A350     		str	r3, [r4, r2]
 4049              	.L322:
 4050 008c BB07     		lsls	r3, r7, #30
 4051 008e 0AD5     		bpl	.L323
 4052 0090 4B46     		mov	r3, r9
 4053 0092 DB07     		lsls	r3, r3, #31
 4054 0094 07D5     		bpl	.L323
 4055 0096 2368     		ldr	r3, [r4]
 4056 0098 0222     		movs	r2, #2
 4057 009a 1A62     		str	r2, [r3, #32]
 4058 009c 8E32     		adds	r2, r2, #142
 4059 009e A358     		ldr	r3, [r4, r2]
 4060 00a0 0421     		movs	r1, #4
 4061 00a2 0B43     		orrs	r3, r1
 4062 00a4 A350     		str	r3, [r4, r2]
 4063              	.L323:
 4064 00a6 7B07     		lsls	r3, r7, #29
 4065 00a8 C6D5     		bpl	.L324
 4066 00aa 4B46     		mov	r3, r9
 4067 00ac DB07     		lsls	r3, r3, #31
 4068 00ae C3D5     		bpl	.L324
 4069 00b0 2368     		ldr	r3, [r4]
 4070 00b2 0422     		movs	r2, #4
 4071 00b4 1A62     		str	r2, [r3, #32]
 4072 00b6 8C32     		adds	r2, r2, #140
 4073 00b8 A358     		ldr	r3, [r4, r2]
 4074 00ba 0221     		movs	r1, #2
 4075 00bc 0B43     		orrs	r3, r1
ARM GAS  /var/folders/3q/0p8b__hx1wx8zj8b56q9glhc0000gn/T//ccWFpT72.s 			page 71


 4076 00be A350     		str	r3, [r4, r2]
 4077 00c0 BAE7     		b	.L324
 4078              	.L340:
 4079 00c2 2000     		movs	r0, r4
 4080 00c4 FFF7FEFF 		bl	HAL_UART_ErrorCallback
 4081 00c8 9023     		movs	r3, #144
 4082 00ca 0022     		movs	r2, #0
 4083 00cc E250     		str	r2, [r4, r3]
 4084 00ce B7E7     		b	.L321
 4085              	.L341:
 4086              		.syntax divided
 4087              	@ 1208 "Drivers/CMSIS/Include/cmsis_gcc.h" 1
 4088 00d0 EFF31080 		MRS r0, primask
 4089              	@ 0 "" 2
 4090              		.thumb
 4091              		.syntax unified
 4092 00d4 0122     		movs	r2, #1
 4093              		.syntax divided
 4094              	@ 1236 "Drivers/CMSIS/Include/cmsis_gcc.h" 1
 4095 00d6 82F31088 		MSR primask, r2
 4096              	@ 0 "" 2
 4097              		.thumb
 4098              		.syntax unified
 4099 00da 2168     		ldr	r1, [r4]
 4100 00dc 0B68     		ldr	r3, [r1]
 4101 00de 354D     		ldr	r5, .L342
 4102 00e0 2B40     		ands	r3, r5
 4103 00e2 0B60     		str	r3, [r1]
 4104              		.syntax divided
 4105              	@ 1236 "Drivers/CMSIS/Include/cmsis_gcc.h" 1
 4106 00e4 80F31088 		MSR primask, r0
 4107              	@ 0 "" 2
 4108              	@ 1208 "Drivers/CMSIS/Include/cmsis_gcc.h" 1
 4109 00e8 EFF31081 		MRS r1, primask
 4110              	@ 0 "" 2
 4111              	@ 1236 "Drivers/CMSIS/Include/cmsis_gcc.h" 1
 4112 00ec 82F31088 		MSR primask, r2
 4113              	@ 0 "" 2
 4114              		.thumb
 4115              		.syntax unified
 4116 00f0 2268     		ldr	r2, [r4]
 4117 00f2 9368     		ldr	r3, [r2, #8]
 4118 00f4 3048     		ldr	r0, .L342+4
 4119 00f6 0340     		ands	r3, r0
 4120 00f8 9360     		str	r3, [r2, #8]
 4121              		.syntax divided
 4122              	@ 1236 "Drivers/CMSIS/Include/cmsis_gcc.h" 1
 4123 00fa 81F31088 		MSR primask, r1
 4124              	@ 0 "" 2
 4125              		.thumb
 4126              		.syntax unified
 4127 00fe 8C23     		movs	r3, #140
 4128 0100 2022     		movs	r2, #32
 4129 0102 E250     		str	r2, [r4, r3]
 4130 0104 0023     		movs	r3, #0
 4131 0106 6367     		str	r3, [r4, #116]
 4132 0108 2367     		str	r3, [r4, #112]
ARM GAS  /var/folders/3q/0p8b__hx1wx8zj8b56q9glhc0000gn/T//ccWFpT72.s 			page 72


 4133 010a 2368     		ldr	r3, [r4]
 4134 010c 5B68     		ldr	r3, [r3, #4]
 4135 010e 1B02     		lsls	r3, r3, #8
 4136 0110 0BD5     		bpl	.L325
 4137              		.syntax divided
 4138              	@ 1208 "Drivers/CMSIS/Include/cmsis_gcc.h" 1
 4139 0112 EFF31081 		MRS r1, primask
 4140              	@ 0 "" 2
 4141              		.thumb
 4142              		.syntax unified
 4143 0116 0123     		movs	r3, #1
 4144              		.syntax divided
 4145              	@ 1236 "Drivers/CMSIS/Include/cmsis_gcc.h" 1
 4146 0118 83F31088 		MSR primask, r3
 4147              	@ 0 "" 2
 4148              		.thumb
 4149              		.syntax unified
 4150 011c 2268     		ldr	r2, [r4]
 4151 011e 1368     		ldr	r3, [r2]
 4152 0120 2648     		ldr	r0, .L342+8
 4153 0122 0340     		ands	r3, r0
 4154 0124 1360     		str	r3, [r2]
 4155              		.syntax divided
 4156              	@ 1236 "Drivers/CMSIS/Include/cmsis_gcc.h" 1
 4157 0126 81F31088 		MSR primask, r1
 4158              	@ 0 "" 2
 4159              		.thumb
 4160              		.syntax unified
 4161              	.L325:
 4162 012a E36E     		ldr	r3, [r4, #108]
 4163 012c 012B     		cmp	r3, #1
 4164 012e 3CD1     		bne	.L326
 4165 0130 0023     		movs	r3, #0
 4166 0132 E366     		str	r3, [r4, #108]
 4167              		.syntax divided
 4168              	@ 1208 "Drivers/CMSIS/Include/cmsis_gcc.h" 1
 4169 0134 EFF31080 		MRS r0, primask
 4170              	@ 0 "" 2
 4171              		.thumb
 4172              		.syntax unified
 4173 0138 0133     		adds	r3, r3, #1
 4174              		.syntax divided
 4175              	@ 1236 "Drivers/CMSIS/Include/cmsis_gcc.h" 1
 4176 013a 83F31088 		MSR primask, r3
 4177              	@ 0 "" 2
 4178              		.thumb
 4179              		.syntax unified
 4180 013e 2168     		ldr	r1, [r4]
 4181 0140 0B68     		ldr	r3, [r1]
 4182 0142 1022     		movs	r2, #16
 4183 0144 9343     		bics	r3, r2
 4184 0146 0B60     		str	r3, [r1]
 4185              		.syntax divided
 4186              	@ 1236 "Drivers/CMSIS/Include/cmsis_gcc.h" 1
 4187 0148 80F31088 		MSR primask, r0
 4188              	@ 0 "" 2
 4189              		.thumb
ARM GAS  /var/folders/3q/0p8b__hx1wx8zj8b56q9glhc0000gn/T//ccWFpT72.s 			page 73


 4190              		.syntax unified
 4191 014c 2368     		ldr	r3, [r4]
 4192 014e D969     		ldr	r1, [r3, #28]
 4193 0150 0A42     		tst	r2, r1
 4194 0152 00D0     		beq	.L327
 4195 0154 1A62     		str	r2, [r3, #32]
 4196              	.L327:
 4197 0156 5C23     		movs	r3, #92
 4198 0158 E15A     		ldrh	r1, [r4, r3]
 4199 015a 2000     		movs	r0, r4
 4200 015c FFF7FEFF 		bl	HAL_UARTEx_RxEventCallback
 4201              	.L328:
 4202 0160 5E23     		movs	r3, #94
 4203 0162 E35A     		ldrh	r3, [r4, r3]
 4204 0164 9AB2     		uxth	r2, r3
 4205 0166 002B     		cmp	r3, #0
 4206 0168 00D1     		bne	.LCB3502
 4207 016a 5EE7     		b	.L318	@long jump
 4208              	.LCB3502:
 4209 016c 6823     		movs	r3, #104
 4210 016e E35A     		ldrh	r3, [r4, r3]
 4211 0170 9342     		cmp	r3, r2
 4212 0172 00D8     		bhi	.LCB3506
 4213 0174 59E7     		b	.L318	@long jump
 4214              	.LCB3506:
 4215              		.syntax divided
 4216              	@ 1208 "Drivers/CMSIS/Include/cmsis_gcc.h" 1
 4217 0176 EFF31080 		MRS r0, primask
 4218              	@ 0 "" 2
 4219              		.thumb
 4220              		.syntax unified
 4221 017a 0122     		movs	r2, #1
 4222              		.syntax divided
 4223              	@ 1236 "Drivers/CMSIS/Include/cmsis_gcc.h" 1
 4224 017c 82F31088 		MSR primask, r2
 4225              	@ 0 "" 2
 4226              		.thumb
 4227              		.syntax unified
 4228 0180 2168     		ldr	r1, [r4]
 4229 0182 8B68     		ldr	r3, [r1, #8]
 4230 0184 0E4D     		ldr	r5, .L342+12
 4231 0186 2B40     		ands	r3, r5
 4232 0188 8B60     		str	r3, [r1, #8]
 4233              		.syntax divided
 4234              	@ 1236 "Drivers/CMSIS/Include/cmsis_gcc.h" 1
 4235 018a 80F31088 		MSR primask, r0
 4236              	@ 0 "" 2
 4237              		.thumb
 4238              		.syntax unified
 4239 018e 0D4B     		ldr	r3, .L342+16
 4240 0190 6367     		str	r3, [r4, #116]
 4241              		.syntax divided
 4242              	@ 1208 "Drivers/CMSIS/Include/cmsis_gcc.h" 1
 4243 0192 EFF31081 		MRS r1, primask
 4244              	@ 0 "" 2
 4245              	@ 1236 "Drivers/CMSIS/Include/cmsis_gcc.h" 1
 4246 0196 82F31088 		MSR primask, r2
ARM GAS  /var/folders/3q/0p8b__hx1wx8zj8b56q9glhc0000gn/T//ccWFpT72.s 			page 74


 4247              	@ 0 "" 2
 4248              		.thumb
 4249              		.syntax unified
 4250 019a 2268     		ldr	r2, [r4]
 4251 019c 1368     		ldr	r3, [r2]
 4252 019e 2020     		movs	r0, #32
 4253 01a0 0343     		orrs	r3, r0
 4254 01a2 1360     		str	r3, [r2]
 4255              		.syntax divided
 4256              	@ 1236 "Drivers/CMSIS/Include/cmsis_gcc.h" 1
 4257 01a4 81F31088 		MSR primask, r1
 4258              	@ 0 "" 2
 4259              		.thumb
 4260              		.syntax unified
 4261 01a8 3FE7     		b	.L318
 4262              	.L326:
 4263 01aa 2000     		movs	r0, r4
 4264 01ac FFF7FEFF 		bl	HAL_UART_RxCpltCallback
 4265 01b0 D6E7     		b	.L328
 4266              	.L343:
 4267 01b2 C046     		.align	2
 4268              	.L342:
 4269 01b4 FFFEFFFF 		.word	-257
 4270 01b8 FEFFFFEF 		.word	-268435458
 4271 01bc FFFFFFFB 		.word	-67108865
 4272 01c0 FFFFFFEF 		.word	-268435457
 4273 01c4 00000000 		.word	UART_RxISR_16BIT
 4275              		.section	.text.UART_DMARxHalfCplt,"ax",%progbits
 4276              		.align	1
 4277              		.syntax unified
 4278              		.code	16
 4279              		.thumb_func
 4281              	UART_DMARxHalfCplt:
 4282              		@ args = 0, pretend = 0, frame = 0
 4283              		@ frame_needed = 0, uses_anonymous_args = 0
 4284 0000 10B5     		push	{r4, lr}
 4285 0002 0300     		movs	r3, r0
 4286 0004 806A     		ldr	r0, [r0, #40]
 4287 0006 0122     		movs	r2, #1
 4288 0008 0267     		str	r2, [r0, #112]
 4289 000a C26E     		ldr	r2, [r0, #108]
 4290 000c 012A     		cmp	r2, #1
 4291 000e 11D1     		bne	.L345
 4292 0010 5B32     		adds	r2, r2, #91
 4293 0012 815A     		ldrh	r1, [r0, r2]
 4294 0014 4C08     		lsrs	r4, r1, #1
 4295 0016 0232     		adds	r2, r2, #2
 4296 0018 8452     		strh	r4, [r0, r2]
 4297 001a 1B68     		ldr	r3, [r3]
 4298 001c 5B68     		ldr	r3, [r3, #4]
 4299 001e 9BB2     		uxth	r3, r3
 4300 0020 9942     		cmp	r1, r3
 4301 0022 00D3     		bcc	.L346
 4302 0024 8352     		strh	r3, [r0, r2]
 4303              	.L346:
 4304 0026 5E23     		movs	r3, #94
 4305 0028 C35A     		ldrh	r3, [r0, r3]
ARM GAS  /var/folders/3q/0p8b__hx1wx8zj8b56q9glhc0000gn/T//ccWFpT72.s 			page 75


 4306 002a C91A     		subs	r1, r1, r3
 4307 002c 89B2     		uxth	r1, r1
 4308 002e FFF7FEFF 		bl	HAL_UARTEx_RxEventCallback
 4309              	.L344:
 4310              		@ sp needed
 4311 0032 10BD     		pop	{r4, pc}
 4312              	.L345:
 4313 0034 FFF7FEFF 		bl	HAL_UART_RxHalfCpltCallback
 4314 0038 FBE7     		b	.L344
 4316              		.section	.text.UART_DMAReceiveCplt,"ax",%progbits
 4317              		.align	1
 4318              		.syntax unified
 4319              		.code	16
 4320              		.thumb_func
 4322              	UART_DMAReceiveCplt:
 4323              		@ args = 0, pretend = 0, frame = 0
 4324              		@ frame_needed = 0, uses_anonymous_args = 0
 4325 0000 70B5     		push	{r4, r5, r6, lr}
 4326 0002 0300     		movs	r3, r0
 4327 0004 806A     		ldr	r0, [r0, #40]
 4328 0006 1A68     		ldr	r2, [r3]
 4329 0008 1268     		ldr	r2, [r2]
 4330 000a 9206     		lsls	r2, r2, #26
 4331 000c 29D4     		bmi	.L349
 4332 000e 5E22     		movs	r2, #94
 4333 0010 0021     		movs	r1, #0
 4334 0012 8152     		strh	r1, [r0, r2]
 4335              		.syntax divided
 4336              	@ 1208 "Drivers/CMSIS/Include/cmsis_gcc.h" 1
 4337 0014 EFF31085 		MRS r5, primask
 4338              	@ 0 "" 2
 4339              		.thumb
 4340              		.syntax unified
 4341 0018 5D3A     		subs	r2, r2, #93
 4342              		.syntax divided
 4343              	@ 1236 "Drivers/CMSIS/Include/cmsis_gcc.h" 1
 4344 001a 82F31088 		MSR primask, r2
 4345              	@ 0 "" 2
 4346              		.thumb
 4347              		.syntax unified
 4348 001e 0468     		ldr	r4, [r0]
 4349 0020 2168     		ldr	r1, [r4]
 4350 0022 234E     		ldr	r6, .L355
 4351 0024 3140     		ands	r1, r6
 4352 0026 2160     		str	r1, [r4]
 4353              		.syntax divided
 4354              	@ 1236 "Drivers/CMSIS/Include/cmsis_gcc.h" 1
 4355 0028 85F31088 		MSR primask, r5
 4356              	@ 0 "" 2
 4357              	@ 1208 "Drivers/CMSIS/Include/cmsis_gcc.h" 1
 4358 002c EFF31085 		MRS r5, primask
 4359              	@ 0 "" 2
 4360              	@ 1236 "Drivers/CMSIS/Include/cmsis_gcc.h" 1
 4361 0030 82F31088 		MSR primask, r2
 4362              	@ 0 "" 2
 4363              		.thumb
 4364              		.syntax unified
ARM GAS  /var/folders/3q/0p8b__hx1wx8zj8b56q9glhc0000gn/T//ccWFpT72.s 			page 76


 4365 0034 0468     		ldr	r4, [r0]
 4366 0036 A168     		ldr	r1, [r4, #8]
 4367 0038 9143     		bics	r1, r2
 4368 003a A160     		str	r1, [r4, #8]
 4369              		.syntax divided
 4370              	@ 1236 "Drivers/CMSIS/Include/cmsis_gcc.h" 1
 4371 003c 85F31088 		MSR primask, r5
 4372              	@ 0 "" 2
 4373              	@ 1208 "Drivers/CMSIS/Include/cmsis_gcc.h" 1
 4374 0040 EFF31084 		MRS r4, primask
 4375              	@ 0 "" 2
 4376              	@ 1236 "Drivers/CMSIS/Include/cmsis_gcc.h" 1
 4377 0044 82F31088 		MSR primask, r2
 4378              	@ 0 "" 2
 4379              		.thumb
 4380              		.syntax unified
 4381 0048 0168     		ldr	r1, [r0]
 4382 004a 8A68     		ldr	r2, [r1, #8]
 4383 004c 4025     		movs	r5, #64
 4384 004e AA43     		bics	r2, r5
 4385 0050 8A60     		str	r2, [r1, #8]
 4386              		.syntax divided
 4387              	@ 1236 "Drivers/CMSIS/Include/cmsis_gcc.h" 1
 4388 0052 84F31088 		MSR primask, r4
 4389              	@ 0 "" 2
 4390              		.thumb
 4391              		.syntax unified
 4392 0056 8C22     		movs	r2, #140
 4393 0058 2021     		movs	r1, #32
 4394 005a 8150     		str	r1, [r0, r2]
 4395 005c C26E     		ldr	r2, [r0, #108]
 4396 005e 012A     		cmp	r2, #1
 4397 0060 17D0     		beq	.L354
 4398              	.L349:
 4399 0062 0022     		movs	r2, #0
 4400 0064 0267     		str	r2, [r0, #112]
 4401 0066 C26E     		ldr	r2, [r0, #108]
 4402 0068 012A     		cmp	r2, #1
 4403 006a 1ED1     		bne	.L350
 4404 006c 5D32     		adds	r2, r2, #93
 4405 006e 0021     		movs	r1, #0
 4406 0070 8152     		strh	r1, [r0, r2]
 4407 0072 1B68     		ldr	r3, [r3]
 4408 0074 5B68     		ldr	r3, [r3, #4]
 4409 0076 9BB2     		uxth	r3, r3
 4410 0078 023A     		subs	r2, r2, #2
 4411 007a 815A     		ldrh	r1, [r0, r2]
 4412 007c 9942     		cmp	r1, r3
 4413 007e 01D9     		bls	.L351
 4414 0080 0232     		adds	r2, r2, #2
 4415 0082 8352     		strh	r3, [r0, r2]
 4416              	.L351:
 4417 0084 5E23     		movs	r3, #94
 4418 0086 C35A     		ldrh	r3, [r0, r3]
 4419 0088 C91A     		subs	r1, r1, r3
 4420 008a 89B2     		uxth	r1, r1
 4421 008c FFF7FEFF 		bl	HAL_UARTEx_RxEventCallback
ARM GAS  /var/folders/3q/0p8b__hx1wx8zj8b56q9glhc0000gn/T//ccWFpT72.s 			page 77


 4422              	.L348:
 4423              		@ sp needed
 4424 0090 70BD     		pop	{r4, r5, r6, pc}
 4425              	.L354:
 4426              		.syntax divided
 4427              	@ 1208 "Drivers/CMSIS/Include/cmsis_gcc.h" 1
 4428 0092 EFF31084 		MRS r4, primask
 4429              	@ 0 "" 2
 4430              	@ 1236 "Drivers/CMSIS/Include/cmsis_gcc.h" 1
 4431 0096 82F31088 		MSR primask, r2
 4432              	@ 0 "" 2
 4433              		.thumb
 4434              		.syntax unified
 4435 009a 0168     		ldr	r1, [r0]
 4436 009c 0A68     		ldr	r2, [r1]
 4437 009e 303D     		subs	r5, r5, #48
 4438 00a0 AA43     		bics	r2, r5
 4439 00a2 0A60     		str	r2, [r1]
 4440              		.syntax divided
 4441              	@ 1236 "Drivers/CMSIS/Include/cmsis_gcc.h" 1
 4442 00a4 84F31088 		MSR primask, r4
 4443              	@ 0 "" 2
 4444              		.thumb
 4445              		.syntax unified
 4446 00a8 DBE7     		b	.L349
 4447              	.L350:
 4448 00aa FFF7FEFF 		bl	HAL_UART_RxCpltCallback
 4449 00ae EFE7     		b	.L348
 4450              	.L356:
 4451              		.align	2
 4452              	.L355:
 4453 00b0 FFFEFFFF 		.word	-257
 4455              		.section	.text.HAL_UART_ReceiverTimeout_Config,"ax",%progbits
 4456              		.align	1
 4457              		.global	HAL_UART_ReceiverTimeout_Config
 4458              		.syntax unified
 4459              		.code	16
 4460              		.thumb_func
 4462              	HAL_UART_ReceiverTimeout_Config:
 4463              		@ args = 0, pretend = 0, frame = 0
 4464              		@ frame_needed = 0, uses_anonymous_args = 0
 4465              		@ link register save eliminated.
 4466 0000 0268     		ldr	r2, [r0]
 4467 0002 5369     		ldr	r3, [r2, #20]
 4468 0004 1B0E     		lsrs	r3, r3, #24
 4469 0006 1B06     		lsls	r3, r3, #24
 4470 0008 0B43     		orrs	r3, r1
 4471 000a 5361     		str	r3, [r2, #20]
 4472              		@ sp needed
 4473 000c 7047     		bx	lr
 4475              		.section	.text.HAL_UART_EnableReceiverTimeout,"ax",%progbits
 4476              		.align	1
 4477              		.global	HAL_UART_EnableReceiverTimeout
 4478              		.syntax unified
 4479              		.code	16
 4480              		.thumb_func
 4482              	HAL_UART_EnableReceiverTimeout:
ARM GAS  /var/folders/3q/0p8b__hx1wx8zj8b56q9glhc0000gn/T//ccWFpT72.s 			page 78


 4483              		@ args = 0, pretend = 0, frame = 0
 4484              		@ frame_needed = 0, uses_anonymous_args = 0
 4485 0000 30B5     		push	{r4, r5, lr}
 4486 0002 8823     		movs	r3, #136
 4487 0004 C358     		ldr	r3, [r0, r3]
 4488 0006 202B     		cmp	r3, #32
 4489 0008 15D1     		bne	.L360
 4490 000a 6433     		adds	r3, r3, #100
 4491 000c C35C     		ldrb	r3, [r0, r3]
 4492 000e 012B     		cmp	r3, #1
 4493 0010 13D0     		beq	.L361
 4494 0012 8422     		movs	r2, #132
 4495 0014 0123     		movs	r3, #1
 4496 0016 8354     		strb	r3, [r0, r2]
 4497 0018 8821     		movs	r1, #136
 4498 001a 2333     		adds	r3, r3, #35
 4499 001c 4350     		str	r3, [r0, r1]
 4500 001e 0468     		ldr	r4, [r0]
 4501 0020 6568     		ldr	r5, [r4, #4]
 4502 0022 8023     		movs	r3, #128
 4503 0024 1B04     		lsls	r3, r3, #16
 4504 0026 2B43     		orrs	r3, r5
 4505 0028 6360     		str	r3, [r4, #4]
 4506 002a 2023     		movs	r3, #32
 4507 002c 4350     		str	r3, [r0, r1]
 4508 002e 0023     		movs	r3, #0
 4509 0030 8354     		strb	r3, [r0, r2]
 4510 0032 0020     		movs	r0, #0
 4511              	.L359:
 4512              		@ sp needed
 4513 0034 30BD     		pop	{r4, r5, pc}
 4514              	.L360:
 4515 0036 0220     		movs	r0, #2
 4516 0038 FCE7     		b	.L359
 4517              	.L361:
 4518 003a 0220     		movs	r0, #2
 4519 003c FAE7     		b	.L359
 4521              		.section	.text.HAL_UART_DisableReceiverTimeout,"ax",%progbits
 4522              		.align	1
 4523              		.global	HAL_UART_DisableReceiverTimeout
 4524              		.syntax unified
 4525              		.code	16
 4526              		.thumb_func
 4528              	HAL_UART_DisableReceiverTimeout:
 4529              		@ args = 0, pretend = 0, frame = 0
 4530              		@ frame_needed = 0, uses_anonymous_args = 0
 4531 0000 30B5     		push	{r4, r5, lr}
 4532 0002 8823     		movs	r3, #136
 4533 0004 C358     		ldr	r3, [r0, r3]
 4534 0006 202B     		cmp	r3, #32
 4535 0008 14D1     		bne	.L364
 4536 000a 6433     		adds	r3, r3, #100
 4537 000c C35C     		ldrb	r3, [r0, r3]
 4538 000e 012B     		cmp	r3, #1
 4539 0010 12D0     		beq	.L365
 4540 0012 8422     		movs	r2, #132
 4541 0014 0123     		movs	r3, #1
ARM GAS  /var/folders/3q/0p8b__hx1wx8zj8b56q9glhc0000gn/T//ccWFpT72.s 			page 79


 4542 0016 8354     		strb	r3, [r0, r2]
 4543 0018 8821     		movs	r1, #136
 4544 001a 2333     		adds	r3, r3, #35
 4545 001c 4350     		str	r3, [r0, r1]
 4546 001e 0468     		ldr	r4, [r0]
 4547 0020 6368     		ldr	r3, [r4, #4]
 4548 0022 064D     		ldr	r5, .L366
 4549 0024 2B40     		ands	r3, r5
 4550 0026 6360     		str	r3, [r4, #4]
 4551 0028 2023     		movs	r3, #32
 4552 002a 4350     		str	r3, [r0, r1]
 4553 002c 0023     		movs	r3, #0
 4554 002e 8354     		strb	r3, [r0, r2]
 4555 0030 0020     		movs	r0, #0
 4556              	.L363:
 4557              		@ sp needed
 4558 0032 30BD     		pop	{r4, r5, pc}
 4559              	.L364:
 4560 0034 0220     		movs	r0, #2
 4561 0036 FCE7     		b	.L363
 4562              	.L365:
 4563 0038 0220     		movs	r0, #2
 4564 003a FAE7     		b	.L363
 4565              	.L367:
 4566              		.align	2
 4567              	.L366:
 4568 003c FFFF7FFF 		.word	-8388609
 4570              		.section	.text.HAL_MultiProcessor_EnterMuteMode,"ax",%progbits
 4571              		.align	1
 4572              		.global	HAL_MultiProcessor_EnterMuteMode
 4573              		.syntax unified
 4574              		.code	16
 4575              		.thumb_func
 4577              	HAL_MultiProcessor_EnterMuteMode:
 4578              		@ args = 0, pretend = 0, frame = 0
 4579              		@ frame_needed = 0, uses_anonymous_args = 0
 4580              		@ link register save eliminated.
 4581 0000 0268     		ldr	r2, [r0]
 4582 0002 9369     		ldr	r3, [r2, #24]
 4583 0004 0421     		movs	r1, #4
 4584 0006 0B43     		orrs	r3, r1
 4585 0008 9361     		str	r3, [r2, #24]
 4586              		@ sp needed
 4587 000a 7047     		bx	lr
 4589              		.section	.text.HAL_HalfDuplex_EnableTransmitter,"ax",%progbits
 4590              		.align	1
 4591              		.global	HAL_HalfDuplex_EnableTransmitter
 4592              		.syntax unified
 4593              		.code	16
 4594              		.thumb_func
 4596              	HAL_HalfDuplex_EnableTransmitter:
 4597              		@ args = 0, pretend = 0, frame = 0
 4598              		@ frame_needed = 0, uses_anonymous_args = 0
 4599 0000 F0B5     		push	{r4, r5, r6, r7, lr}
 4600 0002 8423     		movs	r3, #132
 4601 0004 C35C     		ldrb	r3, [r0, r3]
 4602 0006 012B     		cmp	r3, #1
ARM GAS  /var/folders/3q/0p8b__hx1wx8zj8b56q9glhc0000gn/T//ccWFpT72.s 			page 80


 4603 0008 21D0     		beq	.L371
 4604 000a 8421     		movs	r1, #132
 4605 000c 0123     		movs	r3, #1
 4606 000e 4354     		strb	r3, [r0, r1]
 4607 0010 8824     		movs	r4, #136
 4608 0012 2422     		movs	r2, #36
 4609 0014 0251     		str	r2, [r0, r4]
 4610              		.syntax divided
 4611              	@ 1208 "Drivers/CMSIS/Include/cmsis_gcc.h" 1
 4612 0016 EFF31086 		MRS r6, primask
 4613              	@ 0 "" 2
 4614              	@ 1236 "Drivers/CMSIS/Include/cmsis_gcc.h" 1
 4615 001a 83F31088 		MSR primask, r3
 4616              	@ 0 "" 2
 4617              		.thumb
 4618              		.syntax unified
 4619 001e 0568     		ldr	r5, [r0]
 4620 0020 2A68     		ldr	r2, [r5]
 4621 0022 0C27     		movs	r7, #12
 4622 0024 BA43     		bics	r2, r7
 4623 0026 2A60     		str	r2, [r5]
 4624              		.syntax divided
 4625              	@ 1236 "Drivers/CMSIS/Include/cmsis_gcc.h" 1
 4626 0028 86F31088 		MSR primask, r6
 4627              	@ 0 "" 2
 4628              	@ 1208 "Drivers/CMSIS/Include/cmsis_gcc.h" 1
 4629 002c EFF31085 		MRS r5, primask
 4630              	@ 0 "" 2
 4631              	@ 1236 "Drivers/CMSIS/Include/cmsis_gcc.h" 1
 4632 0030 83F31088 		MSR primask, r3
 4633              	@ 0 "" 2
 4634              		.thumb
 4635              		.syntax unified
 4636 0034 0268     		ldr	r2, [r0]
 4637 0036 1368     		ldr	r3, [r2]
 4638 0038 0826     		movs	r6, #8
 4639 003a 3343     		orrs	r3, r6
 4640 003c 1360     		str	r3, [r2]
 4641              		.syntax divided
 4642              	@ 1236 "Drivers/CMSIS/Include/cmsis_gcc.h" 1
 4643 003e 85F31088 		MSR primask, r5
 4644              	@ 0 "" 2
 4645              		.thumb
 4646              		.syntax unified
 4647 0042 2023     		movs	r3, #32
 4648 0044 0351     		str	r3, [r0, r4]
 4649 0046 0023     		movs	r3, #0
 4650 0048 4354     		strb	r3, [r0, r1]
 4651 004a 0020     		movs	r0, #0
 4652              	.L370:
 4653              		@ sp needed
 4654 004c F0BD     		pop	{r4, r5, r6, r7, pc}
 4655              	.L371:
 4656 004e 0220     		movs	r0, #2
 4657 0050 FCE7     		b	.L370
 4659              		.section	.text.HAL_HalfDuplex_EnableReceiver,"ax",%progbits
 4660              		.align	1
ARM GAS  /var/folders/3q/0p8b__hx1wx8zj8b56q9glhc0000gn/T//ccWFpT72.s 			page 81


 4661              		.global	HAL_HalfDuplex_EnableReceiver
 4662              		.syntax unified
 4663              		.code	16
 4664              		.thumb_func
 4666              	HAL_HalfDuplex_EnableReceiver:
 4667              		@ args = 0, pretend = 0, frame = 0
 4668              		@ frame_needed = 0, uses_anonymous_args = 0
 4669 0000 F0B5     		push	{r4, r5, r6, r7, lr}
 4670 0002 8423     		movs	r3, #132
 4671 0004 C35C     		ldrb	r3, [r0, r3]
 4672 0006 012B     		cmp	r3, #1
 4673 0008 21D0     		beq	.L374
 4674 000a 8421     		movs	r1, #132
 4675 000c 0123     		movs	r3, #1
 4676 000e 4354     		strb	r3, [r0, r1]
 4677 0010 8824     		movs	r4, #136
 4678 0012 2422     		movs	r2, #36
 4679 0014 0251     		str	r2, [r0, r4]
 4680              		.syntax divided
 4681              	@ 1208 "Drivers/CMSIS/Include/cmsis_gcc.h" 1
 4682 0016 EFF31086 		MRS r6, primask
 4683              	@ 0 "" 2
 4684              	@ 1236 "Drivers/CMSIS/Include/cmsis_gcc.h" 1
 4685 001a 83F31088 		MSR primask, r3
 4686              	@ 0 "" 2
 4687              		.thumb
 4688              		.syntax unified
 4689 001e 0568     		ldr	r5, [r0]
 4690 0020 2A68     		ldr	r2, [r5]
 4691 0022 0C27     		movs	r7, #12
 4692 0024 BA43     		bics	r2, r7
 4693 0026 2A60     		str	r2, [r5]
 4694              		.syntax divided
 4695              	@ 1236 "Drivers/CMSIS/Include/cmsis_gcc.h" 1
 4696 0028 86F31088 		MSR primask, r6
 4697              	@ 0 "" 2
 4698              	@ 1208 "Drivers/CMSIS/Include/cmsis_gcc.h" 1
 4699 002c EFF31085 		MRS r5, primask
 4700              	@ 0 "" 2
 4701              	@ 1236 "Drivers/CMSIS/Include/cmsis_gcc.h" 1
 4702 0030 83F31088 		MSR primask, r3
 4703              	@ 0 "" 2
 4704              		.thumb
 4705              		.syntax unified
 4706 0034 0268     		ldr	r2, [r0]
 4707 0036 1368     		ldr	r3, [r2]
 4708 0038 0426     		movs	r6, #4
 4709 003a 3343     		orrs	r3, r6
 4710 003c 1360     		str	r3, [r2]
 4711              		.syntax divided
 4712              	@ 1236 "Drivers/CMSIS/Include/cmsis_gcc.h" 1
 4713 003e 85F31088 		MSR primask, r5
 4714              	@ 0 "" 2
 4715              		.thumb
 4716              		.syntax unified
 4717 0042 2023     		movs	r3, #32
 4718 0044 0351     		str	r3, [r0, r4]
ARM GAS  /var/folders/3q/0p8b__hx1wx8zj8b56q9glhc0000gn/T//ccWFpT72.s 			page 82


 4719 0046 0023     		movs	r3, #0
 4720 0048 4354     		strb	r3, [r0, r1]
 4721 004a 0020     		movs	r0, #0
 4722              	.L373:
 4723              		@ sp needed
 4724 004c F0BD     		pop	{r4, r5, r6, r7, pc}
 4725              	.L374:
 4726 004e 0220     		movs	r0, #2
 4727 0050 FCE7     		b	.L373
 4729              		.section	.text.HAL_LIN_SendBreak,"ax",%progbits
 4730              		.align	1
 4731              		.global	HAL_LIN_SendBreak
 4732              		.syntax unified
 4733              		.code	16
 4734              		.thumb_func
 4736              	HAL_LIN_SendBreak:
 4737              		@ args = 0, pretend = 0, frame = 0
 4738              		@ frame_needed = 0, uses_anonymous_args = 0
 4739 0000 30B5     		push	{r4, r5, lr}
 4740 0002 8423     		movs	r3, #132
 4741 0004 C35C     		ldrb	r3, [r0, r3]
 4742 0006 012B     		cmp	r3, #1
 4743 0008 10D0     		beq	.L377
 4744 000a 8422     		movs	r2, #132
 4745 000c 0123     		movs	r3, #1
 4746 000e 8354     		strb	r3, [r0, r2]
 4747 0010 8821     		movs	r1, #136
 4748 0012 2333     		adds	r3, r3, #35
 4749 0014 4350     		str	r3, [r0, r1]
 4750 0016 0468     		ldr	r4, [r0]
 4751 0018 A369     		ldr	r3, [r4, #24]
 4752 001a 0225     		movs	r5, #2
 4753 001c 2B43     		orrs	r3, r5
 4754 001e A361     		str	r3, [r4, #24]
 4755 0020 2023     		movs	r3, #32
 4756 0022 4350     		str	r3, [r0, r1]
 4757 0024 0023     		movs	r3, #0
 4758 0026 8354     		strb	r3, [r0, r2]
 4759 0028 0020     		movs	r0, #0
 4760              	.L376:
 4761              		@ sp needed
 4762 002a 30BD     		pop	{r4, r5, pc}
 4763              	.L377:
 4764 002c 0220     		movs	r0, #2
 4765 002e FCE7     		b	.L376
 4767              		.section	.text.HAL_UART_GetState,"ax",%progbits
 4768              		.align	1
 4769              		.global	HAL_UART_GetState
 4770              		.syntax unified
 4771              		.code	16
 4772              		.thumb_func
 4774              	HAL_UART_GetState:
 4775              		@ args = 0, pretend = 0, frame = 0
 4776              		@ frame_needed = 0, uses_anonymous_args = 0
 4777              		@ link register save eliminated.
 4778 0000 0300     		movs	r3, r0
 4779 0002 8822     		movs	r2, #136
ARM GAS  /var/folders/3q/0p8b__hx1wx8zj8b56q9glhc0000gn/T//ccWFpT72.s 			page 83


 4780 0004 8058     		ldr	r0, [r0, r2]
 4781 0006 0432     		adds	r2, r2, #4
 4782 0008 9B58     		ldr	r3, [r3, r2]
 4783 000a 1843     		orrs	r0, r3
 4784              		@ sp needed
 4785 000c 7047     		bx	lr
 4787              		.section	.text.HAL_UART_GetError,"ax",%progbits
 4788              		.align	1
 4789              		.global	HAL_UART_GetError
 4790              		.syntax unified
 4791              		.code	16
 4792              		.thumb_func
 4794              	HAL_UART_GetError:
 4795              		@ args = 0, pretend = 0, frame = 0
 4796              		@ frame_needed = 0, uses_anonymous_args = 0
 4797              		@ link register save eliminated.
 4798 0000 9023     		movs	r3, #144
 4799 0002 C058     		ldr	r0, [r0, r3]
 4800              		@ sp needed
 4801 0004 7047     		bx	lr
 4803              		.section	.text.UART_SetConfig,"ax",%progbits
 4804              		.align	1
 4805              		.global	UART_SetConfig
 4806              		.syntax unified
 4807              		.code	16
 4808              		.thumb_func
 4810              	UART_SetConfig:
 4811              		@ args = 0, pretend = 0, frame = 0
 4812              		@ frame_needed = 0, uses_anonymous_args = 0
 4813 0000 10B5     		push	{r4, lr}
 4814 0002 0400     		movs	r4, r0
 4815 0004 8368     		ldr	r3, [r0, #8]
 4816 0006 0269     		ldr	r2, [r0, #16]
 4817 0008 1343     		orrs	r3, r2
 4818 000a 4269     		ldr	r2, [r0, #20]
 4819 000c 1343     		orrs	r3, r2
 4820 000e C269     		ldr	r2, [r0, #28]
 4821 0010 1343     		orrs	r3, r2
 4822 0012 0168     		ldr	r1, [r0]
 4823 0014 0A68     		ldr	r2, [r1]
 4824 0016 6248     		ldr	r0, .L414
 4825 0018 0240     		ands	r2, r0
 4826 001a 1343     		orrs	r3, r2
 4827 001c 0B60     		str	r3, [r1]
 4828 001e 2268     		ldr	r2, [r4]
 4829 0020 5368     		ldr	r3, [r2, #4]
 4830 0022 6049     		ldr	r1, .L414+4
 4831 0024 0B40     		ands	r3, r1
 4832 0026 E168     		ldr	r1, [r4, #12]
 4833 0028 0B43     		orrs	r3, r1
 4834 002a 5360     		str	r3, [r2, #4]
 4835 002c A369     		ldr	r3, [r4, #24]
 4836 002e 226A     		ldr	r2, [r4, #32]
 4837 0030 1A43     		orrs	r2, r3
 4838 0032 2168     		ldr	r1, [r4]
 4839 0034 8B68     		ldr	r3, [r1, #8]
 4840 0036 5C48     		ldr	r0, .L414+8
ARM GAS  /var/folders/3q/0p8b__hx1wx8zj8b56q9glhc0000gn/T//ccWFpT72.s 			page 84


 4841 0038 0340     		ands	r3, r0
 4842 003a 1343     		orrs	r3, r2
 4843 003c 8B60     		str	r3, [r1, #8]
 4844 003e 2268     		ldr	r2, [r4]
 4845 0040 D36A     		ldr	r3, [r2, #44]
 4846 0042 0F21     		movs	r1, #15
 4847 0044 8B43     		bics	r3, r1
 4848 0046 616A     		ldr	r1, [r4, #36]
 4849 0048 0B43     		orrs	r3, r1
 4850 004a D362     		str	r3, [r2, #44]
 4851 004c 2368     		ldr	r3, [r4]
 4852 004e 574A     		ldr	r2, .L414+12
 4853 0050 9342     		cmp	r3, r2
 4854 0052 30D0     		beq	.L408
 4855 0054 564A     		ldr	r2, .L414+16
 4856 0056 9342     		cmp	r3, r2
 4857 0058 3ED0     		beq	.L409
 4858 005a 1023     		movs	r3, #16
 4859              	.L382:
 4860 005c E069     		ldr	r0, [r4, #28]
 4861 005e 8022     		movs	r2, #128
 4862 0060 1202     		lsls	r2, r2, #8
 4863 0062 9042     		cmp	r0, r2
 4864 0064 42D0     		beq	.L410
 4865 0066 042B     		cmp	r3, #4
 4866 0068 00D1     		bne	.LCB4073
 4867 006a 89E0     		b	.L392	@long jump
 4868              	.LCB4073:
 4869 006c 7BD8     		bhi	.L393
 4870 006e 002B     		cmp	r3, #0
 4871 0070 00D1     		bne	.LCB4077
 4872 0072 7FE0     		b	.L394	@long jump
 4873              	.LCB4077:
 4874 0074 022B     		cmp	r3, #2
 4875 0076 74D1     		bne	.L411
 4876 0078 4E4B     		ldr	r3, .L414+20
 4877 007a 1B68     		ldr	r3, [r3]
 4878 007c 5B09     		lsrs	r3, r3, #5
 4879 007e 0721     		movs	r1, #7
 4880 0080 1940     		ands	r1, r3
 4881 0082 0131     		adds	r1, r1, #1
 4882 0084 4C48     		ldr	r0, .L414+24
 4883 0086 FFF7FEFF 		bl	__aeabi_uidiv
 4884              	.L396:
 4885 008a 626A     		ldr	r2, [r4, #36]
 4886 008c 4B4B     		ldr	r3, .L414+28
 4887 008e 5200     		lsls	r2, r2, #1
 4888 0090 D15A     		ldrh	r1, [r2, r3]
 4889 0092 FFF7FEFF 		bl	__aeabi_uidiv
 4890 0096 6168     		ldr	r1, [r4, #4]
 4891 0098 4B08     		lsrs	r3, r1, #1
 4892 009a C018     		adds	r0, r0, r3
 4893 009c FFF7FEFF 		bl	__aeabi_uidiv
 4894 00a0 0200     		movs	r2, r0
 4895 00a2 103A     		subs	r2, r2, #16
 4896 00a4 464B     		ldr	r3, .L414+32
 4897 00a6 9A42     		cmp	r2, r3
ARM GAS  /var/folders/3q/0p8b__hx1wx8zj8b56q9glhc0000gn/T//ccWFpT72.s 			page 85


 4898 00a8 6FD8     		bhi	.L407
 4899 00aa 2368     		ldr	r3, [r4]
 4900 00ac 0004     		lsls	r0, r0, #16
 4901 00ae 000C     		lsrs	r0, r0, #16
 4902 00b0 D860     		str	r0, [r3, #12]
 4903 00b2 0020     		movs	r0, #0
 4904 00b4 6AE0     		b	.L389
 4905              	.L408:
 4906 00b6 3F4B     		ldr	r3, .L414+20
 4907 00b8 5A6D     		ldr	r2, [r3, #84]
 4908 00ba 0323     		movs	r3, #3
 4909 00bc 1340     		ands	r3, r2
 4910 00be 022B     		cmp	r3, #2
 4911 00c0 0CD0     		beq	.L398
 4912 00c2 05D8     		bhi	.L383
 4913 00c4 002B     		cmp	r3, #0
 4914 00c6 0BD0     		beq	.L399
 4915 00c8 012B     		cmp	r3, #1
 4916 00ca 0BD1     		bne	.L400
 4917 00cc 0333     		adds	r3, r3, #3
 4918 00ce C5E7     		b	.L382
 4919              	.L383:
 4920 00d0 032B     		cmp	r3, #3
 4921 00d2 09D1     		bne	.L401
 4922 00d4 0533     		adds	r3, r3, #5
 4923 00d6 C1E7     		b	.L382
 4924              	.L409:
 4925 00d8 0023     		movs	r3, #0
 4926 00da BFE7     		b	.L382
 4927              	.L398:
 4928 00dc 0223     		movs	r3, #2
 4929 00de BDE7     		b	.L382
 4930              	.L399:
 4931 00e0 0023     		movs	r3, #0
 4932 00e2 BBE7     		b	.L382
 4933              	.L400:
 4934 00e4 1023     		movs	r3, #16
 4935 00e6 B9E7     		b	.L382
 4936              	.L401:
 4937 00e8 1023     		movs	r3, #16
 4938 00ea B7E7     		b	.L382
 4939              	.L410:
 4940 00ec 042B     		cmp	r3, #4
 4941 00ee 35D0     		beq	.L385
 4942 00f0 2AD8     		bhi	.L386
 4943 00f2 002B     		cmp	r3, #0
 4944 00f4 2CD0     		beq	.L387
 4945 00f6 022B     		cmp	r3, #2
 4946 00f8 24D1     		bne	.L412
 4947 00fa 2E4B     		ldr	r3, .L414+20
 4948 00fc 1B68     		ldr	r3, [r3]
 4949 00fe 5B09     		lsrs	r3, r3, #5
 4950 0100 0721     		movs	r1, #7
 4951 0102 1940     		ands	r1, r3
 4952 0104 0131     		adds	r1, r1, #1
 4953 0106 2C48     		ldr	r0, .L414+24
 4954 0108 FFF7FEFF 		bl	__aeabi_uidiv
ARM GAS  /var/folders/3q/0p8b__hx1wx8zj8b56q9glhc0000gn/T//ccWFpT72.s 			page 86


 4955              	.L390:
 4956 010c 626A     		ldr	r2, [r4, #36]
 4957 010e 2B4B     		ldr	r3, .L414+28
 4958 0110 5200     		lsls	r2, r2, #1
 4959 0112 D15A     		ldrh	r1, [r2, r3]
 4960 0114 FFF7FEFF 		bl	__aeabi_uidiv
 4961 0118 4000     		lsls	r0, r0, #1
 4962 011a 6168     		ldr	r1, [r4, #4]
 4963 011c 4B08     		lsrs	r3, r1, #1
 4964 011e C018     		adds	r0, r0, r3
 4965 0120 FFF7FEFF 		bl	__aeabi_uidiv
 4966 0124 0200     		movs	r2, r0
 4967 0126 103A     		subs	r2, r2, #16
 4968 0128 254B     		ldr	r3, .L414+32
 4969 012a 9A42     		cmp	r2, r3
 4970 012c 2BD8     		bhi	.L404
 4971 012e 82B2     		uxth	r2, r0
 4972 0130 0F23     		movs	r3, #15
 4973 0132 9A43     		bics	r2, r3
 4974 0134 4008     		lsrs	r0, r0, #1
 4975 0136 083B     		subs	r3, r3, #8
 4976 0138 0340     		ands	r3, r0
 4977 013a 1343     		orrs	r3, r2
 4978 013c 2268     		ldr	r2, [r4]
 4979 013e D360     		str	r3, [r2, #12]
 4980 0140 0020     		movs	r0, #0
 4981 0142 23E0     		b	.L389
 4982              	.L412:
 4983 0144 0120     		movs	r0, #1
 4984 0146 21E0     		b	.L389
 4985              	.L386:
 4986 0148 082B     		cmp	r3, #8
 4987 014a DFD0     		beq	.L390
 4988 014c 0120     		movs	r0, #1
 4989 014e 1DE0     		b	.L389
 4990              	.L387:
 4991 0150 FFF7FEFF 		bl	HAL_RCC_GetPCLK1Freq
 4992              	.L391:
 4993 0154 0028     		cmp	r0, #0
 4994 0156 D9D1     		bne	.L390
 4995 0158 0020     		movs	r0, #0
 4996 015a 17E0     		b	.L389
 4997              	.L385:
 4998 015c FFF7FEFF 		bl	HAL_RCC_GetSysClockFreq
 4999 0160 F8E7     		b	.L391
 5000              	.L411:
 5001 0162 0120     		movs	r0, #1
 5002 0164 12E0     		b	.L389
 5003              	.L393:
 5004 0166 082B     		cmp	r3, #8
 5005 0168 02D1     		bne	.L413
 5006 016a 8020     		movs	r0, #128
 5007 016c 0002     		lsls	r0, r0, #8
 5008 016e 8CE7     		b	.L396
 5009              	.L413:
 5010 0170 0120     		movs	r0, #1
 5011 0172 0BE0     		b	.L389
ARM GAS  /var/folders/3q/0p8b__hx1wx8zj8b56q9glhc0000gn/T//ccWFpT72.s 			page 87


 5012              	.L394:
 5013 0174 FFF7FEFF 		bl	HAL_RCC_GetPCLK1Freq
 5014              	.L397:
 5015 0178 0028     		cmp	r0, #0
 5016 017a 86D1     		bne	.L396
 5017 017c 0020     		movs	r0, #0
 5018 017e 05E0     		b	.L389
 5019              	.L392:
 5020 0180 FFF7FEFF 		bl	HAL_RCC_GetSysClockFreq
 5021 0184 F8E7     		b	.L397
 5022              	.L404:
 5023 0186 0120     		movs	r0, #1
 5024 0188 00E0     		b	.L389
 5025              	.L407:
 5026 018a 0120     		movs	r0, #1
 5027              	.L389:
 5028 018c 0123     		movs	r3, #1
 5029 018e 6A22     		movs	r2, #106
 5030 0190 A352     		strh	r3, [r4, r2]
 5031 0192 023A     		subs	r2, r2, #2
 5032 0194 A352     		strh	r3, [r4, r2]
 5033 0196 0023     		movs	r3, #0
 5034 0198 6367     		str	r3, [r4, #116]
 5035 019a A367     		str	r3, [r4, #120]
 5036              		@ sp needed
 5037 019c 10BD     		pop	{r4, pc}
 5038              	.L415:
 5039 019e C046     		.align	2
 5040              	.L414:
 5041 01a0 F369FFCF 		.word	-805344781
 5042 01a4 FFCFFFFF 		.word	-12289
 5043 01a8 FFF4FF11 		.word	301987071
 5044 01ac 00380140 		.word	1073821696
 5045 01b0 00440040 		.word	1073759232
 5046 01b4 00100240 		.word	1073876992
 5047 01b8 006CDC02 		.word	48000000
 5048 01bc 00000000 		.word	UARTPrescTable
 5049 01c0 EFFF0000 		.word	65519
 5051              		.section	.text.UART_AdvFeatureConfig,"ax",%progbits
 5052              		.align	1
 5053              		.global	UART_AdvFeatureConfig
 5054              		.syntax unified
 5055              		.code	16
 5056              		.thumb_func
 5058              	UART_AdvFeatureConfig:
 5059              		@ args = 0, pretend = 0, frame = 0
 5060              		@ frame_needed = 0, uses_anonymous_args = 0
 5061              		@ link register save eliminated.
 5062 0000 836A     		ldr	r3, [r0, #40]
 5063 0002 1B07     		lsls	r3, r3, #28
 5064 0004 06D5     		bpl	.L417
 5065 0006 0268     		ldr	r2, [r0]
 5066 0008 5368     		ldr	r3, [r2, #4]
 5067 000a 2C49     		ldr	r1, .L434
 5068 000c 0B40     		ands	r3, r1
 5069 000e 816B     		ldr	r1, [r0, #56]
 5070 0010 0B43     		orrs	r3, r1
ARM GAS  /var/folders/3q/0p8b__hx1wx8zj8b56q9glhc0000gn/T//ccWFpT72.s 			page 88


 5071 0012 5360     		str	r3, [r2, #4]
 5072              	.L417:
 5073 0014 836A     		ldr	r3, [r0, #40]
 5074 0016 DB07     		lsls	r3, r3, #31
 5075 0018 06D5     		bpl	.L418
 5076 001a 0268     		ldr	r2, [r0]
 5077 001c 5368     		ldr	r3, [r2, #4]
 5078 001e 2849     		ldr	r1, .L434+4
 5079 0020 0B40     		ands	r3, r1
 5080 0022 C16A     		ldr	r1, [r0, #44]
 5081 0024 0B43     		orrs	r3, r1
 5082 0026 5360     		str	r3, [r2, #4]
 5083              	.L418:
 5084 0028 836A     		ldr	r3, [r0, #40]
 5085 002a 9B07     		lsls	r3, r3, #30
 5086 002c 06D5     		bpl	.L419
 5087 002e 0268     		ldr	r2, [r0]
 5088 0030 5368     		ldr	r3, [r2, #4]
 5089 0032 2449     		ldr	r1, .L434+8
 5090 0034 0B40     		ands	r3, r1
 5091 0036 016B     		ldr	r1, [r0, #48]
 5092 0038 0B43     		orrs	r3, r1
 5093 003a 5360     		str	r3, [r2, #4]
 5094              	.L419:
 5095 003c 836A     		ldr	r3, [r0, #40]
 5096 003e 5B07     		lsls	r3, r3, #29
 5097 0040 06D5     		bpl	.L420
 5098 0042 0268     		ldr	r2, [r0]
 5099 0044 5368     		ldr	r3, [r2, #4]
 5100 0046 2049     		ldr	r1, .L434+12
 5101 0048 0B40     		ands	r3, r1
 5102 004a 416B     		ldr	r1, [r0, #52]
 5103 004c 0B43     		orrs	r3, r1
 5104 004e 5360     		str	r3, [r2, #4]
 5105              	.L420:
 5106 0050 836A     		ldr	r3, [r0, #40]
 5107 0052 DB06     		lsls	r3, r3, #27
 5108 0054 06D5     		bpl	.L421
 5109 0056 0268     		ldr	r2, [r0]
 5110 0058 9368     		ldr	r3, [r2, #8]
 5111 005a 1C49     		ldr	r1, .L434+16
 5112 005c 0B40     		ands	r3, r1
 5113 005e C16B     		ldr	r1, [r0, #60]
 5114 0060 0B43     		orrs	r3, r1
 5115 0062 9360     		str	r3, [r2, #8]
 5116              	.L421:
 5117 0064 836A     		ldr	r3, [r0, #40]
 5118 0066 9B06     		lsls	r3, r3, #26
 5119 0068 06D5     		bpl	.L422
 5120 006a 0268     		ldr	r2, [r0]
 5121 006c 9368     		ldr	r3, [r2, #8]
 5122 006e 1849     		ldr	r1, .L434+20
 5123 0070 0B40     		ands	r3, r1
 5124 0072 016C     		ldr	r1, [r0, #64]
 5125 0074 0B43     		orrs	r3, r1
 5126 0076 9360     		str	r3, [r2, #8]
 5127              	.L422:
ARM GAS  /var/folders/3q/0p8b__hx1wx8zj8b56q9glhc0000gn/T//ccWFpT72.s 			page 89


 5128 0078 836A     		ldr	r3, [r0, #40]
 5129 007a 5B06     		lsls	r3, r3, #25
 5130 007c 0BD5     		bpl	.L423
 5131 007e 0268     		ldr	r2, [r0]
 5132 0080 5368     		ldr	r3, [r2, #4]
 5133 0082 1449     		ldr	r1, .L434+24
 5134 0084 0B40     		ands	r3, r1
 5135 0086 416C     		ldr	r1, [r0, #68]
 5136 0088 0B43     		orrs	r3, r1
 5137 008a 5360     		str	r3, [r2, #4]
 5138 008c 426C     		ldr	r2, [r0, #68]
 5139 008e 8023     		movs	r3, #128
 5140 0090 5B03     		lsls	r3, r3, #13
 5141 0092 9A42     		cmp	r2, r3
 5142 0094 0AD0     		beq	.L433
 5143              	.L423:
 5144 0096 836A     		ldr	r3, [r0, #40]
 5145 0098 1B06     		lsls	r3, r3, #24
 5146 009a 06D5     		bpl	.L416
 5147 009c 0268     		ldr	r2, [r0]
 5148 009e 5368     		ldr	r3, [r2, #4]
 5149 00a0 0D49     		ldr	r1, .L434+28
 5150 00a2 0B40     		ands	r3, r1
 5151 00a4 C16C     		ldr	r1, [r0, #76]
 5152 00a6 0B43     		orrs	r3, r1
 5153 00a8 5360     		str	r3, [r2, #4]
 5154              	.L416:
 5155              		@ sp needed
 5156 00aa 7047     		bx	lr
 5157              	.L433:
 5158 00ac 0268     		ldr	r2, [r0]
 5159 00ae 5368     		ldr	r3, [r2, #4]
 5160 00b0 0A49     		ldr	r1, .L434+32
 5161 00b2 0B40     		ands	r3, r1
 5162 00b4 816C     		ldr	r1, [r0, #72]
 5163 00b6 0B43     		orrs	r3, r1
 5164 00b8 5360     		str	r3, [r2, #4]
 5165 00ba ECE7     		b	.L423
 5166              	.L435:
 5167              		.align	2
 5168              	.L434:
 5169 00bc FF7FFFFF 		.word	-32769
 5170 00c0 FFFFFDFF 		.word	-131073
 5171 00c4 FFFFFEFF 		.word	-65537
 5172 00c8 FFFFFBFF 		.word	-262145
 5173 00cc FFEFFFFF 		.word	-4097
 5174 00d0 FFDFFFFF 		.word	-8193
 5175 00d4 FFFFEFFF 		.word	-1048577
 5176 00d8 FFFFF7FF 		.word	-524289
 5177 00dc FFFF9FFF 		.word	-6291457
 5179              		.section	.text.UART_WaitOnFlagUntilTimeout,"ax",%progbits
 5180              		.align	1
 5181              		.global	UART_WaitOnFlagUntilTimeout
 5182              		.syntax unified
 5183              		.code	16
 5184              		.thumb_func
 5186              	UART_WaitOnFlagUntilTimeout:
ARM GAS  /var/folders/3q/0p8b__hx1wx8zj8b56q9glhc0000gn/T//ccWFpT72.s 			page 90


 5187              		@ args = 4, pretend = 0, frame = 0
 5188              		@ frame_needed = 0, uses_anonymous_args = 0
 5189 0000 F8B5     		push	{r3, r4, r5, r6, r7, lr}
 5190 0002 CE46     		mov	lr, r9
 5191 0004 4746     		mov	r7, r8
 5192 0006 80B5     		push	{r7, lr}
 5193 0008 0600     		movs	r6, r0
 5194 000a 0D00     		movs	r5, r1
 5195 000c 1700     		movs	r7, r2
 5196 000e 9946     		mov	r9, r3
 5197 0010 089B     		ldr	r3, [sp, #32]
 5198 0012 9846     		mov	r8, r3
 5199              	.L438:
 5200 0014 3368     		ldr	r3, [r6]
 5201 0016 DC69     		ldr	r4, [r3, #28]
 5202 0018 2C40     		ands	r4, r5
 5203 001a 641B     		subs	r4, r4, r5
 5204 001c 6342     		rsbs	r3, r4, #0
 5205 001e 5C41     		adcs	r4, r4, r3
 5206 0020 BC42     		cmp	r4, r7
 5207 0022 33D1     		bne	.L447
 5208 0024 4346     		mov	r3, r8
 5209 0026 0133     		adds	r3, r3, #1
 5210 0028 F4D0     		beq	.L438
 5211 002a FFF7FEFF 		bl	HAL_GetTick
 5212 002e 4B46     		mov	r3, r9
 5213 0030 C01A     		subs	r0, r0, r3
 5214 0032 4045     		cmp	r0, r8
 5215 0034 2FD8     		bhi	.L442
 5216 0036 4346     		mov	r3, r8
 5217 0038 002B     		cmp	r3, #0
 5218 003a 2ED0     		beq	.L443
 5219 003c 3268     		ldr	r2, [r6]
 5220 003e 1368     		ldr	r3, [r2]
 5221 0040 5B07     		lsls	r3, r3, #29
 5222 0042 E7D5     		bpl	.L438
 5223 0044 802D     		cmp	r5, #128
 5224 0046 E5D0     		beq	.L438
 5225 0048 402D     		cmp	r5, #64
 5226 004a E3D0     		beq	.L438
 5227 004c D369     		ldr	r3, [r2, #28]
 5228 004e 1B07     		lsls	r3, r3, #28
 5229 0050 10D4     		bmi	.L448
 5230 0052 D369     		ldr	r3, [r2, #28]
 5231 0054 1B05     		lsls	r3, r3, #20
 5232 0056 DDD5     		bpl	.L438
 5233 0058 8023     		movs	r3, #128
 5234 005a 1B01     		lsls	r3, r3, #4
 5235 005c 1362     		str	r3, [r2, #32]
 5236 005e 3000     		movs	r0, r6
 5237 0060 FFF7FEFF 		bl	UART_EndRxTransfer
 5238 0064 9023     		movs	r3, #144
 5239 0066 2022     		movs	r2, #32
 5240 0068 F250     		str	r2, [r6, r3]
 5241 006a 0C3B     		subs	r3, r3, #12
 5242 006c 0022     		movs	r2, #0
 5243 006e F254     		strb	r2, [r6, r3]
ARM GAS  /var/folders/3q/0p8b__hx1wx8zj8b56q9glhc0000gn/T//ccWFpT72.s 			page 91


 5244 0070 0320     		movs	r0, #3
 5245 0072 0CE0     		b	.L439
 5246              	.L448:
 5247 0074 0824     		movs	r4, #8
 5248 0076 1462     		str	r4, [r2, #32]
 5249 0078 3000     		movs	r0, r6
 5250 007a FFF7FEFF 		bl	UART_EndRxTransfer
 5251 007e 9023     		movs	r3, #144
 5252 0080 F450     		str	r4, [r6, r3]
 5253 0082 0C3B     		subs	r3, r3, #12
 5254 0084 0022     		movs	r2, #0
 5255 0086 F254     		strb	r2, [r6, r3]
 5256 0088 0120     		movs	r0, #1
 5257 008a 00E0     		b	.L439
 5258              	.L447:
 5259 008c 0020     		movs	r0, #0
 5260              	.L439:
 5261              		@ sp needed
 5262 008e C0BC     		pop	{r6, r7}
 5263 0090 B946     		mov	r9, r7
 5264 0092 B046     		mov	r8, r6
 5265 0094 F8BD     		pop	{r3, r4, r5, r6, r7, pc}
 5266              	.L442:
 5267 0096 0320     		movs	r0, #3
 5268 0098 F9E7     		b	.L439
 5269              	.L443:
 5270 009a 0320     		movs	r0, #3
 5271 009c F7E7     		b	.L439
 5273              		.section	.text.HAL_UART_Transmit,"ax",%progbits
 5274              		.align	1
 5275              		.global	HAL_UART_Transmit
 5276              		.syntax unified
 5277              		.code	16
 5278              		.thumb_func
 5280              	HAL_UART_Transmit:
 5281              		@ args = 0, pretend = 0, frame = 0
 5282              		@ frame_needed = 0, uses_anonymous_args = 0
 5283 0000 F0B5     		push	{r4, r5, r6, r7, lr}
 5284 0002 C646     		mov	lr, r8
 5285 0004 00B5     		push	{lr}
 5286 0006 82B0     		sub	sp, sp, #8
 5287 0008 0400     		movs	r4, r0
 5288 000a 0D00     		movs	r5, r1
 5289 000c 9046     		mov	r8, r2
 5290 000e 1E00     		movs	r6, r3
 5291 0010 8823     		movs	r3, #136
 5292 0012 C358     		ldr	r3, [r0, r3]
 5293 0014 202B     		cmp	r3, #32
 5294 0016 65D1     		bne	.L459
 5295 0018 0029     		cmp	r1, #0
 5296 001a 68D0     		beq	.L460
 5297 001c 002A     		cmp	r2, #0
 5298 001e 68D0     		beq	.L461
 5299 0020 8268     		ldr	r2, [r0, #8]
 5300 0022 8023     		movs	r3, #128
 5301 0024 5B01     		lsls	r3, r3, #5
 5302 0026 9A42     		cmp	r2, r3
ARM GAS  /var/folders/3q/0p8b__hx1wx8zj8b56q9glhc0000gn/T//ccWFpT72.s 			page 92


 5303 0028 04D1     		bne	.L451
 5304 002a 0369     		ldr	r3, [r0, #16]
 5305 002c 002B     		cmp	r3, #0
 5306 002e 01D1     		bne	.L451
 5307 0030 CB07     		lsls	r3, r1, #31
 5308 0032 60D4     		bmi	.L462
 5309              	.L451:
 5310 0034 9023     		movs	r3, #144
 5311 0036 0022     		movs	r2, #0
 5312 0038 E250     		str	r2, [r4, r3]
 5313 003a 083B     		subs	r3, r3, #8
 5314 003c 2132     		adds	r2, r2, #33
 5315 003e E250     		str	r2, [r4, r3]
 5316 0040 FFF7FEFF 		bl	HAL_GetTick
 5317 0044 0700     		movs	r7, r0
 5318 0046 5423     		movs	r3, #84
 5319 0048 4246     		mov	r2, r8
 5320 004a E252     		strh	r2, [r4, r3]
 5321 004c 0233     		adds	r3, r3, #2
 5322 004e E252     		strh	r2, [r4, r3]
 5323 0050 A268     		ldr	r2, [r4, #8]
 5324 0052 8023     		movs	r3, #128
 5325 0054 5B01     		lsls	r3, r3, #5
 5326 0056 9A42     		cmp	r2, r3
 5327 0058 02D0     		beq	.L465
 5328 005a 0023     		movs	r3, #0
 5329 005c 9846     		mov	r8, r3
 5330 005e 18E0     		b	.L456
 5331              	.L465:
 5332 0060 2369     		ldr	r3, [r4, #16]
 5333 0062 002B     		cmp	r3, #0
 5334 0064 29D0     		beq	.L464
 5335 0066 0023     		movs	r3, #0
 5336 0068 9846     		mov	r8, r3
 5337 006a 12E0     		b	.L456
 5338              	.L467:
 5339 006c 8823     		movs	r3, #136
 5340 006e 2022     		movs	r2, #32
 5341 0070 E250     		str	r2, [r4, r3]
 5342 0072 0320     		movs	r0, #3
 5343 0074 37E0     		b	.L450
 5344              	.L468:
 5345 0076 4346     		mov	r3, r8
 5346 0078 1B88     		ldrh	r3, [r3]
 5347 007a 2268     		ldr	r2, [r4]
 5348 007c DB05     		lsls	r3, r3, #23
 5349 007e DB0D     		lsrs	r3, r3, #23
 5350 0080 9362     		str	r3, [r2, #40]
 5351 0082 0223     		movs	r3, #2
 5352 0084 9C46     		mov	ip, r3
 5353 0086 E044     		add	r8, r8, ip
 5354              	.L455:
 5355 0088 5623     		movs	r3, #86
 5356 008a E25A     		ldrh	r2, [r4, r3]
 5357 008c 013A     		subs	r2, r2, #1
 5358 008e 92B2     		uxth	r2, r2
 5359 0090 E252     		strh	r2, [r4, r3]
ARM GAS  /var/folders/3q/0p8b__hx1wx8zj8b56q9glhc0000gn/T//ccWFpT72.s 			page 93


 5360              	.L456:
 5361 0092 5623     		movs	r3, #86
 5362 0094 E35A     		ldrh	r3, [r4, r3]
 5363 0096 002B     		cmp	r3, #0
 5364 0098 12D0     		beq	.L466
 5365 009a 0096     		str	r6, [sp]
 5366 009c 3B00     		movs	r3, r7
 5367 009e 0022     		movs	r2, #0
 5368 00a0 8021     		movs	r1, #128
 5369 00a2 2000     		movs	r0, r4
 5370 00a4 FFF7FEFF 		bl	UART_WaitOnFlagUntilTimeout
 5371 00a8 0028     		cmp	r0, #0
 5372 00aa DFD1     		bne	.L467
 5373 00ac 002D     		cmp	r5, #0
 5374 00ae E2D0     		beq	.L468
 5375 00b0 2A78     		ldrb	r2, [r5]
 5376 00b2 2368     		ldr	r3, [r4]
 5377 00b4 9A62     		str	r2, [r3, #40]
 5378 00b6 0135     		adds	r5, r5, #1
 5379 00b8 E6E7     		b	.L455
 5380              	.L464:
 5381 00ba A846     		mov	r8, r5
 5382 00bc 0025     		movs	r5, #0
 5383 00be E8E7     		b	.L456
 5384              	.L466:
 5385 00c0 0096     		str	r6, [sp]
 5386 00c2 3B00     		movs	r3, r7
 5387 00c4 0022     		movs	r2, #0
 5388 00c6 4021     		movs	r1, #64
 5389 00c8 2000     		movs	r0, r4
 5390 00ca FFF7FEFF 		bl	UART_WaitOnFlagUntilTimeout
 5391 00ce 0028     		cmp	r0, #0
 5392 00d0 03D1     		bne	.L469
 5393 00d2 8823     		movs	r3, #136
 5394 00d4 2022     		movs	r2, #32
 5395 00d6 E250     		str	r2, [r4, r3]
 5396 00d8 05E0     		b	.L450
 5397              	.L469:
 5398 00da 8823     		movs	r3, #136
 5399 00dc 2022     		movs	r2, #32
 5400 00de E250     		str	r2, [r4, r3]
 5401 00e0 0320     		movs	r0, #3
 5402 00e2 00E0     		b	.L450
 5403              	.L459:
 5404 00e4 0220     		movs	r0, #2
 5405              	.L450:
 5406 00e6 02B0     		add	sp, sp, #8
 5407              		@ sp needed
 5408 00e8 80BC     		pop	{r7}
 5409 00ea B846     		mov	r8, r7
 5410 00ec F0BD     		pop	{r4, r5, r6, r7, pc}
 5411              	.L460:
 5412 00ee 0120     		movs	r0, #1
 5413 00f0 F9E7     		b	.L450
 5414              	.L461:
 5415 00f2 0120     		movs	r0, #1
 5416 00f4 F7E7     		b	.L450
ARM GAS  /var/folders/3q/0p8b__hx1wx8zj8b56q9glhc0000gn/T//ccWFpT72.s 			page 94


 5417              	.L462:
 5418 00f6 0120     		movs	r0, #1
 5419 00f8 F5E7     		b	.L450
 5421              		.section	.text.HAL_UART_Receive,"ax",%progbits
 5422              		.align	1
 5423              		.global	HAL_UART_Receive
 5424              		.syntax unified
 5425              		.code	16
 5426              		.thumb_func
 5428              	HAL_UART_Receive:
 5429              		@ args = 0, pretend = 0, frame = 8
 5430              		@ frame_needed = 0, uses_anonymous_args = 0
 5431 0000 F0B5     		push	{r4, r5, r6, r7, lr}
 5432 0002 C646     		mov	lr, r8
 5433 0004 00B5     		push	{lr}
 5434 0006 84B0     		sub	sp, sp, #16
 5435 0008 0400     		movs	r4, r0
 5436 000a 0E00     		movs	r6, r1
 5437 000c 1500     		movs	r5, r2
 5438 000e 1F00     		movs	r7, r3
 5439 0010 8C23     		movs	r3, #140
 5440 0012 C358     		ldr	r3, [r0, r3]
 5441 0014 202B     		cmp	r3, #32
 5442 0016 00D0     		beq	.LCB4765
 5443 0018 8AE0     		b	.L486	@long jump
 5444              	.LCB4765:
 5445 001a 0029     		cmp	r1, #0
 5446 001c 00D1     		bne	.LCB4767
 5447 001e 8CE0     		b	.L487	@long jump
 5448              	.LCB4767:
 5449 0020 002A     		cmp	r2, #0
 5450 0022 00D1     		bne	.LCB4769
 5451 0024 8BE0     		b	.L488	@long jump
 5452              	.LCB4769:
 5453 0026 8268     		ldr	r2, [r0, #8]
 5454 0028 8023     		movs	r3, #128
 5455 002a 5B01     		lsls	r3, r3, #5
 5456 002c 9A42     		cmp	r2, r3
 5457 002e 05D1     		bne	.L472
 5458 0030 0369     		ldr	r3, [r0, #16]
 5459 0032 002B     		cmp	r3, #0
 5460 0034 02D1     		bne	.L472
 5461 0036 CB07     		lsls	r3, r1, #31
 5462 0038 00D5     		bpl	.LCB4781
 5463 003a 82E0     		b	.L489	@long jump
 5464              	.LCB4781:
 5465              	.L472:
 5466 003c 0023     		movs	r3, #0
 5467 003e 9022     		movs	r2, #144
 5468 0040 A350     		str	r3, [r4, r2]
 5469 0042 043A     		subs	r2, r2, #4
 5470 0044 2221     		movs	r1, #34
 5471 0046 A150     		str	r1, [r4, r2]
 5472 0048 E366     		str	r3, [r4, #108]
 5473 004a FFF7FEFF 		bl	HAL_GetTick
 5474 004e 8046     		mov	r8, r0
 5475 0050 5C23     		movs	r3, #92
ARM GAS  /var/folders/3q/0p8b__hx1wx8zj8b56q9glhc0000gn/T//ccWFpT72.s 			page 95


 5476 0052 E552     		strh	r5, [r4, r3]
 5477 0054 0233     		adds	r3, r3, #2
 5478 0056 E552     		strh	r5, [r4, r3]
 5479 0058 A368     		ldr	r3, [r4, #8]
 5480 005a 8022     		movs	r2, #128
 5481 005c 5201     		lsls	r2, r2, #5
 5482 005e 9342     		cmp	r3, r2
 5483 0060 08D0     		beq	.L492
 5484 0062 002B     		cmp	r3, #0
 5485 0064 15D1     		bne	.L476
 5486 0066 2269     		ldr	r2, [r4, #16]
 5487 0068 002A     		cmp	r2, #0
 5488 006a 0ED1     		bne	.L477
 5489 006c 6032     		adds	r2, r2, #96
 5490 006e FF21     		movs	r1, #255
 5491 0070 A152     		strh	r1, [r4, r2]
 5492 0072 15E0     		b	.L475
 5493              	.L492:
 5494 0074 2269     		ldr	r2, [r4, #16]
 5495 0076 002A     		cmp	r2, #0
 5496 0078 03D1     		bne	.L474
 5497 007a 6032     		adds	r2, r2, #96
 5498 007c 3249     		ldr	r1, .L498
 5499 007e A152     		strh	r1, [r4, r2]
 5500 0080 0EE0     		b	.L475
 5501              	.L474:
 5502 0082 6022     		movs	r2, #96
 5503 0084 FF21     		movs	r1, #255
 5504 0086 A152     		strh	r1, [r4, r2]
 5505 0088 0AE0     		b	.L475
 5506              	.L477:
 5507 008a 6022     		movs	r2, #96
 5508 008c 7F21     		movs	r1, #127
 5509 008e A152     		strh	r1, [r4, r2]
 5510 0090 06E0     		b	.L475
 5511              	.L476:
 5512 0092 8022     		movs	r2, #128
 5513 0094 5205     		lsls	r2, r2, #21
 5514 0096 9342     		cmp	r3, r2
 5515 0098 0BD0     		beq	.L493
 5516 009a 6022     		movs	r2, #96
 5517 009c 0021     		movs	r1, #0
 5518 009e A152     		strh	r1, [r4, r2]
 5519              	.L475:
 5520 00a0 6022     		movs	r2, #96
 5521 00a2 A25A     		ldrh	r2, [r4, r2]
 5522 00a4 0392     		str	r2, [sp, #12]
 5523 00a6 8022     		movs	r2, #128
 5524 00a8 5201     		lsls	r2, r2, #5
 5525 00aa 9342     		cmp	r3, r2
 5526 00ac 0CD0     		beq	.L494
 5527 00ae 0025     		movs	r5, #0
 5528 00b0 1FE0     		b	.L484
 5529              	.L493:
 5530 00b2 2269     		ldr	r2, [r4, #16]
 5531 00b4 002A     		cmp	r2, #0
 5532 00b6 03D1     		bne	.L479
ARM GAS  /var/folders/3q/0p8b__hx1wx8zj8b56q9glhc0000gn/T//ccWFpT72.s 			page 96


 5533 00b8 6032     		adds	r2, r2, #96
 5534 00ba 7F21     		movs	r1, #127
 5535 00bc A152     		strh	r1, [r4, r2]
 5536 00be EFE7     		b	.L475
 5537              	.L479:
 5538 00c0 6022     		movs	r2, #96
 5539 00c2 3F21     		movs	r1, #63
 5540 00c4 A152     		strh	r1, [r4, r2]
 5541 00c6 EBE7     		b	.L475
 5542              	.L494:
 5543 00c8 2369     		ldr	r3, [r4, #16]
 5544 00ca 002B     		cmp	r3, #0
 5545 00cc 28D0     		beq	.L491
 5546 00ce 0025     		movs	r5, #0
 5547 00d0 0FE0     		b	.L484
 5548              	.L496:
 5549 00d2 8C23     		movs	r3, #140
 5550 00d4 2022     		movs	r2, #32
 5551 00d6 E250     		str	r2, [r4, r3]
 5552 00d8 0320     		movs	r0, #3
 5553 00da 2AE0     		b	.L471
 5554              	.L497:
 5555 00dc 2368     		ldr	r3, [r4]
 5556 00de 5B6A     		ldr	r3, [r3, #36]
 5557 00e0 039A     		ldr	r2, [sp, #12]
 5558 00e2 1340     		ands	r3, r2
 5559 00e4 2B80     		strh	r3, [r5]
 5560 00e6 0235     		adds	r5, r5, #2
 5561              	.L483:
 5562 00e8 5E23     		movs	r3, #94
 5563 00ea E25A     		ldrh	r2, [r4, r3]
 5564 00ec 013A     		subs	r2, r2, #1
 5565 00ee 92B2     		uxth	r2, r2
 5566 00f0 E252     		strh	r2, [r4, r3]
 5567              	.L484:
 5568 00f2 5E23     		movs	r3, #94
 5569 00f4 E35A     		ldrh	r3, [r4, r3]
 5570 00f6 002B     		cmp	r3, #0
 5571 00f8 15D0     		beq	.L495
 5572 00fa 0097     		str	r7, [sp]
 5573 00fc 4346     		mov	r3, r8
 5574 00fe 0022     		movs	r2, #0
 5575 0100 2021     		movs	r1, #32
 5576 0102 2000     		movs	r0, r4
 5577 0104 FFF7FEFF 		bl	UART_WaitOnFlagUntilTimeout
 5578 0108 0028     		cmp	r0, #0
 5579 010a E2D1     		bne	.L496
 5580 010c 002E     		cmp	r6, #0
 5581 010e E5D0     		beq	.L497
 5582 0110 2368     		ldr	r3, [r4]
 5583 0112 5B6A     		ldr	r3, [r3, #36]
 5584 0114 6A46     		mov	r2, sp
 5585 0116 127B     		ldrb	r2, [r2, #12]
 5586 0118 1340     		ands	r3, r2
 5587 011a 3370     		strb	r3, [r6]
 5588 011c 0136     		adds	r6, r6, #1
 5589 011e E3E7     		b	.L483
ARM GAS  /var/folders/3q/0p8b__hx1wx8zj8b56q9glhc0000gn/T//ccWFpT72.s 			page 97


 5590              	.L491:
 5591 0120 3500     		movs	r5, r6
 5592 0122 0026     		movs	r6, #0
 5593 0124 E5E7     		b	.L484
 5594              	.L495:
 5595 0126 8C33     		adds	r3, r3, #140
 5596 0128 2022     		movs	r2, #32
 5597 012a E250     		str	r2, [r4, r3]
 5598 012c 0020     		movs	r0, #0
 5599 012e 00E0     		b	.L471
 5600              	.L486:
 5601 0130 0220     		movs	r0, #2
 5602              	.L471:
 5603 0132 04B0     		add	sp, sp, #16
 5604              		@ sp needed
 5605 0134 80BC     		pop	{r7}
 5606 0136 B846     		mov	r8, r7
 5607 0138 F0BD     		pop	{r4, r5, r6, r7, pc}
 5608              	.L487:
 5609 013a 0120     		movs	r0, #1
 5610 013c F9E7     		b	.L471
 5611              	.L488:
 5612 013e 0120     		movs	r0, #1
 5613 0140 F7E7     		b	.L471
 5614              	.L489:
 5615 0142 0120     		movs	r0, #1
 5616 0144 F5E7     		b	.L471
 5617              	.L499:
 5618 0146 C046     		.align	2
 5619              	.L498:
 5620 0148 FF010000 		.word	511
 5622              		.section	.text.UART_CheckIdleState,"ax",%progbits
 5623              		.align	1
 5624              		.global	UART_CheckIdleState
 5625              		.syntax unified
 5626              		.code	16
 5627              		.thumb_func
 5629              	UART_CheckIdleState:
 5630              		@ args = 0, pretend = 0, frame = 0
 5631              		@ frame_needed = 0, uses_anonymous_args = 0
 5632 0000 30B5     		push	{r4, r5, lr}
 5633 0002 83B0     		sub	sp, sp, #12
 5634 0004 0400     		movs	r4, r0
 5635 0006 9023     		movs	r3, #144
 5636 0008 0022     		movs	r2, #0
 5637 000a C250     		str	r2, [r0, r3]
 5638 000c FFF7FEFF 		bl	HAL_GetTick
 5639 0010 0500     		movs	r5, r0
 5640 0012 2368     		ldr	r3, [r4]
 5641 0014 1B68     		ldr	r3, [r3]
 5642 0016 1B07     		lsls	r3, r3, #28
 5643 0018 10D4     		bmi	.L506
 5644              	.L501:
 5645 001a 2368     		ldr	r3, [r4]
 5646 001c 1B68     		ldr	r3, [r3]
 5647 001e 5B07     		lsls	r3, r3, #29
 5648 0020 2BD4     		bmi	.L507
ARM GAS  /var/folders/3q/0p8b__hx1wx8zj8b56q9glhc0000gn/T//ccWFpT72.s 			page 98


 5649              	.L503:
 5650 0022 2023     		movs	r3, #32
 5651 0024 8822     		movs	r2, #136
 5652 0026 A350     		str	r3, [r4, r2]
 5653 0028 0432     		adds	r2, r2, #4
 5654 002a A350     		str	r3, [r4, r2]
 5655 002c 0023     		movs	r3, #0
 5656 002e E366     		str	r3, [r4, #108]
 5657 0030 2367     		str	r3, [r4, #112]
 5658 0032 083A     		subs	r2, r2, #8
 5659 0034 A354     		strb	r3, [r4, r2]
 5660 0036 0020     		movs	r0, #0
 5661              	.L502:
 5662 0038 03B0     		add	sp, sp, #12
 5663              		@ sp needed
 5664 003a 30BD     		pop	{r4, r5, pc}
 5665              	.L506:
 5666 003c 8021     		movs	r1, #128
 5667 003e 234B     		ldr	r3, .L508
 5668 0040 0093     		str	r3, [sp]
 5669 0042 0300     		movs	r3, r0
 5670 0044 0022     		movs	r2, #0
 5671 0046 8903     		lsls	r1, r1, #14
 5672 0048 2000     		movs	r0, r4
 5673 004a FFF7FEFF 		bl	UART_WaitOnFlagUntilTimeout
 5674 004e 0028     		cmp	r0, #0
 5675 0050 E3D0     		beq	.L501
 5676              		.syntax divided
 5677              	@ 1208 "Drivers/CMSIS/Include/cmsis_gcc.h" 1
 5678 0052 EFF31081 		MRS r1, primask
 5679              	@ 0 "" 2
 5680              		.thumb
 5681              		.syntax unified
 5682 0056 0123     		movs	r3, #1
 5683              		.syntax divided
 5684              	@ 1236 "Drivers/CMSIS/Include/cmsis_gcc.h" 1
 5685 0058 83F31088 		MSR primask, r3
 5686              	@ 0 "" 2
 5687              		.thumb
 5688              		.syntax unified
 5689 005c 2268     		ldr	r2, [r4]
 5690 005e 1368     		ldr	r3, [r2]
 5691 0060 8020     		movs	r0, #128
 5692 0062 8343     		bics	r3, r0
 5693 0064 1360     		str	r3, [r2]
 5694              		.syntax divided
 5695              	@ 1236 "Drivers/CMSIS/Include/cmsis_gcc.h" 1
 5696 0066 81F31088 		MSR primask, r1
 5697              	@ 0 "" 2
 5698              		.thumb
 5699              		.syntax unified
 5700 006a 8823     		movs	r3, #136
 5701 006c 2022     		movs	r2, #32
 5702 006e E250     		str	r2, [r4, r3]
 5703 0070 043B     		subs	r3, r3, #4
 5704 0072 0022     		movs	r2, #0
 5705 0074 E254     		strb	r2, [r4, r3]
ARM GAS  /var/folders/3q/0p8b__hx1wx8zj8b56q9glhc0000gn/T//ccWFpT72.s 			page 99


 5706 0076 7D38     		subs	r0, r0, #125
 5707 0078 DEE7     		b	.L502
 5708              	.L507:
 5709 007a 8021     		movs	r1, #128
 5710 007c 134B     		ldr	r3, .L508
 5711 007e 0093     		str	r3, [sp]
 5712 0080 2B00     		movs	r3, r5
 5713 0082 0022     		movs	r2, #0
 5714 0084 C903     		lsls	r1, r1, #15
 5715 0086 2000     		movs	r0, r4
 5716 0088 FFF7FEFF 		bl	UART_WaitOnFlagUntilTimeout
 5717 008c 0028     		cmp	r0, #0
 5718 008e C8D0     		beq	.L503
 5719              		.syntax divided
 5720              	@ 1208 "Drivers/CMSIS/Include/cmsis_gcc.h" 1
 5721 0090 EFF31080 		MRS r0, primask
 5722              	@ 0 "" 2
 5723              		.thumb
 5724              		.syntax unified
 5725 0094 0122     		movs	r2, #1
 5726              		.syntax divided
 5727              	@ 1236 "Drivers/CMSIS/Include/cmsis_gcc.h" 1
 5728 0096 82F31088 		MSR primask, r2
 5729              	@ 0 "" 2
 5730              		.thumb
 5731              		.syntax unified
 5732 009a 2168     		ldr	r1, [r4]
 5733 009c 0B68     		ldr	r3, [r1]
 5734 009e 0C4D     		ldr	r5, .L508+4
 5735 00a0 2B40     		ands	r3, r5
 5736 00a2 0B60     		str	r3, [r1]
 5737              		.syntax divided
 5738              	@ 1236 "Drivers/CMSIS/Include/cmsis_gcc.h" 1
 5739 00a4 80F31088 		MSR primask, r0
 5740              	@ 0 "" 2
 5741              	@ 1208 "Drivers/CMSIS/Include/cmsis_gcc.h" 1
 5742 00a8 EFF31080 		MRS r0, primask
 5743              	@ 0 "" 2
 5744              	@ 1236 "Drivers/CMSIS/Include/cmsis_gcc.h" 1
 5745 00ac 82F31088 		MSR primask, r2
 5746              	@ 0 "" 2
 5747              		.thumb
 5748              		.syntax unified
 5749 00b0 2168     		ldr	r1, [r4]
 5750 00b2 8B68     		ldr	r3, [r1, #8]
 5751 00b4 9343     		bics	r3, r2
 5752 00b6 8B60     		str	r3, [r1, #8]
 5753              		.syntax divided
 5754              	@ 1236 "Drivers/CMSIS/Include/cmsis_gcc.h" 1
 5755 00b8 80F31088 		MSR primask, r0
 5756              	@ 0 "" 2
 5757              		.thumb
 5758              		.syntax unified
 5759 00bc 8C23     		movs	r3, #140
 5760 00be 1F32     		adds	r2, r2, #31
 5761 00c0 E250     		str	r2, [r4, r3]
 5762 00c2 083B     		subs	r3, r3, #8
ARM GAS  /var/folders/3q/0p8b__hx1wx8zj8b56q9glhc0000gn/T//ccWFpT72.s 			page 100


 5763 00c4 0022     		movs	r2, #0
 5764 00c6 E254     		strb	r2, [r4, r3]
 5765 00c8 0320     		movs	r0, #3
 5766 00ca B5E7     		b	.L502
 5767              	.L509:
 5768              		.align	2
 5769              	.L508:
 5770 00cc FFFFFF01 		.word	33554431
 5771 00d0 DFFEFFFF 		.word	-289
 5773              		.section	.text.HAL_UART_Init,"ax",%progbits
 5774              		.align	1
 5775              		.global	HAL_UART_Init
 5776              		.syntax unified
 5777              		.code	16
 5778              		.thumb_func
 5780              	HAL_UART_Init:
 5781              		@ args = 0, pretend = 0, frame = 0
 5782              		@ frame_needed = 0, uses_anonymous_args = 0
 5783 0000 10B5     		push	{r4, lr}
 5784 0002 041E     		subs	r4, r0, #0
 5785 0004 30D0     		beq	.L514
 5786 0006 8823     		movs	r3, #136
 5787 0008 C358     		ldr	r3, [r0, r3]
 5788 000a 002B     		cmp	r3, #0
 5789 000c 22D0     		beq	.L515
 5790              	.L512:
 5791 000e 8823     		movs	r3, #136
 5792 0010 2422     		movs	r2, #36
 5793 0012 E250     		str	r2, [r4, r3]
 5794 0014 2268     		ldr	r2, [r4]
 5795 0016 1368     		ldr	r3, [r2]
 5796 0018 0121     		movs	r1, #1
 5797 001a 8B43     		bics	r3, r1
 5798 001c 1360     		str	r3, [r2]
 5799 001e A36A     		ldr	r3, [r4, #40]
 5800 0020 002B     		cmp	r3, #0
 5801 0022 1DD1     		bne	.L516
 5802              	.L513:
 5803 0024 2000     		movs	r0, r4
 5804 0026 FFF7FEFF 		bl	UART_SetConfig
 5805 002a 0128     		cmp	r0, #1
 5806 002c 11D0     		beq	.L511
 5807 002e 2268     		ldr	r2, [r4]
 5808 0030 5368     		ldr	r3, [r2, #4]
 5809 0032 0E49     		ldr	r1, .L517
 5810 0034 0B40     		ands	r3, r1
 5811 0036 5360     		str	r3, [r2, #4]
 5812 0038 2268     		ldr	r2, [r4]
 5813 003a 9368     		ldr	r3, [r2, #8]
 5814 003c 2A21     		movs	r1, #42
 5815 003e 8B43     		bics	r3, r1
 5816 0040 9360     		str	r3, [r2, #8]
 5817 0042 2268     		ldr	r2, [r4]
 5818 0044 1368     		ldr	r3, [r2]
 5819 0046 2939     		subs	r1, r1, #41
 5820 0048 0B43     		orrs	r3, r1
 5821 004a 1360     		str	r3, [r2]
ARM GAS  /var/folders/3q/0p8b__hx1wx8zj8b56q9glhc0000gn/T//ccWFpT72.s 			page 101


 5822 004c 2000     		movs	r0, r4
 5823 004e FFF7FEFF 		bl	UART_CheckIdleState
 5824              	.L511:
 5825              		@ sp needed
 5826 0052 10BD     		pop	{r4, pc}
 5827              	.L515:
 5828 0054 8433     		adds	r3, r3, #132
 5829 0056 0022     		movs	r2, #0
 5830 0058 C254     		strb	r2, [r0, r3]
 5831 005a FFF7FEFF 		bl	HAL_UART_MspInit
 5832 005e D6E7     		b	.L512
 5833              	.L516:
 5834 0060 2000     		movs	r0, r4
 5835 0062 FFF7FEFF 		bl	UART_AdvFeatureConfig
 5836 0066 DDE7     		b	.L513
 5837              	.L514:
 5838 0068 0120     		movs	r0, #1
 5839 006a F2E7     		b	.L511
 5840              	.L518:
 5841              		.align	2
 5842              	.L517:
 5843 006c FFB7FFFF 		.word	-18433
 5845              		.section	.text.HAL_HalfDuplex_Init,"ax",%progbits
 5846              		.align	1
 5847              		.global	HAL_HalfDuplex_Init
 5848              		.syntax unified
 5849              		.code	16
 5850              		.thumb_func
 5852              	HAL_HalfDuplex_Init:
 5853              		@ args = 0, pretend = 0, frame = 0
 5854              		@ frame_needed = 0, uses_anonymous_args = 0
 5855 0000 10B5     		push	{r4, lr}
 5856 0002 041E     		subs	r4, r0, #0
 5857 0004 35D0     		beq	.L523
 5858 0006 8823     		movs	r3, #136
 5859 0008 C358     		ldr	r3, [r0, r3]
 5860 000a 002B     		cmp	r3, #0
 5861 000c 27D0     		beq	.L524
 5862              	.L521:
 5863 000e 8823     		movs	r3, #136
 5864 0010 2422     		movs	r2, #36
 5865 0012 E250     		str	r2, [r4, r3]
 5866 0014 2268     		ldr	r2, [r4]
 5867 0016 1368     		ldr	r3, [r2]
 5868 0018 0121     		movs	r1, #1
 5869 001a 8B43     		bics	r3, r1
 5870 001c 1360     		str	r3, [r2]
 5871 001e A36A     		ldr	r3, [r4, #40]
 5872 0020 002B     		cmp	r3, #0
 5873 0022 22D1     		bne	.L525
 5874              	.L522:
 5875 0024 2000     		movs	r0, r4
 5876 0026 FFF7FEFF 		bl	UART_SetConfig
 5877 002a 0128     		cmp	r0, #1
 5878 002c 16D0     		beq	.L520
 5879 002e 2268     		ldr	r2, [r4]
 5880 0030 5368     		ldr	r3, [r2, #4]
ARM GAS  /var/folders/3q/0p8b__hx1wx8zj8b56q9glhc0000gn/T//ccWFpT72.s 			page 102


 5881 0032 1149     		ldr	r1, .L526
 5882 0034 0B40     		ands	r3, r1
 5883 0036 5360     		str	r3, [r2, #4]
 5884 0038 2268     		ldr	r2, [r4]
 5885 003a 9368     		ldr	r3, [r2, #8]
 5886 003c 2221     		movs	r1, #34
 5887 003e 8B43     		bics	r3, r1
 5888 0040 9360     		str	r3, [r2, #8]
 5889 0042 2268     		ldr	r2, [r4]
 5890 0044 9368     		ldr	r3, [r2, #8]
 5891 0046 1A39     		subs	r1, r1, #26
 5892 0048 0B43     		orrs	r3, r1
 5893 004a 9360     		str	r3, [r2, #8]
 5894 004c 2268     		ldr	r2, [r4]
 5895 004e 1368     		ldr	r3, [r2]
 5896 0050 0739     		subs	r1, r1, #7
 5897 0052 0B43     		orrs	r3, r1
 5898 0054 1360     		str	r3, [r2]
 5899 0056 2000     		movs	r0, r4
 5900 0058 FFF7FEFF 		bl	UART_CheckIdleState
 5901              	.L520:
 5902              		@ sp needed
 5903 005c 10BD     		pop	{r4, pc}
 5904              	.L524:
 5905 005e 8433     		adds	r3, r3, #132
 5906 0060 0022     		movs	r2, #0
 5907 0062 C254     		strb	r2, [r0, r3]
 5908 0064 FFF7FEFF 		bl	HAL_UART_MspInit
 5909 0068 D1E7     		b	.L521
 5910              	.L525:
 5911 006a 2000     		movs	r0, r4
 5912 006c FFF7FEFF 		bl	UART_AdvFeatureConfig
 5913 0070 D8E7     		b	.L522
 5914              	.L523:
 5915 0072 0120     		movs	r0, #1
 5916 0074 F2E7     		b	.L520
 5917              	.L527:
 5918 0076 C046     		.align	2
 5919              	.L526:
 5920 0078 FFB7FFFF 		.word	-18433
 5922              		.section	.text.HAL_LIN_Init,"ax",%progbits
 5923              		.align	1
 5924              		.global	HAL_LIN_Init
 5925              		.syntax unified
 5926              		.code	16
 5927              		.thumb_func
 5929              	HAL_LIN_Init:
 5930              		@ args = 0, pretend = 0, frame = 0
 5931              		@ frame_needed = 0, uses_anonymous_args = 0
 5932 0000 70B5     		push	{r4, r5, r6, lr}
 5933 0002 0400     		movs	r4, r0
 5934 0004 0D00     		movs	r5, r1
 5935 0006 0028     		cmp	r0, #0
 5936 0008 44D0     		beq	.L532
 5937 000a C269     		ldr	r2, [r0, #28]
 5938 000c 8023     		movs	r3, #128
 5939 000e 1B02     		lsls	r3, r3, #8
ARM GAS  /var/folders/3q/0p8b__hx1wx8zj8b56q9glhc0000gn/T//ccWFpT72.s 			page 103


 5940 0010 9A42     		cmp	r2, r3
 5941 0012 41D0     		beq	.L533
 5942 0014 8368     		ldr	r3, [r0, #8]
 5943 0016 002B     		cmp	r3, #0
 5944 0018 40D1     		bne	.L534
 5945 001a 8833     		adds	r3, r3, #136
 5946 001c C358     		ldr	r3, [r0, r3]
 5947 001e 002B     		cmp	r3, #0
 5948 0020 2ED0     		beq	.L535
 5949              	.L530:
 5950 0022 8823     		movs	r3, #136
 5951 0024 2422     		movs	r2, #36
 5952 0026 E250     		str	r2, [r4, r3]
 5953 0028 2268     		ldr	r2, [r4]
 5954 002a 1368     		ldr	r3, [r2]
 5955 002c 0121     		movs	r1, #1
 5956 002e 8B43     		bics	r3, r1
 5957 0030 1360     		str	r3, [r2]
 5958 0032 A36A     		ldr	r3, [r4, #40]
 5959 0034 002B     		cmp	r3, #0
 5960 0036 29D1     		bne	.L536
 5961              	.L531:
 5962 0038 2000     		movs	r0, r4
 5963 003a FFF7FEFF 		bl	UART_SetConfig
 5964 003e 0128     		cmp	r0, #1
 5965 0040 1DD0     		beq	.L529
 5966 0042 2268     		ldr	r2, [r4]
 5967 0044 5368     		ldr	r3, [r2, #4]
 5968 0046 1649     		ldr	r1, .L537
 5969 0048 0B40     		ands	r3, r1
 5970 004a 5360     		str	r3, [r2, #4]
 5971 004c 2268     		ldr	r2, [r4]
 5972 004e 9368     		ldr	r3, [r2, #8]
 5973 0050 2A21     		movs	r1, #42
 5974 0052 8B43     		bics	r3, r1
 5975 0054 9360     		str	r3, [r2, #8]
 5976 0056 2268     		ldr	r2, [r4]
 5977 0058 5168     		ldr	r1, [r2, #4]
 5978 005a 8023     		movs	r3, #128
 5979 005c DB01     		lsls	r3, r3, #7
 5980 005e 0B43     		orrs	r3, r1
 5981 0060 5360     		str	r3, [r2, #4]
 5982 0062 2268     		ldr	r2, [r4]
 5983 0064 5368     		ldr	r3, [r2, #4]
 5984 0066 2021     		movs	r1, #32
 5985 0068 8B43     		bics	r3, r1
 5986 006a 2B43     		orrs	r3, r5
 5987 006c 5360     		str	r3, [r2, #4]
 5988 006e 2268     		ldr	r2, [r4]
 5989 0070 1368     		ldr	r3, [r2]
 5990 0072 1F39     		subs	r1, r1, #31
 5991 0074 0B43     		orrs	r3, r1
 5992 0076 1360     		str	r3, [r2]
 5993 0078 2000     		movs	r0, r4
 5994 007a FFF7FEFF 		bl	UART_CheckIdleState
 5995              	.L529:
 5996              		@ sp needed
ARM GAS  /var/folders/3q/0p8b__hx1wx8zj8b56q9glhc0000gn/T//ccWFpT72.s 			page 104


 5997 007e 70BD     		pop	{r4, r5, r6, pc}
 5998              	.L535:
 5999 0080 8433     		adds	r3, r3, #132
 6000 0082 0022     		movs	r2, #0
 6001 0084 C254     		strb	r2, [r0, r3]
 6002 0086 FFF7FEFF 		bl	HAL_UART_MspInit
 6003 008a CAE7     		b	.L530
 6004              	.L536:
 6005 008c 2000     		movs	r0, r4
 6006 008e FFF7FEFF 		bl	UART_AdvFeatureConfig
 6007 0092 D1E7     		b	.L531
 6008              	.L532:
 6009 0094 0120     		movs	r0, #1
 6010 0096 F2E7     		b	.L529
 6011              	.L533:
 6012 0098 0120     		movs	r0, #1
 6013 009a F0E7     		b	.L529
 6014              	.L534:
 6015 009c 0120     		movs	r0, #1
 6016 009e EEE7     		b	.L529
 6017              	.L538:
 6018              		.align	2
 6019              	.L537:
 6020 00a0 FFF7FFFF 		.word	-2049
 6022              		.section	.text.HAL_MultiProcessor_Init,"ax",%progbits
 6023              		.align	1
 6024              		.global	HAL_MultiProcessor_Init
 6025              		.syntax unified
 6026              		.code	16
 6027              		.thumb_func
 6029              	HAL_MultiProcessor_Init:
 6030              		@ args = 0, pretend = 0, frame = 0
 6031              		@ frame_needed = 0, uses_anonymous_args = 0
 6032 0000 70B5     		push	{r4, r5, r6, lr}
 6033 0002 0400     		movs	r4, r0
 6034 0004 0D00     		movs	r5, r1
 6035 0006 1600     		movs	r6, r2
 6036 0008 0028     		cmp	r0, #0
 6037 000a 42D0     		beq	.L544
 6038 000c 8823     		movs	r3, #136
 6039 000e C358     		ldr	r3, [r0, r3]
 6040 0010 002B     		cmp	r3, #0
 6041 0012 2CD0     		beq	.L545
 6042              	.L541:
 6043 0014 8823     		movs	r3, #136
 6044 0016 2422     		movs	r2, #36
 6045 0018 E250     		str	r2, [r4, r3]
 6046 001a 2268     		ldr	r2, [r4]
 6047 001c 1368     		ldr	r3, [r2]
 6048 001e 0121     		movs	r1, #1
 6049 0020 8B43     		bics	r3, r1
 6050 0022 1360     		str	r3, [r2]
 6051 0024 A36A     		ldr	r3, [r4, #40]
 6052 0026 002B     		cmp	r3, #0
 6053 0028 27D1     		bne	.L546
 6054              	.L542:
 6055 002a 2000     		movs	r0, r4
ARM GAS  /var/folders/3q/0p8b__hx1wx8zj8b56q9glhc0000gn/T//ccWFpT72.s 			page 105


 6056 002c FFF7FEFF 		bl	UART_SetConfig
 6057 0030 0128     		cmp	r0, #1
 6058 0032 1BD0     		beq	.L540
 6059 0034 2268     		ldr	r2, [r4]
 6060 0036 5368     		ldr	r3, [r2, #4]
 6061 0038 1749     		ldr	r1, .L548
 6062 003a 0B40     		ands	r3, r1
 6063 003c 5360     		str	r3, [r2, #4]
 6064 003e 2268     		ldr	r2, [r4]
 6065 0040 9368     		ldr	r3, [r2, #8]
 6066 0042 2A21     		movs	r1, #42
 6067 0044 8B43     		bics	r3, r1
 6068 0046 9360     		str	r3, [r2, #8]
 6069 0048 8023     		movs	r3, #128
 6070 004a 1B01     		lsls	r3, r3, #4
 6071 004c 9E42     		cmp	r6, r3
 6072 004e 18D0     		beq	.L547
 6073              	.L543:
 6074 0050 2268     		ldr	r2, [r4]
 6075 0052 1368     		ldr	r3, [r2]
 6076 0054 1149     		ldr	r1, .L548+4
 6077 0056 0B40     		ands	r3, r1
 6078 0058 3343     		orrs	r3, r6
 6079 005a 1360     		str	r3, [r2]
 6080 005c 2268     		ldr	r2, [r4]
 6081 005e 1368     		ldr	r3, [r2]
 6082 0060 0121     		movs	r1, #1
 6083 0062 0B43     		orrs	r3, r1
 6084 0064 1360     		str	r3, [r2]
 6085 0066 2000     		movs	r0, r4
 6086 0068 FFF7FEFF 		bl	UART_CheckIdleState
 6087              	.L540:
 6088              		@ sp needed
 6089 006c 70BD     		pop	{r4, r5, r6, pc}
 6090              	.L545:
 6091 006e 8433     		adds	r3, r3, #132
 6092 0070 0022     		movs	r2, #0
 6093 0072 C254     		strb	r2, [r0, r3]
 6094 0074 FFF7FEFF 		bl	HAL_UART_MspInit
 6095 0078 CCE7     		b	.L541
 6096              	.L546:
 6097 007a 2000     		movs	r0, r4
 6098 007c FFF7FEFF 		bl	UART_AdvFeatureConfig
 6099 0080 D3E7     		b	.L542
 6100              	.L547:
 6101 0082 2268     		ldr	r2, [r4]
 6102 0084 5368     		ldr	r3, [r2, #4]
 6103 0086 1B02     		lsls	r3, r3, #8
 6104 0088 1B0A     		lsrs	r3, r3, #8
 6105 008a 2D06     		lsls	r5, r5, #24
 6106 008c 1D43     		orrs	r5, r3
 6107 008e 5560     		str	r5, [r2, #4]
 6108 0090 DEE7     		b	.L543
 6109              	.L544:
 6110 0092 0120     		movs	r0, #1
 6111 0094 EAE7     		b	.L540
 6112              	.L549:
ARM GAS  /var/folders/3q/0p8b__hx1wx8zj8b56q9glhc0000gn/T//ccWFpT72.s 			page 106


 6113 0096 C046     		.align	2
 6114              	.L548:
 6115 0098 FFB7FFFF 		.word	-18433
 6116 009c FFF7FFFF 		.word	-2049
 6118              		.section	.text.HAL_MultiProcessor_EnableMuteMode,"ax",%progbits
 6119              		.align	1
 6120              		.global	HAL_MultiProcessor_EnableMuteMode
 6121              		.syntax unified
 6122              		.code	16
 6123              		.thumb_func
 6125              	HAL_MultiProcessor_EnableMuteMode:
 6126              		@ args = 0, pretend = 0, frame = 0
 6127              		@ frame_needed = 0, uses_anonymous_args = 0
 6128 0000 10B5     		push	{r4, lr}
 6129 0002 8423     		movs	r3, #132
 6130 0004 C35C     		ldrb	r3, [r0, r3]
 6131 0006 012B     		cmp	r3, #1
 6132 0008 16D0     		beq	.L552
 6133 000a 0123     		movs	r3, #1
 6134 000c 8422     		movs	r2, #132
 6135 000e 8354     		strb	r3, [r0, r2]
 6136 0010 0432     		adds	r2, r2, #4
 6137 0012 2421     		movs	r1, #36
 6138 0014 8150     		str	r1, [r0, r2]
 6139              		.syntax divided
 6140              	@ 1208 "Drivers/CMSIS/Include/cmsis_gcc.h" 1
 6141 0016 EFF3108C 		MRS ip, primask
 6142              	@ 0 "" 2
 6143              	@ 1236 "Drivers/CMSIS/Include/cmsis_gcc.h" 1
 6144 001a 83F31088 		MSR primask, r3
 6145              	@ 0 "" 2
 6146              		.thumb
 6147              		.syntax unified
 6148 001e 0168     		ldr	r1, [r0]
 6149 0020 0C68     		ldr	r4, [r1]
 6150 0022 8023     		movs	r3, #128
 6151 0024 9B01     		lsls	r3, r3, #6
 6152 0026 2343     		orrs	r3, r4
 6153 0028 0B60     		str	r3, [r1]
 6154              		.syntax divided
 6155              	@ 1236 "Drivers/CMSIS/Include/cmsis_gcc.h" 1
 6156 002a 8CF31088 		MSR primask, ip
 6157              	@ 0 "" 2
 6158              		.thumb
 6159              		.syntax unified
 6160 002e 2023     		movs	r3, #32
 6161 0030 8350     		str	r3, [r0, r2]
 6162 0032 FFF7FEFF 		bl	UART_CheckIdleState
 6163              	.L551:
 6164              		@ sp needed
 6165 0036 10BD     		pop	{r4, pc}
 6166              	.L552:
 6167 0038 0220     		movs	r0, #2
 6168 003a FCE7     		b	.L551
 6170              		.section	.text.HAL_MultiProcessor_DisableMuteMode,"ax",%progbits
 6171              		.align	1
 6172              		.global	HAL_MultiProcessor_DisableMuteMode
ARM GAS  /var/folders/3q/0p8b__hx1wx8zj8b56q9glhc0000gn/T//ccWFpT72.s 			page 107


 6173              		.syntax unified
 6174              		.code	16
 6175              		.thumb_func
 6177              	HAL_MultiProcessor_DisableMuteMode:
 6178              		@ args = 0, pretend = 0, frame = 0
 6179              		@ frame_needed = 0, uses_anonymous_args = 0
 6180 0000 10B5     		push	{r4, lr}
 6181 0002 8423     		movs	r3, #132
 6182 0004 C35C     		ldrb	r3, [r0, r3]
 6183 0006 012B     		cmp	r3, #1
 6184 0008 15D0     		beq	.L555
 6185 000a 0123     		movs	r3, #1
 6186 000c 8422     		movs	r2, #132
 6187 000e 8354     		strb	r3, [r0, r2]
 6188 0010 0432     		adds	r2, r2, #4
 6189 0012 2421     		movs	r1, #36
 6190 0014 8150     		str	r1, [r0, r2]
 6191              		.syntax divided
 6192              	@ 1208 "Drivers/CMSIS/Include/cmsis_gcc.h" 1
 6193 0016 EFF3108C 		MRS ip, primask
 6194              	@ 0 "" 2
 6195              	@ 1236 "Drivers/CMSIS/Include/cmsis_gcc.h" 1
 6196 001a 83F31088 		MSR primask, r3
 6197              	@ 0 "" 2
 6198              		.thumb
 6199              		.syntax unified
 6200 001e 0168     		ldr	r1, [r0]
 6201 0020 0B68     		ldr	r3, [r1]
 6202 0022 064C     		ldr	r4, .L556
 6203 0024 2340     		ands	r3, r4
 6204 0026 0B60     		str	r3, [r1]
 6205              		.syntax divided
 6206              	@ 1236 "Drivers/CMSIS/Include/cmsis_gcc.h" 1
 6207 0028 8CF31088 		MSR primask, ip
 6208              	@ 0 "" 2
 6209              		.thumb
 6210              		.syntax unified
 6211 002c 2023     		movs	r3, #32
 6212 002e 8350     		str	r3, [r0, r2]
 6213 0030 FFF7FEFF 		bl	UART_CheckIdleState
 6214              	.L554:
 6215              		@ sp needed
 6216 0034 10BD     		pop	{r4, pc}
 6217              	.L555:
 6218 0036 0220     		movs	r0, #2
 6219 0038 FCE7     		b	.L554
 6220              	.L557:
 6221 003a C046     		.align	2
 6222              	.L556:
 6223 003c FFDFFFFF 		.word	-8193
 6225              		.section	.text.UART_Start_Receive_IT,"ax",%progbits
 6226              		.align	1
 6227              		.global	UART_Start_Receive_IT
 6228              		.syntax unified
 6229              		.code	16
 6230              		.thumb_func
 6232              	UART_Start_Receive_IT:
ARM GAS  /var/folders/3q/0p8b__hx1wx8zj8b56q9glhc0000gn/T//ccWFpT72.s 			page 108


 6233              		@ args = 0, pretend = 0, frame = 0
 6234              		@ frame_needed = 0, uses_anonymous_args = 0
 6235 0000 10B5     		push	{r4, lr}
 6236 0002 8165     		str	r1, [r0, #88]
 6237 0004 5C23     		movs	r3, #92
 6238 0006 C252     		strh	r2, [r0, r3]
 6239 0008 0233     		adds	r3, r3, #2
 6240 000a C252     		strh	r2, [r0, r3]
 6241 000c 0023     		movs	r3, #0
 6242 000e 4367     		str	r3, [r0, #116]
 6243 0010 8368     		ldr	r3, [r0, #8]
 6244 0012 8021     		movs	r1, #128
 6245 0014 4901     		lsls	r1, r1, #5
 6246 0016 8B42     		cmp	r3, r1
 6247 0018 08D0     		beq	.L574
 6248 001a 002B     		cmp	r3, #0
 6249 001c 15D1     		bne	.L562
 6250 001e 0369     		ldr	r3, [r0, #16]
 6251 0020 002B     		cmp	r3, #0
 6252 0022 0ED1     		bne	.L563
 6253 0024 6033     		adds	r3, r3, #96
 6254 0026 FF21     		movs	r1, #255
 6255 0028 C152     		strh	r1, [r0, r3]
 6256 002a 15E0     		b	.L561
 6257              	.L574:
 6258 002c 0369     		ldr	r3, [r0, #16]
 6259 002e 002B     		cmp	r3, #0
 6260 0030 03D1     		bne	.L560
 6261 0032 6033     		adds	r3, r3, #96
 6262 0034 4649     		ldr	r1, .L579
 6263 0036 C152     		strh	r1, [r0, r3]
 6264 0038 0EE0     		b	.L561
 6265              	.L560:
 6266 003a 6023     		movs	r3, #96
 6267 003c FF21     		movs	r1, #255
 6268 003e C152     		strh	r1, [r0, r3]
 6269 0040 0AE0     		b	.L561
 6270              	.L563:
 6271 0042 6023     		movs	r3, #96
 6272 0044 7F21     		movs	r1, #127
 6273 0046 C152     		strh	r1, [r0, r3]
 6274 0048 06E0     		b	.L561
 6275              	.L562:
 6276 004a 8021     		movs	r1, #128
 6277 004c 4905     		lsls	r1, r1, #21
 6278 004e 8B42     		cmp	r3, r1
 6279 0050 31D0     		beq	.L575
 6280 0052 6023     		movs	r3, #96
 6281 0054 0021     		movs	r1, #0
 6282 0056 C152     		strh	r1, [r0, r3]
 6283              	.L561:
 6284 0058 9023     		movs	r3, #144
 6285 005a 0021     		movs	r1, #0
 6286 005c C150     		str	r1, [r0, r3]
 6287 005e 043B     		subs	r3, r3, #4
 6288 0060 2231     		adds	r1, r1, #34
 6289 0062 C150     		str	r1, [r0, r3]
ARM GAS  /var/folders/3q/0p8b__hx1wx8zj8b56q9glhc0000gn/T//ccWFpT72.s 			page 109


 6290              		.syntax divided
 6291              	@ 1208 "Drivers/CMSIS/Include/cmsis_gcc.h" 1
 6292 0064 EFF3108C 		MRS ip, primask
 6293              	@ 0 "" 2
 6294              		.thumb
 6295              		.syntax unified
 6296 0068 0124     		movs	r4, #1
 6297              		.syntax divided
 6298              	@ 1236 "Drivers/CMSIS/Include/cmsis_gcc.h" 1
 6299 006a 84F31088 		MSR primask, r4
 6300              	@ 0 "" 2
 6301              		.thumb
 6302              		.syntax unified
 6303 006e 0168     		ldr	r1, [r0]
 6304 0070 8B68     		ldr	r3, [r1, #8]
 6305 0072 2343     		orrs	r3, r4
 6306 0074 8B60     		str	r3, [r1, #8]
 6307              		.syntax divided
 6308              	@ 1236 "Drivers/CMSIS/Include/cmsis_gcc.h" 1
 6309 0076 8CF31088 		MSR primask, ip
 6310              	@ 0 "" 2
 6311              		.thumb
 6312              		.syntax unified
 6313 007a 416E     		ldr	r1, [r0, #100]
 6314 007c 8023     		movs	r3, #128
 6315 007e 9B05     		lsls	r3, r3, #22
 6316 0080 9942     		cmp	r1, r3
 6317 0082 23D0     		beq	.L576
 6318              	.L566:
 6319 0084 8268     		ldr	r2, [r0, #8]
 6320 0086 8023     		movs	r3, #128
 6321 0088 5B01     		lsls	r3, r3, #5
 6322 008a 9A42     		cmp	r2, r3
 6323 008c 4CD0     		beq	.L577
 6324              	.L571:
 6325 008e 314B     		ldr	r3, .L579+4
 6326 0090 4367     		str	r3, [r0, #116]
 6327              	.L572:
 6328 0092 0369     		ldr	r3, [r0, #16]
 6329 0094 002B     		cmp	r3, #0
 6330 0096 4DD0     		beq	.L573
 6331              		.syntax divided
 6332              	@ 1208 "Drivers/CMSIS/Include/cmsis_gcc.h" 1
 6333 0098 EFF31081 		MRS r1, primask
 6334              	@ 0 "" 2
 6335              		.thumb
 6336              		.syntax unified
 6337 009c 0123     		movs	r3, #1
 6338              		.syntax divided
 6339              	@ 1236 "Drivers/CMSIS/Include/cmsis_gcc.h" 1
 6340 009e 83F31088 		MSR primask, r3
 6341              	@ 0 "" 2
 6342              		.thumb
 6343              		.syntax unified
 6344 00a2 0268     		ldr	r2, [r0]
 6345 00a4 1068     		ldr	r0, [r2]
 6346 00a6 2033     		adds	r3, r3, #32
ARM GAS  /var/folders/3q/0p8b__hx1wx8zj8b56q9glhc0000gn/T//ccWFpT72.s 			page 110


 6347 00a8 FF33     		adds	r3, r3, #255
 6348 00aa 0343     		orrs	r3, r0
 6349 00ac 1360     		str	r3, [r2]
 6350              		.syntax divided
 6351              	@ 1236 "Drivers/CMSIS/Include/cmsis_gcc.h" 1
 6352 00ae 81F31088 		MSR primask, r1
 6353              	@ 0 "" 2
 6354              		.thumb
 6355              		.syntax unified
 6356              	.L570:
 6357 00b2 0020     		movs	r0, #0
 6358              		@ sp needed
 6359 00b4 10BD     		pop	{r4, pc}
 6360              	.L575:
 6361 00b6 0369     		ldr	r3, [r0, #16]
 6362 00b8 002B     		cmp	r3, #0
 6363 00ba 03D1     		bne	.L565
 6364 00bc 6033     		adds	r3, r3, #96
 6365 00be 7F21     		movs	r1, #127
 6366 00c0 C152     		strh	r1, [r0, r3]
 6367 00c2 C9E7     		b	.L561
 6368              	.L565:
 6369 00c4 6023     		movs	r3, #96
 6370 00c6 3F21     		movs	r1, #63
 6371 00c8 C152     		strh	r1, [r0, r3]
 6372 00ca C5E7     		b	.L561
 6373              	.L576:
 6374 00cc 6823     		movs	r3, #104
 6375 00ce C35A     		ldrh	r3, [r0, r3]
 6376 00d0 9342     		cmp	r3, r2
 6377 00d2 D7D8     		bhi	.L566
 6378 00d4 8268     		ldr	r2, [r0, #8]
 6379 00d6 8023     		movs	r3, #128
 6380 00d8 5B01     		lsls	r3, r3, #5
 6381 00da 9A42     		cmp	r2, r3
 6382 00dc 1ED0     		beq	.L578
 6383              	.L567:
 6384 00de 1E4B     		ldr	r3, .L579+8
 6385 00e0 4367     		str	r3, [r0, #116]
 6386              	.L568:
 6387 00e2 0369     		ldr	r3, [r0, #16]
 6388 00e4 002B     		cmp	r3, #0
 6389 00e6 0BD0     		beq	.L569
 6390              		.syntax divided
 6391              	@ 1208 "Drivers/CMSIS/Include/cmsis_gcc.h" 1
 6392 00e8 EFF31081 		MRS r1, primask
 6393              	@ 0 "" 2
 6394              		.thumb
 6395              		.syntax unified
 6396 00ec 0123     		movs	r3, #1
 6397              		.syntax divided
 6398              	@ 1236 "Drivers/CMSIS/Include/cmsis_gcc.h" 1
 6399 00ee 83F31088 		MSR primask, r3
 6400              	@ 0 "" 2
 6401              		.thumb
 6402              		.syntax unified
 6403 00f2 0268     		ldr	r2, [r0]
ARM GAS  /var/folders/3q/0p8b__hx1wx8zj8b56q9glhc0000gn/T//ccWFpT72.s 			page 111


 6404 00f4 1468     		ldr	r4, [r2]
 6405 00f6 FF33     		adds	r3, r3, #255
 6406 00f8 2343     		orrs	r3, r4
 6407 00fa 1360     		str	r3, [r2]
 6408              		.syntax divided
 6409              	@ 1236 "Drivers/CMSIS/Include/cmsis_gcc.h" 1
 6410 00fc 81F31088 		MSR primask, r1
 6411              	@ 0 "" 2
 6412              		.thumb
 6413              		.syntax unified
 6414              	.L569:
 6415              		.syntax divided
 6416              	@ 1208 "Drivers/CMSIS/Include/cmsis_gcc.h" 1
 6417 0100 EFF31081 		MRS r1, primask
 6418              	@ 0 "" 2
 6419              		.thumb
 6420              		.syntax unified
 6421 0104 0123     		movs	r3, #1
 6422              		.syntax divided
 6423              	@ 1236 "Drivers/CMSIS/Include/cmsis_gcc.h" 1
 6424 0106 83F31088 		MSR primask, r3
 6425              	@ 0 "" 2
 6426              		.thumb
 6427              		.syntax unified
 6428 010a 0268     		ldr	r2, [r0]
 6429 010c 9068     		ldr	r0, [r2, #8]
 6430 010e 8023     		movs	r3, #128
 6431 0110 5B05     		lsls	r3, r3, #21
 6432 0112 0343     		orrs	r3, r0
 6433 0114 9360     		str	r3, [r2, #8]
 6434              		.syntax divided
 6435              	@ 1236 "Drivers/CMSIS/Include/cmsis_gcc.h" 1
 6436 0116 81F31088 		MSR primask, r1
 6437              	@ 0 "" 2
 6438              		.thumb
 6439              		.syntax unified
 6440 011a CAE7     		b	.L570
 6441              	.L578:
 6442 011c 0369     		ldr	r3, [r0, #16]
 6443 011e 002B     		cmp	r3, #0
 6444 0120 DDD1     		bne	.L567
 6445 0122 0E4B     		ldr	r3, .L579+12
 6446 0124 4367     		str	r3, [r0, #116]
 6447 0126 DCE7     		b	.L568
 6448              	.L577:
 6449 0128 0369     		ldr	r3, [r0, #16]
 6450 012a 002B     		cmp	r3, #0
 6451 012c AFD1     		bne	.L571
 6452 012e 0C4B     		ldr	r3, .L579+16
 6453 0130 4367     		str	r3, [r0, #116]
 6454 0132 AEE7     		b	.L572
 6455              	.L573:
 6456              		.syntax divided
 6457              	@ 1208 "Drivers/CMSIS/Include/cmsis_gcc.h" 1
 6458 0134 EFF31081 		MRS r1, primask
 6459              	@ 0 "" 2
 6460              		.thumb
ARM GAS  /var/folders/3q/0p8b__hx1wx8zj8b56q9glhc0000gn/T//ccWFpT72.s 			page 112


 6461              		.syntax unified
 6462 0138 0123     		movs	r3, #1
 6463              		.syntax divided
 6464              	@ 1236 "Drivers/CMSIS/Include/cmsis_gcc.h" 1
 6465 013a 83F31088 		MSR primask, r3
 6466              	@ 0 "" 2
 6467              		.thumb
 6468              		.syntax unified
 6469 013e 0268     		ldr	r2, [r0]
 6470 0140 1368     		ldr	r3, [r2]
 6471 0142 2020     		movs	r0, #32
 6472 0144 0343     		orrs	r3, r0
 6473 0146 1360     		str	r3, [r2]
 6474              		.syntax divided
 6475              	@ 1236 "Drivers/CMSIS/Include/cmsis_gcc.h" 1
 6476 0148 81F31088 		MSR primask, r1
 6477              	@ 0 "" 2
 6478              		.thumb
 6479              		.syntax unified
 6480 014c B1E7     		b	.L570
 6481              	.L580:
 6482 014e C046     		.align	2
 6483              	.L579:
 6484 0150 FF010000 		.word	511
 6485 0154 00000000 		.word	UART_RxISR_8BIT
 6486 0158 00000000 		.word	UART_RxISR_8BIT_FIFOEN
 6487 015c 00000000 		.word	UART_RxISR_16BIT_FIFOEN
 6488 0160 00000000 		.word	UART_RxISR_16BIT
 6490              		.section	.text.HAL_UART_Receive_IT,"ax",%progbits
 6491              		.align	1
 6492              		.global	HAL_UART_Receive_IT
 6493              		.syntax unified
 6494              		.code	16
 6495              		.thumb_func
 6497              	HAL_UART_Receive_IT:
 6498              		@ args = 0, pretend = 0, frame = 0
 6499              		@ frame_needed = 0, uses_anonymous_args = 0
 6500 0000 70B5     		push	{r4, r5, r6, lr}
 6501 0002 8C23     		movs	r3, #140
 6502 0004 C358     		ldr	r3, [r0, r3]
 6503 0006 202B     		cmp	r3, #32
 6504 0008 23D1     		bne	.L585
 6505 000a 0029     		cmp	r1, #0
 6506 000c 23D0     		beq	.L586
 6507 000e 002A     		cmp	r2, #0
 6508 0010 23D0     		beq	.L587
 6509 0012 8468     		ldr	r4, [r0, #8]
 6510 0014 8023     		movs	r3, #128
 6511 0016 5B01     		lsls	r3, r3, #5
 6512 0018 9C42     		cmp	r4, r3
 6513 001a 04D1     		bne	.L583
 6514 001c 0369     		ldr	r3, [r0, #16]
 6515 001e 002B     		cmp	r3, #0
 6516 0020 01D1     		bne	.L583
 6517 0022 CB07     		lsls	r3, r1, #31
 6518 0024 1BD4     		bmi	.L588
 6519              	.L583:
ARM GAS  /var/folders/3q/0p8b__hx1wx8zj8b56q9glhc0000gn/T//ccWFpT72.s 			page 113


 6520 0026 0023     		movs	r3, #0
 6521 0028 C366     		str	r3, [r0, #108]
 6522 002a 0368     		ldr	r3, [r0]
 6523 002c 5B68     		ldr	r3, [r3, #4]
 6524 002e 1B02     		lsls	r3, r3, #8
 6525 0030 0CD5     		bpl	.L584
 6526              		.syntax divided
 6527              	@ 1208 "Drivers/CMSIS/Include/cmsis_gcc.h" 1
 6528 0032 EFF3108C 		MRS ip, primask
 6529              	@ 0 "" 2
 6530              		.thumb
 6531              		.syntax unified
 6532 0036 0123     		movs	r3, #1
 6533              		.syntax divided
 6534              	@ 1236 "Drivers/CMSIS/Include/cmsis_gcc.h" 1
 6535 0038 83F31088 		MSR primask, r3
 6536              	@ 0 "" 2
 6537              		.thumb
 6538              		.syntax unified
 6539 003c 0468     		ldr	r4, [r0]
 6540 003e 2568     		ldr	r5, [r4]
 6541 0040 8023     		movs	r3, #128
 6542 0042 DB04     		lsls	r3, r3, #19
 6543 0044 2B43     		orrs	r3, r5
 6544 0046 2360     		str	r3, [r4]
 6545              		.syntax divided
 6546              	@ 1236 "Drivers/CMSIS/Include/cmsis_gcc.h" 1
 6547 0048 8CF31088 		MSR primask, ip
 6548              	@ 0 "" 2
 6549              		.thumb
 6550              		.syntax unified
 6551              	.L584:
 6552 004c FFF7FEFF 		bl	UART_Start_Receive_IT
 6553 0050 00E0     		b	.L582
 6554              	.L585:
 6555 0052 0220     		movs	r0, #2
 6556              	.L582:
 6557              		@ sp needed
 6558 0054 70BD     		pop	{r4, r5, r6, pc}
 6559              	.L586:
 6560 0056 0120     		movs	r0, #1
 6561 0058 FCE7     		b	.L582
 6562              	.L587:
 6563 005a 0120     		movs	r0, #1
 6564 005c FAE7     		b	.L582
 6565              	.L588:
 6566 005e 0120     		movs	r0, #1
 6567 0060 F8E7     		b	.L582
 6569              		.section	.text.UART_Start_Receive_DMA,"ax",%progbits
 6570              		.align	1
 6571              		.global	UART_Start_Receive_DMA
 6572              		.syntax unified
 6573              		.code	16
 6574              		.thumb_func
 6576              	UART_Start_Receive_DMA:
 6577              		@ args = 0, pretend = 0, frame = 0
 6578              		@ frame_needed = 0, uses_anonymous_args = 0
ARM GAS  /var/folders/3q/0p8b__hx1wx8zj8b56q9glhc0000gn/T//ccWFpT72.s 			page 114


 6579 0000 10B5     		push	{r4, lr}
 6580 0002 0400     		movs	r4, r0
 6581 0004 1300     		movs	r3, r2
 6582 0006 8165     		str	r1, [r0, #88]
 6583 0008 5C22     		movs	r2, #92
 6584 000a 8352     		strh	r3, [r0, r2]
 6585 000c 3432     		adds	r2, r2, #52
 6586 000e 0021     		movs	r1, #0
 6587 0010 8150     		str	r1, [r0, r2]
 6588 0012 043A     		subs	r2, r2, #4
 6589 0014 2231     		adds	r1, r1, #34
 6590 0016 8150     		str	r1, [r0, r2]
 6591 0018 0C3A     		subs	r2, r2, #12
