ARM GAS  /var/folders/3q/0p8b__hx1wx8zj8b56q9glhc0000gn/T//cctJZ8sK.s 			page 1


   1              		.cpu cortex-m0plus
   2              		.arch armv6s-m
   3              		.fpu softvfp
   4              		.eabi_attribute 20, 1
   5              		.eabi_attribute 21, 1
   6              		.eabi_attribute 23, 3
   7              		.eabi_attribute 24, 1
   8              		.eabi_attribute 25, 1
   9              		.eabi_attribute 26, 1
  10              		.eabi_attribute 30, 1
  11              		.eabi_attribute 34, 0
  12              		.eabi_attribute 18, 4
  13              		.file	"stm32c0xx_hal_pwr_ex.c"
  14              		.text
  15              		.section	.text.HAL_PWREx_EnableInternalWakeUpLine,"ax",%progbits
  16              		.align	1
  17              		.global	HAL_PWREx_EnableInternalWakeUpLine
  18              		.syntax unified
  19              		.code	16
  20              		.thumb_func
  22              	HAL_PWREx_EnableInternalWakeUpLine:
  23              		@ args = 0, pretend = 0, frame = 0
  24              		@ frame_needed = 0, uses_anonymous_args = 0
  25              		@ link register save eliminated.
  26 0000 034A     		ldr	r2, .L2
  27 0002 9168     		ldr	r1, [r2, #8]
  28 0004 8023     		movs	r3, #128
  29 0006 1B02     		lsls	r3, r3, #8
  30 0008 0B43     		orrs	r3, r1
  31 000a 9360     		str	r3, [r2, #8]
  32              		@ sp needed
  33 000c 7047     		bx	lr
  34              	.L3:
  35 000e C046     		.align	2
  36              	.L2:
  37 0010 00700040 		.word	1073770496
  39              		.section	.text.HAL_PWREx_DisableInternalWakeUpLine,"ax",%progbits
  40              		.align	1
  41              		.global	HAL_PWREx_DisableInternalWakeUpLine
  42              		.syntax unified
  43              		.code	16
  44              		.thumb_func
  46              	HAL_PWREx_DisableInternalWakeUpLine:
  47              		@ args = 0, pretend = 0, frame = 0
  48              		@ frame_needed = 0, uses_anonymous_args = 0
  49              		@ link register save eliminated.
  50 0000 024A     		ldr	r2, .L5
  51 0002 9368     		ldr	r3, [r2, #8]
  52 0004 0249     		ldr	r1, .L5+4
  53 0006 0B40     		ands	r3, r1
  54 0008 9360     		str	r3, [r2, #8]
  55              		@ sp needed
  56 000a 7047     		bx	lr
  57              	.L6:
  58              		.align	2
  59              	.L5:
  60 000c 00700040 		.word	1073770496
ARM GAS  /var/folders/3q/0p8b__hx1wx8zj8b56q9glhc0000gn/T//cctJZ8sK.s 			page 2


  61 0010 FF7FFFFF 		.word	-32769
  63              		.section	.text.HAL_PWREx_EnableGPIOPullUp,"ax",%progbits
  64              		.align	1
  65              		.global	HAL_PWREx_EnableGPIOPullUp
  66              		.syntax unified
  67              		.code	16
  68              		.thumb_func
  70              	HAL_PWREx_EnableGPIOPullUp:
  71              		@ args = 0, pretend = 0, frame = 0
  72              		@ frame_needed = 0, uses_anonymous_args = 0
  73              		@ link register save eliminated.
  74 0000 0528     		cmp	r0, #5
  75 0002 30D8     		bhi	.L15
  76 0004 8000     		lsls	r0, r0, #2
  77 0006 194B     		ldr	r3, .L16
  78 0008 1B58     		ldr	r3, [r3, r0]
  79 000a 9F46     		mov	pc, r3
  80              		.section	.rodata.HAL_PWREx_EnableGPIOPullUp,"a",%progbits
  81              		.align	2
  82              	.L10:
  83 0000 0C000000 		.word	.L14
  84 0004 1E000000 		.word	.L13
  85 0008 30000000 		.word	.L12
  86 000c 42000000 		.word	.L11
  87 0010 66000000 		.word	.L15
  88 0014 54000000 		.word	.L9
  89              		.section	.text.HAL_PWREx_EnableGPIOPullUp
  90              	.L14:
  91 000c 184B     		ldr	r3, .L16+4
  92 000e 1A6A     		ldr	r2, [r3, #32]
  93 0010 0A43     		orrs	r2, r1
  94 0012 1A62     		str	r2, [r3, #32]
  95 0014 5A6A     		ldr	r2, [r3, #36]
  96 0016 8A43     		bics	r2, r1
  97 0018 5A62     		str	r2, [r3, #36]
  98 001a 0020     		movs	r0, #0
  99              	.L8:
 100              		@ sp needed
 101 001c 7047     		bx	lr
 102              	.L13:
 103 001e 144B     		ldr	r3, .L16+4
 104 0020 9A6A     		ldr	r2, [r3, #40]
 105 0022 0A43     		orrs	r2, r1
 106 0024 9A62     		str	r2, [r3, #40]
 107 0026 DA6A     		ldr	r2, [r3, #44]
 108 0028 8A43     		bics	r2, r1
 109 002a DA62     		str	r2, [r3, #44]
 110 002c 0020     		movs	r0, #0
 111 002e F5E7     		b	.L8
 112              	.L12:
 113 0030 0F4B     		ldr	r3, .L16+4
 114 0032 1A6B     		ldr	r2, [r3, #48]
 115 0034 0A43     		orrs	r2, r1
 116 0036 1A63     		str	r2, [r3, #48]
 117 0038 5A6B     		ldr	r2, [r3, #52]
 118 003a 8A43     		bics	r2, r1
 119 003c 5A63     		str	r2, [r3, #52]
ARM GAS  /var/folders/3q/0p8b__hx1wx8zj8b56q9glhc0000gn/T//cctJZ8sK.s 			page 3


 120 003e 0020     		movs	r0, #0
 121 0040 ECE7     		b	.L8
 122              	.L11:
 123 0042 0B4B     		ldr	r3, .L16+4
 124 0044 9A6B     		ldr	r2, [r3, #56]
 125 0046 0A43     		orrs	r2, r1
 126 0048 9A63     		str	r2, [r3, #56]
 127 004a DA6B     		ldr	r2, [r3, #60]
 128 004c 8A43     		bics	r2, r1
 129 004e DA63     		str	r2, [r3, #60]
 130 0050 0020     		movs	r0, #0
 131 0052 E3E7     		b	.L8
 132              	.L9:
 133 0054 064B     		ldr	r3, .L16+4
 134 0056 9A6C     		ldr	r2, [r3, #72]
 135 0058 0A43     		orrs	r2, r1
 136 005a 9A64     		str	r2, [r3, #72]
 137 005c DA6C     		ldr	r2, [r3, #76]
 138 005e 8A43     		bics	r2, r1
 139 0060 DA64     		str	r2, [r3, #76]
 140 0062 0020     		movs	r0, #0
 141 0064 DAE7     		b	.L8
 142              	.L15:
 143 0066 0120     		movs	r0, #1
 144 0068 D8E7     		b	.L8
 145              	.L17:
 146 006a C046     		.align	2
 147              	.L16:
 148 006c 00000000 		.word	.L10
 149 0070 00700040 		.word	1073770496
 151              		.section	.text.HAL_PWREx_DisableGPIOPullUp,"ax",%progbits
 152              		.align	1
 153              		.global	HAL_PWREx_DisableGPIOPullUp
 154              		.syntax unified
 155              		.code	16
 156              		.thumb_func
 158              	HAL_PWREx_DisableGPIOPullUp:
 159              		@ args = 0, pretend = 0, frame = 0
 160              		@ frame_needed = 0, uses_anonymous_args = 0
 161              		@ link register save eliminated.
 162 0000 0528     		cmp	r0, #5
 163 0002 21D8     		bhi	.L26
 164 0004 8000     		lsls	r0, r0, #2
 165 0006 114B     		ldr	r3, .L27
 166 0008 1B58     		ldr	r3, [r3, r0]
 167 000a 9F46     		mov	pc, r3
 168              		.section	.rodata.HAL_PWREx_DisableGPIOPullUp,"a",%progbits
 169              		.align	2
 170              	.L21:
 171 0000 0C000000 		.word	.L25
 172 0004 18000000 		.word	.L24
 173 0008 24000000 		.word	.L23
 174 000c 30000000 		.word	.L22
 175 0010 48000000 		.word	.L26
 176 0014 3C000000 		.word	.L20
 177              		.section	.text.HAL_PWREx_DisableGPIOPullUp
 178              	.L25:
ARM GAS  /var/folders/3q/0p8b__hx1wx8zj8b56q9glhc0000gn/T//cctJZ8sK.s 			page 4


 179 000c 104A     		ldr	r2, .L27+4
 180 000e 136A     		ldr	r3, [r2, #32]
 181 0010 8B43     		bics	r3, r1
 182 0012 1362     		str	r3, [r2, #32]
 183 0014 0020     		movs	r0, #0
 184              	.L19:
 185              		@ sp needed
 186 0016 7047     		bx	lr
 187              	.L24:
 188 0018 0D4A     		ldr	r2, .L27+4
 189 001a 936A     		ldr	r3, [r2, #40]
 190 001c 8B43     		bics	r3, r1
 191 001e 9362     		str	r3, [r2, #40]
 192 0020 0020     		movs	r0, #0
 193 0022 F8E7     		b	.L19
 194              	.L23:
 195 0024 0A4A     		ldr	r2, .L27+4
 196 0026 136B     		ldr	r3, [r2, #48]
 197 0028 8B43     		bics	r3, r1
 198 002a 1363     		str	r3, [r2, #48]
 199 002c 0020     		movs	r0, #0
 200 002e F2E7     		b	.L19
 201              	.L22:
 202 0030 074A     		ldr	r2, .L27+4
 203 0032 936B     		ldr	r3, [r2, #56]
 204 0034 8B43     		bics	r3, r1
 205 0036 9363     		str	r3, [r2, #56]
 206 0038 0020     		movs	r0, #0
 207 003a ECE7     		b	.L19
 208              	.L20:
 209 003c 044A     		ldr	r2, .L27+4
 210 003e 936C     		ldr	r3, [r2, #72]
 211 0040 8B43     		bics	r3, r1
 212 0042 9364     		str	r3, [r2, #72]
 213 0044 0020     		movs	r0, #0
 214 0046 E6E7     		b	.L19
 215              	.L26:
 216 0048 0120     		movs	r0, #1
 217 004a E4E7     		b	.L19
 218              	.L28:
 219              		.align	2
 220              	.L27:
 221 004c 00000000 		.word	.L21
 222 0050 00700040 		.word	1073770496
 224              		.section	.text.HAL_PWREx_EnableGPIOPullDown,"ax",%progbits
 225              		.align	1
 226              		.global	HAL_PWREx_EnableGPIOPullDown
 227              		.syntax unified
 228              		.code	16
 229              		.thumb_func
 231              	HAL_PWREx_EnableGPIOPullDown:
 232              		@ args = 0, pretend = 0, frame = 0
 233              		@ frame_needed = 0, uses_anonymous_args = 0
 234              		@ link register save eliminated.
 235 0000 0528     		cmp	r0, #5
 236 0002 30D8     		bhi	.L37
 237 0004 8000     		lsls	r0, r0, #2
ARM GAS  /var/folders/3q/0p8b__hx1wx8zj8b56q9glhc0000gn/T//cctJZ8sK.s 			page 5


 238 0006 194B     		ldr	r3, .L38
 239 0008 1B58     		ldr	r3, [r3, r0]
 240 000a 9F46     		mov	pc, r3
 241              		.section	.rodata.HAL_PWREx_EnableGPIOPullDown,"a",%progbits
 242              		.align	2
 243              	.L32:
 244 0000 0C000000 		.word	.L36
 245 0004 1E000000 		.word	.L35
 246 0008 30000000 		.word	.L34
 247 000c 42000000 		.word	.L33
 248 0010 66000000 		.word	.L37
 249 0014 54000000 		.word	.L31
 250              		.section	.text.HAL_PWREx_EnableGPIOPullDown
 251              	.L36:
 252 000c 184B     		ldr	r3, .L38+4
 253 000e 5A6A     		ldr	r2, [r3, #36]
 254 0010 0A43     		orrs	r2, r1
 255 0012 5A62     		str	r2, [r3, #36]
 256 0014 1A6A     		ldr	r2, [r3, #32]
 257 0016 8A43     		bics	r2, r1
 258 0018 1A62     		str	r2, [r3, #32]
 259 001a 0020     		movs	r0, #0
 260              	.L30:
 261              		@ sp needed
 262 001c 7047     		bx	lr
 263              	.L35:
 264 001e 144B     		ldr	r3, .L38+4
 265 0020 DA6A     		ldr	r2, [r3, #44]
 266 0022 0A43     		orrs	r2, r1
 267 0024 DA62     		str	r2, [r3, #44]
 268 0026 9A6A     		ldr	r2, [r3, #40]
 269 0028 8A43     		bics	r2, r1
 270 002a 9A62     		str	r2, [r3, #40]
 271 002c 0020     		movs	r0, #0
 272 002e F5E7     		b	.L30
 273              	.L34:
 274 0030 0F4B     		ldr	r3, .L38+4
 275 0032 5A6B     		ldr	r2, [r3, #52]
 276 0034 0A43     		orrs	r2, r1
 277 0036 5A63     		str	r2, [r3, #52]
 278 0038 1A6B     		ldr	r2, [r3, #48]
 279 003a 8A43     		bics	r2, r1
 280 003c 1A63     		str	r2, [r3, #48]
 281 003e 0020     		movs	r0, #0
 282 0040 ECE7     		b	.L30
 283              	.L33:
 284 0042 0B4B     		ldr	r3, .L38+4
 285 0044 DA6B     		ldr	r2, [r3, #60]
 286 0046 0A43     		orrs	r2, r1
 287 0048 DA63     		str	r2, [r3, #60]
 288 004a 9A6B     		ldr	r2, [r3, #56]
 289 004c 8A43     		bics	r2, r1
 290 004e 9A63     		str	r2, [r3, #56]
 291 0050 0020     		movs	r0, #0
 292 0052 E3E7     		b	.L30
 293              	.L31:
 294 0054 064B     		ldr	r3, .L38+4
ARM GAS  /var/folders/3q/0p8b__hx1wx8zj8b56q9glhc0000gn/T//cctJZ8sK.s 			page 6


 295 0056 DA6C     		ldr	r2, [r3, #76]
 296 0058 0A43     		orrs	r2, r1
 297 005a DA64     		str	r2, [r3, #76]
 298 005c 9A6C     		ldr	r2, [r3, #72]
 299 005e 8A43     		bics	r2, r1
 300 0060 9A64     		str	r2, [r3, #72]
 301 0062 0020     		movs	r0, #0
 302 0064 DAE7     		b	.L30
 303              	.L37:
 304 0066 0120     		movs	r0, #1
 305 0068 D8E7     		b	.L30
 306              	.L39:
 307 006a C046     		.align	2
 308              	.L38:
 309 006c 00000000 		.word	.L32
 310 0070 00700040 		.word	1073770496
 312              		.section	.text.HAL_PWREx_DisableGPIOPullDown,"ax",%progbits
 313              		.align	1
 314              		.global	HAL_PWREx_DisableGPIOPullDown
 315              		.syntax unified
 316              		.code	16
 317              		.thumb_func
 319              	HAL_PWREx_DisableGPIOPullDown:
 320              		@ args = 0, pretend = 0, frame = 0
 321              		@ frame_needed = 0, uses_anonymous_args = 0
 322              		@ link register save eliminated.
 323 0000 0528     		cmp	r0, #5
 324 0002 21D8     		bhi	.L48
 325 0004 8000     		lsls	r0, r0, #2
 326 0006 114B     		ldr	r3, .L49
 327 0008 1B58     		ldr	r3, [r3, r0]
 328 000a 9F46     		mov	pc, r3
 329              		.section	.rodata.HAL_PWREx_DisableGPIOPullDown,"a",%progbits
 330              		.align	2
 331              	.L43:
 332 0000 0C000000 		.word	.L47
 333 0004 18000000 		.word	.L46
 334 0008 24000000 		.word	.L45
 335 000c 30000000 		.word	.L44
 336 0010 48000000 		.word	.L48
 337 0014 3C000000 		.word	.L42
 338              		.section	.text.HAL_PWREx_DisableGPIOPullDown
 339              	.L47:
 340 000c 104A     		ldr	r2, .L49+4
 341 000e 536A     		ldr	r3, [r2, #36]
 342 0010 8B43     		bics	r3, r1
 343 0012 5362     		str	r3, [r2, #36]
 344 0014 0020     		movs	r0, #0
 345              	.L41:
 346              		@ sp needed
 347 0016 7047     		bx	lr
 348              	.L46:
 349 0018 0D4A     		ldr	r2, .L49+4
 350 001a D36A     		ldr	r3, [r2, #44]
 351 001c 8B43     		bics	r3, r1
 352 001e D362     		str	r3, [r2, #44]
 353 0020 0020     		movs	r0, #0
ARM GAS  /var/folders/3q/0p8b__hx1wx8zj8b56q9glhc0000gn/T//cctJZ8sK.s 			page 7


 354 0022 F8E7     		b	.L41
 355              	.L45:
 356 0024 0A4A     		ldr	r2, .L49+4
 357 0026 536B     		ldr	r3, [r2, #52]
 358 0028 8B43     		bics	r3, r1
 359 002a 5363     		str	r3, [r2, #52]
 360 002c 0020     		movs	r0, #0
 361 002e F2E7     		b	.L41
 362              	.L44:
 363 0030 074A     		ldr	r2, .L49+4
 364 0032 D36B     		ldr	r3, [r2, #60]
 365 0034 8B43     		bics	r3, r1
 366 0036 D363     		str	r3, [r2, #60]
 367 0038 0020     		movs	r0, #0
 368 003a ECE7     		b	.L41
 369              	.L42:
 370 003c 044A     		ldr	r2, .L49+4
 371 003e D36C     		ldr	r3, [r2, #76]
 372 0040 8B43     		bics	r3, r1
 373 0042 D364     		str	r3, [r2, #76]
 374 0044 0020     		movs	r0, #0
 375 0046 E6E7     		b	.L41
 376              	.L48:
 377 0048 0120     		movs	r0, #1
 378 004a E4E7     		b	.L41
 379              	.L50:
 380              		.align	2
 381              	.L49:
 382 004c 00000000 		.word	.L43
 383 0050 00700040 		.word	1073770496
 385              		.section	.text.HAL_PWREx_EnablePullUpPullDownConfig,"ax",%progbits
 386              		.align	1
 387              		.global	HAL_PWREx_EnablePullUpPullDownConfig
 388              		.syntax unified
 389              		.code	16
 390              		.thumb_func
 392              	HAL_PWREx_EnablePullUpPullDownConfig:
 393              		@ args = 0, pretend = 0, frame = 0
 394              		@ frame_needed = 0, uses_anonymous_args = 0
 395              		@ link register save eliminated.
 396 0000 034A     		ldr	r2, .L52
 397 0002 9168     		ldr	r1, [r2, #8]
 398 0004 8023     		movs	r3, #128
 399 0006 DB00     		lsls	r3, r3, #3
 400 0008 0B43     		orrs	r3, r1
 401 000a 9360     		str	r3, [r2, #8]
 402              		@ sp needed
 403 000c 7047     		bx	lr
 404              	.L53:
 405 000e C046     		.align	2
 406              	.L52:
 407 0010 00700040 		.word	1073770496
 409              		.section	.text.HAL_PWREx_DisablePullUpPullDownConfig,"ax",%progbits
 410              		.align	1
 411              		.global	HAL_PWREx_DisablePullUpPullDownConfig
 412              		.syntax unified
 413              		.code	16
ARM GAS  /var/folders/3q/0p8b__hx1wx8zj8b56q9glhc0000gn/T//cctJZ8sK.s 			page 8


 414              		.thumb_func
 416              	HAL_PWREx_DisablePullUpPullDownConfig:
 417              		@ args = 0, pretend = 0, frame = 0
 418              		@ frame_needed = 0, uses_anonymous_args = 0
 419              		@ link register save eliminated.
 420 0000 024A     		ldr	r2, .L55
 421 0002 9368     		ldr	r3, [r2, #8]
 422 0004 0249     		ldr	r1, .L55+4
 423 0006 0B40     		ands	r3, r1
 424 0008 9360     		str	r3, [r2, #8]
 425              		@ sp needed
 426 000a 7047     		bx	lr
 427              	.L56:
 428              		.align	2
 429              	.L55:
 430 000c 00700040 		.word	1073770496
 431 0010 FFFBFFFF 		.word	-1025
 433              		.section	.text.HAL_PWREx_EnableFlashPowerDown,"ax",%progbits
 434              		.align	1
 435              		.global	HAL_PWREx_EnableFlashPowerDown
 436              		.syntax unified
 437              		.code	16
 438              		.thumb_func
 440              	HAL_PWREx_EnableFlashPowerDown:
 441              		@ args = 0, pretend = 0, frame = 0
 442              		@ frame_needed = 0, uses_anonymous_args = 0
 443              		@ link register save eliminated.
 444 0000 024A     		ldr	r2, .L58
 445 0002 1368     		ldr	r3, [r2]
 446 0004 0343     		orrs	r3, r0
 447 0006 1360     		str	r3, [r2]
 448              		@ sp needed
 449 0008 7047     		bx	lr
 450              	.L59:
 451 000a C046     		.align	2
 452              	.L58:
 453 000c 00700040 		.word	1073770496
 455              		.section	.text.HAL_PWREx_DisableFlashPowerDown,"ax",%progbits
 456              		.align	1
 457              		.global	HAL_PWREx_DisableFlashPowerDown
 458              		.syntax unified
 459              		.code	16
 460              		.thumb_func
 462              	HAL_PWREx_DisableFlashPowerDown:
 463              		@ args = 0, pretend = 0, frame = 0
 464              		@ frame_needed = 0, uses_anonymous_args = 0
 465              		@ link register save eliminated.
 466 0000 024A     		ldr	r2, .L61
 467 0002 1368     		ldr	r3, [r2]
 468 0004 8343     		bics	r3, r0
 469 0006 1360     		str	r3, [r2]
 470              		@ sp needed
 471 0008 7047     		bx	lr
 472              	.L62:
 473 000a C046     		.align	2
 474              	.L61:
 475 000c 00700040 		.word	1073770496
ARM GAS  /var/folders/3q/0p8b__hx1wx8zj8b56q9glhc0000gn/T//cctJZ8sK.s 			page 9


 477              		.section	.text.HAL_PWREx_EnterSHUTDOWNMode,"ax",%progbits
 478              		.align	1
 479              		.global	HAL_PWREx_EnterSHUTDOWNMode
 480              		.syntax unified
 481              		.code	16
 482              		.thumb_func
 484              	HAL_PWREx_EnterSHUTDOWNMode:
 485              		@ args = 0, pretend = 0, frame = 0
 486              		@ frame_needed = 0, uses_anonymous_args = 0
 487              		@ link register save eliminated.
 488 0000 064A     		ldr	r2, .L64
 489 0002 1368     		ldr	r3, [r2]
 490 0004 0721     		movs	r1, #7
 491 0006 8B43     		bics	r3, r1
 492 0008 0339     		subs	r1, r1, #3
 493 000a 0B43     		orrs	r3, r1
 494 000c 1360     		str	r3, [r2]
 495 000e 044A     		ldr	r2, .L64+4
 496 0010 1369     		ldr	r3, [r2, #16]
 497 0012 0B43     		orrs	r3, r1
 498 0014 1361     		str	r3, [r2, #16]
 499              		.syntax divided
 500              	@ 495 "Drivers/STM32C0xx_HAL_Driver/Src/stm32c0xx_hal_pwr_ex.c" 1
 501 0016 30BF     		wfi
 502              	@ 0 "" 2
 503              		.thumb
 504              		.syntax unified
 505              		@ sp needed
 506 0018 7047     		bx	lr
 507              	.L65:
 508 001a C046     		.align	2
 509              	.L64:
 510 001c 00700040 		.word	1073770496
 511 0020 00ED00E0 		.word	-536810240
 513              		.section	.text.HAL_PWREx_BKUPWrite,"ax",%progbits
 514              		.align	1
 515              		.global	HAL_PWREx_BKUPWrite
 516              		.syntax unified
 517              		.code	16
 518              		.thumb_func
 520              	HAL_PWREx_BKUPWrite:
 521              		@ args = 0, pretend = 0, frame = 0
 522              		@ frame_needed = 0, uses_anonymous_args = 0
 523              		@ link register save eliminated.
 524 0000 8000     		lsls	r0, r0, #2
 525 0002 024B     		ldr	r3, .L67
 526 0004 9C46     		mov	ip, r3
 527 0006 6044     		add	r0, r0, ip
 528 0008 0160     		str	r1, [r0]
 529              		@ sp needed
 530 000a 7047     		bx	lr
 531              	.L68:
 532              		.align	2
 533              	.L67:
 534 000c 70700040 		.word	1073770608
 536              		.section	.text.HAL_PWREx_BKUPRead,"ax",%progbits
 537              		.align	1
ARM GAS  /var/folders/3q/0p8b__hx1wx8zj8b56q9glhc0000gn/T//cctJZ8sK.s 			page 10


 538              		.global	HAL_PWREx_BKUPRead
 539              		.syntax unified
 540              		.code	16
 541              		.thumb_func
 543              	HAL_PWREx_BKUPRead:
 544              		@ args = 0, pretend = 0, frame = 0
 545              		@ frame_needed = 0, uses_anonymous_args = 0
 546              		@ link register save eliminated.
 547 0000 8000     		lsls	r0, r0, #2
 548 0002 024B     		ldr	r3, .L70
 549 0004 9C46     		mov	ip, r3
 550 0006 6044     		add	r0, r0, ip
 551 0008 0068     		ldr	r0, [r0]
 552              		@ sp needed
 553 000a 7047     		bx	lr
 554              	.L71:
 555              		.align	2
 556              	.L70:
 557 000c 70700040 		.word	1073770608
 559              		.ident	"GCC: (xPack GNU Arm Embedded GCC arm64) 14.2.1 20241119"
ARM GAS  /var/folders/3q/0p8b__hx1wx8zj8b56q9glhc0000gn/T//cctJZ8sK.s 			page 11

