ARM GAS  /var/folders/3q/0p8b__hx1wx8zj8b56q9glhc0000gn/T//ccnJ5ok7.s 			page 1


   1              		.cpu cortex-m0plus
   2              		.arch armv6s-m
   3              		.fpu softvfp
   4              		.eabi_attribute 20, 1
   5              		.eabi_attribute 21, 1
   6              		.eabi_attribute 23, 3
   7              		.eabi_attribute 24, 1
   8              		.eabi_attribute 25, 1
   9              		.eabi_attribute 26, 1
  10              		.eabi_attribute 30, 1
  11              		.eabi_attribute 34, 0
  12              		.eabi_attribute 18, 4
  13              		.file	"stm32c0xx_hal_gpio.c"
  14              		.text
  15              		.section	.text.HAL_GPIO_Init,"ax",%progbits
  16              		.align	1
  17              		.global	HAL_GPIO_Init
  18              		.syntax unified
  19              		.code	16
  20              		.thumb_func
  22              	HAL_GPIO_Init:
  23              		@ args = 0, pretend = 0, frame = 0
  24              		@ frame_needed = 0, uses_anonymous_args = 0
  25 0000 F0B5     		push	{r4, r5, r6, r7, lr}
  26 0002 D646     		mov	lr, r10
  27 0004 4F46     		mov	r7, r9
  28 0006 4646     		mov	r6, r8
  29 0008 C0B5     		push	{r6, r7, lr}
  30 000a 0023     		movs	r3, #0
  31 000c 3BE0     		b	.L2
  32              	.L26:
  33 000e 0525     		movs	r5, #5
  34 0010 00E0     		b	.L9
  35              	.L15:
  36 0012 0025     		movs	r5, #0
  37              	.L9:
  38 0014 A540     		lsls	r5, r5, r4
  39 0016 2C00     		movs	r4, r5
  40 0018 3C43     		orrs	r4, r7
  41 001a 634D     		ldr	r5, .L27
  42 001c 1832     		adds	r2, r2, #24
  43 001e 9200     		lsls	r2, r2, #2
  44 0020 5451     		str	r4, [r2, r5]
  45 0022 8022     		movs	r2, #128
  46 0024 AF58     		ldr	r7, [r5, r2]
  47 0026 4A46     		mov	r2, r9
  48 0028 D243     		mvns	r2, r2
  49 002a 3D00     		movs	r5, r7
  50 002c 4C46     		mov	r4, r9
  51 002e A543     		bics	r5, r4
  52 0030 4C68     		ldr	r4, [r1, #4]
  53 0032 E403     		lsls	r4, r4, #15
  54 0034 02D5     		bpl	.L10
  55 0036 3D00     		movs	r5, r7
  56 0038 4C46     		mov	r4, r9
  57 003a 2543     		orrs	r5, r4
  58              	.L10:
ARM GAS  /var/folders/3q/0p8b__hx1wx8zj8b56q9glhc0000gn/T//ccnJ5ok7.s 			page 2


  59 003c 5A4C     		ldr	r4, .L27
  60 003e 8027     		movs	r7, #128
  61 0040 E551     		str	r5, [r4, r7]
  62 0042 8425     		movs	r5, #132
  63 0044 6759     		ldr	r7, [r4, r5]
  64 0046 3D00     		movs	r5, r7
  65 0048 1540     		ands	r5, r2
  66 004a 4C68     		ldr	r4, [r1, #4]
  67 004c A403     		lsls	r4, r4, #14
  68 004e 02D5     		bpl	.L11
  69 0050 3D00     		movs	r5, r7
  70 0052 4C46     		mov	r4, r9
  71 0054 2543     		orrs	r5, r4
  72              	.L11:
  73 0056 544C     		ldr	r4, .L27
  74 0058 8427     		movs	r7, #132
  75 005a E551     		str	r5, [r4, r7]
  76 005c 2768     		ldr	r7, [r4]
  77 005e 3D00     		movs	r5, r7
  78 0060 1540     		ands	r5, r2
  79 0062 4C68     		ldr	r4, [r1, #4]
  80 0064 E402     		lsls	r4, r4, #11
  81 0066 02D5     		bpl	.L12
  82 0068 3D00     		movs	r5, r7
  83 006a 4C46     		mov	r4, r9
  84 006c 2543     		orrs	r5, r4
  85              	.L12:
  86 006e 4E4C     		ldr	r4, .L27
  87 0070 2560     		str	r5, [r4]
  88 0072 6568     		ldr	r5, [r4, #4]
  89 0074 2A40     		ands	r2, r5
  90 0076 4C68     		ldr	r4, [r1, #4]
  91 0078 A402     		lsls	r4, r4, #10
  92 007a 01D5     		bpl	.L13
  93 007c 4A46     		mov	r2, r9
  94 007e 2A43     		orrs	r2, r5
  95              	.L13:
  96 0080 494C     		ldr	r4, .L27
  97 0082 6260     		str	r2, [r4, #4]
  98              	.L3:
  99 0084 0133     		adds	r3, r3, #1
 100              	.L2:
 101 0086 0C68     		ldr	r4, [r1]
 102 0088 2200     		movs	r2, r4
 103 008a DA40     		lsrs	r2, r2, r3
 104 008c 00D1     		bne	.LCB103
 105 008e 86E0     		b	.L25	@long jump
 106              	.LCB103:
 107 0090 0122     		movs	r2, #1
 108 0092 9A40     		lsls	r2, r2, r3
 109 0094 2600     		movs	r6, r4
 110 0096 1640     		ands	r6, r2
 111 0098 B146     		mov	r9, r6
 112 009a 1442     		tst	r4, r2
 113 009c F2D0     		beq	.L3
 114 009e 4C68     		ldr	r4, [r1, #4]
 115 00a0 022C     		cmp	r4, #2
ARM GAS  /var/folders/3q/0p8b__hx1wx8zj8b56q9glhc0000gn/T//ccnJ5ok7.s 			page 3


 116 00a2 01D0     		beq	.L4
 117 00a4 122C     		cmp	r4, #18
 118 00a6 18D1     		bne	.L5
 119              	.L4:
 120 00a8 DD08     		lsrs	r5, r3, #3
 121 00aa 0835     		adds	r5, r5, #8
 122 00ac AD00     		lsls	r5, r5, #2
 123 00ae 2C58     		ldr	r4, [r5, r0]
 124 00b0 A446     		mov	ip, r4
 125 00b2 0727     		movs	r7, #7
 126 00b4 1F40     		ands	r7, r3
 127 00b6 BF00     		lsls	r7, r7, #2
 128 00b8 0F24     		movs	r4, #15
 129 00ba A246     		mov	r10, r4
 130 00bc 2600     		movs	r6, r4
 131 00be BE40     		lsls	r6, r6, r7
 132 00c0 B046     		mov	r8, r6
 133 00c2 6646     		mov	r6, ip
 134 00c4 4446     		mov	r4, r8
 135 00c6 A643     		bics	r6, r4
 136 00c8 B446     		mov	ip, r6
 137 00ca 0C69     		ldr	r4, [r1, #16]
 138 00cc 5646     		mov	r6, r10
 139 00ce 2640     		ands	r6, r4
 140 00d0 3400     		movs	r4, r6
 141 00d2 BC40     		lsls	r4, r4, r7
 142 00d4 6646     		mov	r6, ip
 143 00d6 3443     		orrs	r4, r6
 144 00d8 2C50     		str	r4, [r5, r0]
 145              	.L5:
 146 00da 0468     		ldr	r4, [r0]
 147 00dc A446     		mov	ip, r4
 148 00de 5D00     		lsls	r5, r3, #1
 149 00e0 0324     		movs	r4, #3
 150 00e2 A246     		mov	r10, r4
 151 00e4 2700     		movs	r7, r4
 152 00e6 AF40     		lsls	r7, r7, r5
 153 00e8 B846     		mov	r8, r7
 154 00ea FF43     		mvns	r7, r7
 155 00ec 6646     		mov	r6, ip
 156 00ee 4446     		mov	r4, r8
 157 00f0 A643     		bics	r6, r4
 158 00f2 B446     		mov	ip, r6
 159 00f4 4C68     		ldr	r4, [r1, #4]
 160 00f6 5646     		mov	r6, r10
 161 00f8 2640     		ands	r6, r4
 162 00fa 3400     		movs	r4, r6
 163 00fc AC40     		lsls	r4, r4, r5
 164 00fe 6646     		mov	r6, ip
 165 0100 3443     		orrs	r4, r6
 166 0102 0460     		str	r4, [r0]
 167 0104 4C68     		ldr	r4, [r1, #4]
 168 0106 661E     		subs	r6, r4, #1
 169 0108 012E     		cmp	r6, #1
 170 010a 03D9     		bls	.L6
 171 010c 112C     		cmp	r4, #17
 172 010e 01D0     		beq	.L6
ARM GAS  /var/folders/3q/0p8b__hx1wx8zj8b56q9glhc0000gn/T//ccnJ5ok7.s 			page 4


 173 0110 122C     		cmp	r4, #18
 174 0112 12D1     		bne	.L7
 175              	.L6:
 176 0114 8468     		ldr	r4, [r0, #8]
 177 0116 3C40     		ands	r4, r7
 178 0118 A446     		mov	ip, r4
 179 011a CC68     		ldr	r4, [r1, #12]
 180 011c AC40     		lsls	r4, r4, r5
 181 011e 6646     		mov	r6, ip
 182 0120 3443     		orrs	r4, r6
 183 0122 8460     		str	r4, [r0, #8]
 184 0124 4468     		ldr	r4, [r0, #4]
 185 0126 9443     		bics	r4, r2
 186 0128 4A68     		ldr	r2, [r1, #4]
 187 012a 1209     		lsrs	r2, r2, #4
 188 012c 9446     		mov	ip, r2
 189 012e 0122     		movs	r2, #1
 190 0130 6646     		mov	r6, ip
 191 0132 3240     		ands	r2, r6
 192 0134 9A40     		lsls	r2, r2, r3
 193 0136 2243     		orrs	r2, r4
 194 0138 4260     		str	r2, [r0, #4]
 195              	.L7:
 196 013a 4A68     		ldr	r2, [r1, #4]
 197 013c 032A     		cmp	r2, #3
 198 013e 05D0     		beq	.L8
 199 0140 C468     		ldr	r4, [r0, #12]
 200 0142 3C40     		ands	r4, r7
 201 0144 8A68     		ldr	r2, [r1, #8]
 202 0146 AA40     		lsls	r2, r2, r5
 203 0148 2243     		orrs	r2, r4
 204 014a C260     		str	r2, [r0, #12]
 205              	.L8:
 206 014c 4A68     		ldr	r2, [r1, #4]
 207 014e D200     		lsls	r2, r2, #3
 208 0150 98D5     		bpl	.L3
 209 0152 9A08     		lsrs	r2, r3, #2
 210 0154 1400     		movs	r4, r2
 211 0156 1834     		adds	r4, r4, #24
 212 0158 A400     		lsls	r4, r4, #2
 213 015a 134D     		ldr	r5, .L27
 214 015c 6759     		ldr	r7, [r4, r5]
 215 015e 0324     		movs	r4, #3
 216 0160 1C40     		ands	r4, r3
 217 0162 E400     		lsls	r4, r4, #3
 218 0164 0F25     		movs	r5, #15
 219 0166 A540     		lsls	r5, r5, r4
 220 0168 AF43     		bics	r7, r5
 221 016a A025     		movs	r5, #160
 222 016c ED05     		lsls	r5, r5, #23
 223 016e A842     		cmp	r0, r5
 224 0170 00D1     		bne	.LCB229
 225 0172 4EE7     		b	.L15	@long jump
 226              	.LCB229:
 227 0174 0D4D     		ldr	r5, .L27+4
 228 0176 A842     		cmp	r0, r5
 229 0178 0BD0     		beq	.L16
ARM GAS  /var/folders/3q/0p8b__hx1wx8zj8b56q9glhc0000gn/T//ccnJ5ok7.s 			page 5


 230 017a 0D4D     		ldr	r5, .L27+8
 231 017c A842     		cmp	r0, r5
 232 017e 0AD0     		beq	.L17
 233 0180 0C4D     		ldr	r5, .L27+12
 234 0182 A842     		cmp	r0, r5
 235 0184 09D0     		beq	.L18
 236 0186 0C4D     		ldr	r5, .L27+16
 237 0188 A842     		cmp	r0, r5
 238 018a 00D1     		bne	.LCB241
 239 018c 3FE7     		b	.L26	@long jump
 240              	.LCB241:
 241 018e 0625     		movs	r5, #6
 242 0190 40E7     		b	.L9
 243              	.L16:
 244 0192 0125     		movs	r5, #1
 245 0194 3EE7     		b	.L9
 246              	.L17:
 247 0196 0225     		movs	r5, #2
 248 0198 3CE7     		b	.L9
 249              	.L18:
 250 019a 0325     		movs	r5, #3
 251 019c 3AE7     		b	.L9
 252              	.L25:
 253              		@ sp needed
 254 019e E0BC     		pop	{r5, r6, r7}
 255 01a0 BA46     		mov	r10, r7
 256 01a2 B146     		mov	r9, r6
 257 01a4 A846     		mov	r8, r5
 258 01a6 F0BD     		pop	{r4, r5, r6, r7, pc}
 259              	.L28:
 260              		.align	2
 261              	.L27:
 262 01a8 00180240 		.word	1073879040
 263 01ac 00040050 		.word	1342178304
 264 01b0 00080050 		.word	1342179328
 265 01b4 000C0050 		.word	1342180352
 266 01b8 00140050 		.word	1342182400
 268              		.section	.text.HAL_GPIO_DeInit,"ax",%progbits
 269              		.align	1
 270              		.global	HAL_GPIO_DeInit
 271              		.syntax unified
 272              		.code	16
 273              		.thumb_func
 275              	HAL_GPIO_DeInit:
 276              		@ args = 0, pretend = 0, frame = 0
 277              		@ frame_needed = 0, uses_anonymous_args = 0
 278 0000 F0B5     		push	{r4, r5, r6, r7, lr}
 279 0002 CE46     		mov	lr, r9
 280 0004 4746     		mov	r7, r8
 281 0006 80B5     		push	{r7, lr}
 282 0008 8946     		mov	r9, r1
 283 000a 0023     		movs	r3, #0
 284 000c 23E0     		b	.L30
 285              	.L42:
 286 000e 0521     		movs	r1, #5
 287 0010 8846     		mov	r8, r1
 288 0012 01E0     		b	.L32
ARM GAS  /var/folders/3q/0p8b__hx1wx8zj8b56q9glhc0000gn/T//ccnJ5ok7.s 			page 6


 289              	.L35:
 290 0014 0021     		movs	r1, #0
 291 0016 8846     		mov	r8, r1
 292              	.L32:
 293 0018 4146     		mov	r1, r8
 294 001a A140     		lsls	r1, r1, r4
 295 001c A942     		cmp	r1, r5
 296 001e 4DD0     		beq	.L40
 297              	.L33:
 298 0020 0468     		ldr	r4, [r0]
 299 0022 5E00     		lsls	r6, r3, #1
 300 0024 0325     		movs	r5, #3
 301 0026 B540     		lsls	r5, r5, r6
 302 0028 2C43     		orrs	r4, r5
 303 002a 0460     		str	r4, [r0]
 304 002c DC08     		lsrs	r4, r3, #3
 305 002e 0834     		adds	r4, r4, #8
 306 0030 A400     		lsls	r4, r4, #2
 307 0032 2758     		ldr	r7, [r4, r0]
 308 0034 0726     		movs	r6, #7
 309 0036 1E40     		ands	r6, r3
 310 0038 B600     		lsls	r6, r6, #2
 311 003a 0F21     		movs	r1, #15
 312 003c B140     		lsls	r1, r1, r6
 313 003e 8F43     		bics	r7, r1
 314 0040 2750     		str	r7, [r4, r0]
 315 0042 8468     		ldr	r4, [r0, #8]
 316 0044 AC43     		bics	r4, r5
 317 0046 8460     		str	r4, [r0, #8]
 318 0048 4468     		ldr	r4, [r0, #4]
 319 004a 9443     		bics	r4, r2
 320 004c 4460     		str	r4, [r0, #4]
 321 004e C268     		ldr	r2, [r0, #12]
 322 0050 AA43     		bics	r2, r5
 323 0052 C260     		str	r2, [r0, #12]
 324              	.L31:
 325 0054 0133     		adds	r3, r3, #1
 326              	.L30:
 327 0056 4A46     		mov	r2, r9
 328 0058 DA40     		lsrs	r2, r2, r3
 329 005a 4BD0     		beq	.L41
 330 005c 0122     		movs	r2, #1
 331 005e 9A40     		lsls	r2, r2, r3
 332 0060 4C46     		mov	r4, r9
 333 0062 1440     		ands	r4, r2
 334 0064 A446     		mov	ip, r4
 335 0066 4946     		mov	r1, r9
 336 0068 1142     		tst	r1, r2
 337 006a F3D0     		beq	.L31
 338 006c 9F08     		lsrs	r7, r3, #2
 339 006e 3C00     		movs	r4, r7
 340 0070 1834     		adds	r4, r4, #24
 341 0072 A400     		lsls	r4, r4, #2
 342 0074 214D     		ldr	r5, .L43
 343 0076 6559     		ldr	r5, [r4, r5]
 344 0078 0326     		movs	r6, #3
 345 007a 1E40     		ands	r6, r3
ARM GAS  /var/folders/3q/0p8b__hx1wx8zj8b56q9glhc0000gn/T//ccnJ5ok7.s 			page 7


 346 007c F400     		lsls	r4, r6, #3
 347 007e 0F26     		movs	r6, #15
 348 0080 A640     		lsls	r6, r6, r4
 349 0082 3540     		ands	r5, r6
 350 0084 A021     		movs	r1, #160
 351 0086 C905     		lsls	r1, r1, #23
 352 0088 8842     		cmp	r0, r1
 353 008a C3D0     		beq	.L35
 354 008c 1C49     		ldr	r1, .L43+4
 355 008e 8842     		cmp	r0, r1
 356 0090 0BD0     		beq	.L36
 357 0092 1C49     		ldr	r1, .L43+8
 358 0094 8842     		cmp	r0, r1
 359 0096 0BD0     		beq	.L37
 360 0098 1B49     		ldr	r1, .L43+12
 361 009a 8842     		cmp	r0, r1
 362 009c 0BD0     		beq	.L38
 363 009e 1B49     		ldr	r1, .L43+16
 364 00a0 8842     		cmp	r0, r1
 365 00a2 B4D0     		beq	.L42
 366 00a4 0621     		movs	r1, #6
 367 00a6 8846     		mov	r8, r1
 368 00a8 B6E7     		b	.L32
 369              	.L36:
 370 00aa 0121     		movs	r1, #1
 371 00ac 8846     		mov	r8, r1
 372 00ae B3E7     		b	.L32
 373              	.L37:
 374 00b0 0221     		movs	r1, #2
 375 00b2 8846     		mov	r8, r1
 376 00b4 B0E7     		b	.L32
 377              	.L38:
 378 00b6 0321     		movs	r1, #3
 379 00b8 8846     		mov	r8, r1
 380 00ba ADE7     		b	.L32
 381              	.L40:
 382 00bc 0F4D     		ldr	r5, .L43
 383 00be 8021     		movs	r1, #128
 384 00c0 8846     		mov	r8, r1
 385 00c2 6C58     		ldr	r4, [r5, r1]
 386 00c4 6146     		mov	r1, ip
 387 00c6 8C43     		bics	r4, r1
 388 00c8 4146     		mov	r1, r8
 389 00ca 6C50     		str	r4, [r5, r1]
 390 00cc 0431     		adds	r1, r1, #4
 391 00ce 8846     		mov	r8, r1
 392 00d0 6C58     		ldr	r4, [r5, r1]
 393 00d2 6146     		mov	r1, ip
 394 00d4 8C43     		bics	r4, r1
 395 00d6 4146     		mov	r1, r8
 396 00d8 6C50     		str	r4, [r5, r1]
 397 00da 2C68     		ldr	r4, [r5]
 398 00dc 6146     		mov	r1, ip
 399 00de 8C43     		bics	r4, r1
 400 00e0 2C60     		str	r4, [r5]
 401 00e2 6C68     		ldr	r4, [r5, #4]
 402 00e4 8C43     		bics	r4, r1
ARM GAS  /var/folders/3q/0p8b__hx1wx8zj8b56q9glhc0000gn/T//ccnJ5ok7.s 			page 8


 403 00e6 6C60     		str	r4, [r5, #4]
 404 00e8 1837     		adds	r7, r7, #24
 405 00ea BC00     		lsls	r4, r7, #2
 406 00ec 6759     		ldr	r7, [r4, r5]
 407 00ee B743     		bics	r7, r6
 408 00f0 6751     		str	r7, [r4, r5]
 409 00f2 95E7     		b	.L33
 410              	.L41:
 411              		@ sp needed
 412 00f4 C0BC     		pop	{r6, r7}
 413 00f6 B946     		mov	r9, r7
 414 00f8 B046     		mov	r8, r6
 415 00fa F0BD     		pop	{r4, r5, r6, r7, pc}
 416              	.L44:
 417              		.align	2
 418              	.L43:
 419 00fc 00180240 		.word	1073879040
 420 0100 00040050 		.word	1342178304
 421 0104 00080050 		.word	1342179328
 422 0108 000C0050 		.word	1342180352
 423 010c 00140050 		.word	1342182400
 425              		.section	.text.HAL_GPIO_ReadPin,"ax",%progbits
 426              		.align	1
 427              		.global	HAL_GPIO_ReadPin
 428              		.syntax unified
 429              		.code	16
 430              		.thumb_func
 432              	HAL_GPIO_ReadPin:
 433              		@ args = 0, pretend = 0, frame = 0
 434              		@ frame_needed = 0, uses_anonymous_args = 0
 435              		@ link register save eliminated.
 436 0000 0369     		ldr	r3, [r0, #16]
 437 0002 0B42     		tst	r3, r1
 438 0004 01D0     		beq	.L47
 439 0006 0120     		movs	r0, #1
 440              	.L46:
 441              		@ sp needed
 442 0008 7047     		bx	lr
 443              	.L47:
 444 000a 0020     		movs	r0, #0
 445 000c FCE7     		b	.L46
 447              		.section	.text.HAL_GPIO_WritePin,"ax",%progbits
 448              		.align	1
 449              		.global	HAL_GPIO_WritePin
 450              		.syntax unified
 451              		.code	16
 452              		.thumb_func
 454              	HAL_GPIO_WritePin:
 455              		@ args = 0, pretend = 0, frame = 0
 456              		@ frame_needed = 0, uses_anonymous_args = 0
 457              		@ link register save eliminated.
 458 0000 002A     		cmp	r2, #0
 459 0002 01D0     		beq	.L49
 460 0004 8161     		str	r1, [r0, #24]
 461              	.L48:
 462              		@ sp needed
 463 0006 7047     		bx	lr
ARM GAS  /var/folders/3q/0p8b__hx1wx8zj8b56q9glhc0000gn/T//ccnJ5ok7.s 			page 9


 464              	.L49:
 465 0008 8162     		str	r1, [r0, #40]
 466 000a FCE7     		b	.L48
 468              		.section	.text.HAL_GPIO_WriteMultipleStatePin,"ax",%progbits
 469              		.align	1
 470              		.global	HAL_GPIO_WriteMultipleStatePin
 471              		.syntax unified
 472              		.code	16
 473              		.thumb_func
 475              	HAL_GPIO_WriteMultipleStatePin:
 476              		@ args = 0, pretend = 0, frame = 0
 477              		@ frame_needed = 0, uses_anonymous_args = 0
 478              		@ link register save eliminated.
 479 0000 0904     		lsls	r1, r1, #16
 480 0002 1143     		orrs	r1, r2
 481 0004 8161     		str	r1, [r0, #24]
 482              		@ sp needed
 483 0006 7047     		bx	lr
 485              		.section	.text.HAL_GPIO_TogglePin,"ax",%progbits
 486              		.align	1
 487              		.global	HAL_GPIO_TogglePin
 488              		.syntax unified
 489              		.code	16
 490              		.thumb_func
 492              	HAL_GPIO_TogglePin:
 493              		@ args = 0, pretend = 0, frame = 0
 494              		@ frame_needed = 0, uses_anonymous_args = 0
 495              		@ link register save eliminated.
 496 0000 4269     		ldr	r2, [r0, #20]
 497 0002 1300     		movs	r3, r2
 498 0004 0B40     		ands	r3, r1
 499 0006 1B04     		lsls	r3, r3, #16
 500 0008 9143     		bics	r1, r2
 501 000a 0B43     		orrs	r3, r1
 502 000c 8361     		str	r3, [r0, #24]
 503              		@ sp needed
 504 000e 7047     		bx	lr
 506              		.section	.text.HAL_GPIO_LockPin,"ax",%progbits
 507              		.align	1
 508              		.global	HAL_GPIO_LockPin
 509              		.syntax unified
 510              		.code	16
 511              		.thumb_func
 513              	HAL_GPIO_LockPin:
 514              		@ args = 0, pretend = 0, frame = 8
 515              		@ frame_needed = 0, uses_anonymous_args = 0
 516              		@ link register save eliminated.
 517 0000 82B0     		sub	sp, sp, #8
 518 0002 8022     		movs	r2, #128
 519 0004 5202     		lsls	r2, r2, #9
 520 0006 0192     		str	r2, [sp, #4]
 521 0008 019B     		ldr	r3, [sp, #4]
 522 000a 0B43     		orrs	r3, r1
 523 000c 0193     		str	r3, [sp, #4]
 524 000e 019B     		ldr	r3, [sp, #4]
 525 0010 C361     		str	r3, [r0, #28]
 526 0012 C161     		str	r1, [r0, #28]
ARM GAS  /var/folders/3q/0p8b__hx1wx8zj8b56q9glhc0000gn/T//ccnJ5ok7.s 			page 10


 527 0014 019B     		ldr	r3, [sp, #4]
 528 0016 C361     		str	r3, [r0, #28]
 529 0018 C369     		ldr	r3, [r0, #28]
 530 001a 0193     		str	r3, [sp, #4]
 531 001c C369     		ldr	r3, [r0, #28]
 532 001e 1342     		tst	r3, r2
 533 0020 02D0     		beq	.L55
 534 0022 0020     		movs	r0, #0
 535              	.L54:
 536 0024 02B0     		add	sp, sp, #8
 537              		@ sp needed
 538 0026 7047     		bx	lr
 539              	.L55:
 540 0028 0120     		movs	r0, #1
 541 002a FBE7     		b	.L54
 543              		.section	.text.HAL_GPIO_EXTI_Rising_Callback,"ax",%progbits
 544              		.align	1
 545              		.weak	HAL_GPIO_EXTI_Rising_Callback
 546              		.syntax unified
 547              		.code	16
 548              		.thumb_func
 550              	HAL_GPIO_EXTI_Rising_Callback:
 551              		@ args = 0, pretend = 0, frame = 0
 552              		@ frame_needed = 0, uses_anonymous_args = 0
 553              		@ link register save eliminated.
 554              		@ sp needed
 555 0000 7047     		bx	lr
 557              		.section	.text.HAL_GPIO_EXTI_Falling_Callback,"ax",%progbits
 558              		.align	1
 559              		.weak	HAL_GPIO_EXTI_Falling_Callback
 560              		.syntax unified
 561              		.code	16
 562              		.thumb_func
 564              	HAL_GPIO_EXTI_Falling_Callback:
 565              		@ args = 0, pretend = 0, frame = 0
 566              		@ frame_needed = 0, uses_anonymous_args = 0
 567              		@ link register save eliminated.
 568              		@ sp needed
 569 0000 7047     		bx	lr
 571              		.section	.text.HAL_GPIO_EXTI_IRQHandler,"ax",%progbits
 572              		.align	1
 573              		.global	HAL_GPIO_EXTI_IRQHandler
 574              		.syntax unified
 575              		.code	16
 576              		.thumb_func
 578              	HAL_GPIO_EXTI_IRQHandler:
 579              		@ args = 0, pretend = 0, frame = 0
 580              		@ frame_needed = 0, uses_anonymous_args = 0
 581 0000 10B5     		push	{r4, lr}
 582 0002 0400     		movs	r4, r0
 583 0004 094B     		ldr	r3, .L63
 584 0006 DB68     		ldr	r3, [r3, #12]
 585 0008 1842     		tst	r0, r3
 586 000a 04D1     		bne	.L61
 587              	.L59:
 588 000c 074B     		ldr	r3, .L63
 589 000e 1B69     		ldr	r3, [r3, #16]
ARM GAS  /var/folders/3q/0p8b__hx1wx8zj8b56q9glhc0000gn/T//ccnJ5ok7.s 			page 11


 590 0010 2342     		tst	r3, r4
 591 0012 05D1     		bne	.L62
 592              	.L58:
 593              		@ sp needed
 594 0014 10BD     		pop	{r4, pc}
 595              	.L61:
 596 0016 054B     		ldr	r3, .L63
 597 0018 D860     		str	r0, [r3, #12]
 598 001a FFF7FEFF 		bl	HAL_GPIO_EXTI_Rising_Callback
 599 001e F5E7     		b	.L59
 600              	.L62:
 601 0020 024B     		ldr	r3, .L63
 602 0022 1C61     		str	r4, [r3, #16]
 603 0024 2000     		movs	r0, r4
 604 0026 FFF7FEFF 		bl	HAL_GPIO_EXTI_Falling_Callback
 605 002a F3E7     		b	.L58
 606              	.L64:
 607              		.align	2
 608              	.L63:
 609 002c 00180240 		.word	1073879040
 611              		.ident	"GCC: (xPack GNU Arm Embedded GCC arm64) 14.2.1 20241119"
ARM GAS  /var/folders/3q/0p8b__hx1wx8zj8b56q9glhc0000gn/T//ccnJ5ok7.s 			page 12

