ARM GAS  /var/folders/3q/0p8b__hx1wx8zj8b56q9glhc0000gn/T//cc0fDTRw.s 			page 1


   1              		.cpu cortex-m0plus
   2              		.arch armv6s-m
   3              		.fpu softvfp
   4              		.eabi_attribute 20, 1
   5              		.eabi_attribute 21, 1
   6              		.eabi_attribute 23, 3
   7              		.eabi_attribute 24, 1
   8              		.eabi_attribute 25, 1
   9              		.eabi_attribute 26, 1
  10              		.eabi_attribute 30, 1
  11              		.eabi_attribute 34, 0
  12              		.eabi_attribute 18, 4
  13              		.file	"stm32c0xx_hal_exti.c"
  14              		.text
  15              		.section	.text.HAL_EXTI_SetConfigLine,"ax",%progbits
  16              		.align	1
  17              		.global	HAL_EXTI_SetConfigLine
  18              		.syntax unified
  19              		.code	16
  20              		.thumb_func
  22              	HAL_EXTI_SetConfigLine:
  23              		@ args = 0, pretend = 0, frame = 0
  24              		@ frame_needed = 0, uses_anonymous_args = 0
  25 0000 F0B5     		push	{r4, r5, r6, r7, lr}
  26 0002 C646     		mov	lr, r8
  27 0004 00B5     		push	{lr}
  28 0006 0028     		cmp	r0, #0
  29 0008 56D0     		beq	.L12
  30 000a 0029     		cmp	r1, #0
  31 000c 56D0     		beq	.L13
  32 000e 0C68     		ldr	r4, [r1]
  33 0010 0460     		str	r4, [r0]
  34 0012 230C     		lsrs	r3, r4, #16
  35 0014 0122     		movs	r2, #1
  36 0016 1340     		ands	r3, r2
  37 0018 1F20     		movs	r0, #31
  38 001a 2040     		ands	r0, r4
  39 001c 8240     		lsls	r2, r2, r0
  40 001e A501     		lsls	r5, r4, #6
  41 0020 19D5     		bpl	.L3
  42 0022 5D01     		lsls	r5, r3, #5
  43 0024 264E     		ldr	r6, .L16
  44 0026 AF19     		adds	r7, r5, r6
  45 0028 3E68     		ldr	r6, [r7]
  46 002a B046     		mov	r8, r6
  47 002c 8E68     		ldr	r6, [r1, #8]
  48 002e F607     		lsls	r6, r6, #31
  49 0030 27D5     		bpl	.L4
  50 0032 4646     		mov	r6, r8
  51 0034 1643     		orrs	r6, r2
  52              	.L5:
  53 0036 3E60     		str	r6, [r7]
  54 0038 224E     		ldr	r6, .L16+4
  55 003a B446     		mov	ip, r6
  56 003c 6544     		add	r5, r5, ip
  57 003e 2E68     		ldr	r6, [r5]
  58 0040 8F68     		ldr	r7, [r1, #8]
ARM GAS  /var/folders/3q/0p8b__hx1wx8zj8b56q9glhc0000gn/T//cc0fDTRw.s 			page 2


  59 0042 BF07     		lsls	r7, r7, #30
  60 0044 20D5     		bpl	.L6
  61 0046 1643     		orrs	r6, r2
  62              	.L7:
  63 0048 2E60     		str	r6, [r5]
  64 004a 0D68     		ldr	r5, [r1]
  65 004c C026     		movs	r6, #192
  66 004e F604     		lsls	r6, r6, #19
  67 0050 3540     		ands	r5, r6
  68 0052 B542     		cmp	r5, r6
  69 0054 1AD0     		beq	.L15
  70              	.L3:
  71 0056 1B01     		lsls	r3, r3, #4
  72 0058 1B48     		ldr	r0, .L16+8
  73 005a 1C18     		adds	r4, r3, r0
  74 005c 2068     		ldr	r0, [r4]
  75 005e 4D68     		ldr	r5, [r1, #4]
  76 0060 ED07     		lsls	r5, r5, #31
  77 0062 25D5     		bpl	.L8
  78 0064 1043     		orrs	r0, r2
  79              	.L9:
  80 0066 2060     		str	r0, [r4]
  81 0068 1848     		ldr	r0, .L16+12
  82 006a 8446     		mov	ip, r0
  83 006c 6344     		add	r3, r3, ip
  84 006e 1868     		ldr	r0, [r3]
  85 0070 4968     		ldr	r1, [r1, #4]
  86 0072 8907     		lsls	r1, r1, #30
  87 0074 1ED5     		bpl	.L10
  88 0076 1043     		orrs	r0, r2
  89              	.L11:
  90 0078 1860     		str	r0, [r3]
  91 007a 0020     		movs	r0, #0
  92              	.L2:
  93              		@ sp needed
  94 007c 80BC     		pop	{r7}
  95 007e B846     		mov	r8, r7
  96 0080 F0BD     		pop	{r4, r5, r6, r7, pc}
  97              	.L4:
  98 0082 4646     		mov	r6, r8
  99 0084 9643     		bics	r6, r2
 100 0086 D6E7     		b	.L5
 101              	.L6:
 102 0088 9643     		bics	r6, r2
 103 008a DDE7     		b	.L7
 104              	.L15:
 105 008c 8008     		lsrs	r0, r0, #2
 106 008e 0325     		movs	r5, #3
 107 0090 2840     		ands	r0, r5
 108 0092 0B4E     		ldr	r6, .L16
 109 0094 1830     		adds	r0, r0, #24
 110 0096 8000     		lsls	r0, r0, #2
 111 0098 8759     		ldr	r7, [r0, r6]
 112 009a 2C40     		ands	r4, r5
 113 009c E400     		lsls	r4, r4, #3
 114 009e 0435     		adds	r5, r5, #4
 115 00a0 A540     		lsls	r5, r5, r4
ARM GAS  /var/folders/3q/0p8b__hx1wx8zj8b56q9glhc0000gn/T//cc0fDTRw.s 			page 3


 116 00a2 AF43     		bics	r7, r5
 117 00a4 CD68     		ldr	r5, [r1, #12]
 118 00a6 A540     		lsls	r5, r5, r4
 119 00a8 2C00     		movs	r4, r5
 120 00aa 3C43     		orrs	r4, r7
 121 00ac 8451     		str	r4, [r0, r6]
 122 00ae D2E7     		b	.L3
 123              	.L8:
 124 00b0 9043     		bics	r0, r2
 125 00b2 D8E7     		b	.L9
 126              	.L10:
 127 00b4 9043     		bics	r0, r2
 128 00b6 DFE7     		b	.L11
 129              	.L12:
 130 00b8 0120     		movs	r0, #1
 131 00ba DFE7     		b	.L2
 132              	.L13:
 133 00bc 0120     		movs	r0, #1
 134 00be DDE7     		b	.L2
 135              	.L17:
 136              		.align	2
 137              	.L16:
 138 00c0 00180240 		.word	1073879040
 139 00c4 04180240 		.word	1073879044
 140 00c8 80180240 		.word	1073879168
 141 00cc 84180240 		.word	1073879172
 143              		.section	.text.HAL_EXTI_GetConfigLine,"ax",%progbits
 144              		.align	1
 145              		.global	HAL_EXTI_GetConfigLine
 146              		.syntax unified
 147              		.code	16
 148              		.thumb_func
 150              	HAL_EXTI_GetConfigLine:
 151              		@ args = 0, pretend = 0, frame = 0
 152              		@ frame_needed = 0, uses_anonymous_args = 0
 153 0000 70B5     		push	{r4, r5, r6, lr}
 154 0002 0028     		cmp	r0, #0
 155 0004 4DD0     		beq	.L25
 156 0006 0029     		cmp	r1, #0
 157 0008 4DD0     		beq	.L26
 158 000a 0468     		ldr	r4, [r0]
 159 000c 0C60     		str	r4, [r1]
 160 000e 220C     		lsrs	r2, r4, #16
 161 0010 0123     		movs	r3, #1
 162 0012 1A40     		ands	r2, r3
 163 0014 1F25     		movs	r5, #31
 164 0016 2540     		ands	r5, r4
 165 0018 AB40     		lsls	r3, r3, r5
 166 001a 1001     		lsls	r0, r2, #4
 167 001c 244E     		ldr	r6, .L30
 168 001e 8619     		adds	r6, r0, r6
 169 0020 3668     		ldr	r6, [r6]
 170 0022 1E42     		tst	r6, r3
 171 0024 2AD0     		beq	.L20
 172 0026 0126     		movs	r6, #1
 173 0028 4E60     		str	r6, [r1, #4]
 174              	.L21:
ARM GAS  /var/folders/3q/0p8b__hx1wx8zj8b56q9glhc0000gn/T//cc0fDTRw.s 			page 4


 175 002a 224E     		ldr	r6, .L30+4
 176 002c B446     		mov	ip, r6
 177 002e 6044     		add	r0, r0, ip
 178 0030 0068     		ldr	r0, [r0]
 179 0032 1842     		tst	r0, r3
 180 0034 03D0     		beq	.L22
 181 0036 4868     		ldr	r0, [r1, #4]
 182 0038 0226     		movs	r6, #2
 183 003a 3043     		orrs	r0, r6
 184 003c 4860     		str	r0, [r1, #4]
 185              	.L22:
 186 003e A001     		lsls	r0, r4, #6
 187 0040 33D5     		bpl	.L27
 188 0042 5201     		lsls	r2, r2, #5
 189 0044 1C48     		ldr	r0, .L30+8
 190 0046 1018     		adds	r0, r2, r0
 191 0048 0668     		ldr	r6, [r0]
 192 004a 0020     		movs	r0, #0
 193 004c 8860     		str	r0, [r1, #8]
 194 004e C860     		str	r0, [r1, #12]
 195 0050 1E42     		tst	r6, r3
 196 0052 01D0     		beq	.L23
 197 0054 0130     		adds	r0, r0, #1
 198 0056 8860     		str	r0, [r1, #8]
 199              	.L23:
 200 0058 1848     		ldr	r0, .L30+12
 201 005a 8446     		mov	ip, r0
 202 005c 6244     		add	r2, r2, ip
 203 005e 1268     		ldr	r2, [r2]
 204 0060 1A42     		tst	r2, r3
 205 0062 03D0     		beq	.L24
 206 0064 8B68     		ldr	r3, [r1, #8]
 207 0066 0222     		movs	r2, #2
 208 0068 1343     		orrs	r3, r2
 209 006a 8B60     		str	r3, [r1, #8]
 210              	.L24:
 211 006c C023     		movs	r3, #192
 212 006e DB04     		lsls	r3, r3, #19
 213 0070 2200     		movs	r2, r4
 214 0072 1A40     		ands	r2, r3
 215 0074 9A42     		cmp	r2, r3
 216 0076 04D0     		beq	.L29
 217 0078 0020     		movs	r0, #0
 218 007a 17E0     		b	.L19
 219              	.L20:
 220 007c 0026     		movs	r6, #0
 221 007e 4E60     		str	r6, [r1, #4]
 222 0080 D3E7     		b	.L21
 223              	.L29:
 224 0082 AB08     		lsrs	r3, r5, #2
 225 0084 0322     		movs	r2, #3
 226 0086 1340     		ands	r3, r2
 227 0088 1833     		adds	r3, r3, #24
 228 008a 9B00     		lsls	r3, r3, #2
 229 008c 0A48     		ldr	r0, .L30+8
 230 008e 1B58     		ldr	r3, [r3, r0]
 231 0090 2240     		ands	r2, r4
ARM GAS  /var/folders/3q/0p8b__hx1wx8zj8b56q9glhc0000gn/T//cc0fDTRw.s 			page 5


 232 0092 D200     		lsls	r2, r2, #3
 233 0094 D340     		lsrs	r3, r3, r2
 234 0096 1A00     		movs	r2, r3
 235 0098 0723     		movs	r3, #7
 236 009a 1340     		ands	r3, r2
 237 009c CB60     		str	r3, [r1, #12]
 238 009e 0020     		movs	r0, #0
 239 00a0 04E0     		b	.L19
 240              	.L25:
 241 00a2 0120     		movs	r0, #1
 242 00a4 02E0     		b	.L19
 243              	.L26:
 244 00a6 0120     		movs	r0, #1
 245 00a8 00E0     		b	.L19
 246              	.L27:
 247 00aa 0020     		movs	r0, #0
 248              	.L19:
 249              		@ sp needed
 250 00ac 70BD     		pop	{r4, r5, r6, pc}
 251              	.L31:
 252 00ae C046     		.align	2
 253              	.L30:
 254 00b0 80180240 		.word	1073879168
 255 00b4 84180240 		.word	1073879172
 256 00b8 00180240 		.word	1073879040
 257 00bc 04180240 		.word	1073879044
 259              		.section	.text.HAL_EXTI_ClearConfigLine,"ax",%progbits
 260              		.align	1
 261              		.global	HAL_EXTI_ClearConfigLine
 262              		.syntax unified
 263              		.code	16
 264              		.thumb_func
 266              	HAL_EXTI_ClearConfigLine:
 267              		@ args = 0, pretend = 0, frame = 0
 268              		@ frame_needed = 0, uses_anonymous_args = 0
 269 0000 F0B5     		push	{r4, r5, r6, r7, lr}
 270 0002 C646     		mov	lr, r8
 271 0004 00B5     		push	{lr}
 272 0006 0028     		cmp	r0, #0
 273 0008 3ED0     		beq	.L34
 274 000a 0668     		ldr	r6, [r0]
 275 000c 330C     		lsrs	r3, r6, #16
 276 000e 0122     		movs	r2, #1
 277 0010 1340     		ands	r3, r2
 278 0012 1F24     		movs	r4, #31
 279 0014 3440     		ands	r4, r6
 280 0016 A240     		lsls	r2, r2, r4
 281 0018 1901     		lsls	r1, r3, #4
 282 001a 1E4D     		ldr	r5, .L38
 283 001c AC46     		mov	ip, r5
 284 001e 8C44     		add	ip, ip, r1
 285 0020 6546     		mov	r5, ip
 286 0022 2D68     		ldr	r5, [r5]
 287 0024 D743     		mvns	r7, r2
 288 0026 B846     		mov	r8, r7
 289 0028 9543     		bics	r5, r2
 290 002a 6746     		mov	r7, ip
ARM GAS  /var/folders/3q/0p8b__hx1wx8zj8b56q9glhc0000gn/T//cc0fDTRw.s 			page 6


 291 002c 3D60     		str	r5, [r7]
 292 002e 1A4D     		ldr	r5, .L38+4
 293 0030 AC46     		mov	ip, r5
 294 0032 6144     		add	r1, r1, ip
 295 0034 0D68     		ldr	r5, [r1]
 296 0036 9543     		bics	r5, r2
 297 0038 0D60     		str	r5, [r1]
 298 003a 0268     		ldr	r2, [r0]
 299 003c 9201     		lsls	r2, r2, #6
 300 003e 25D5     		bpl	.L35
 301 0040 5B01     		lsls	r3, r3, #5
 302 0042 164A     		ldr	r2, .L38+8
 303 0044 9918     		adds	r1, r3, r2
 304 0046 0A68     		ldr	r2, [r1]
 305 0048 4546     		mov	r5, r8
 306 004a 2A40     		ands	r2, r5
 307 004c 0A60     		str	r2, [r1]
 308 004e 144A     		ldr	r2, .L38+12
 309 0050 9446     		mov	ip, r2
 310 0052 6344     		add	r3, r3, ip
 311 0054 1A68     		ldr	r2, [r3]
 312 0056 2A40     		ands	r2, r5
 313 0058 1A60     		str	r2, [r3]
 314 005a 0368     		ldr	r3, [r0]
 315 005c C022     		movs	r2, #192
 316 005e D204     		lsls	r2, r2, #19
 317 0060 1340     		ands	r3, r2
 318 0062 9342     		cmp	r3, r2
 319 0064 01D0     		beq	.L37
 320 0066 0020     		movs	r0, #0
 321 0068 11E0     		b	.L33
 322              	.L37:
 323 006a A408     		lsrs	r4, r4, #2
 324 006c 0323     		movs	r3, #3
 325 006e 1C40     		ands	r4, r3
 326 0070 0A48     		ldr	r0, .L38+8
 327 0072 1834     		adds	r4, r4, #24
 328 0074 A400     		lsls	r4, r4, #2
 329 0076 2258     		ldr	r2, [r4, r0]
 330 0078 3340     		ands	r3, r6
 331 007a DB00     		lsls	r3, r3, #3
 332 007c 0721     		movs	r1, #7
 333 007e 9940     		lsls	r1, r1, r3
 334 0080 8A43     		bics	r2, r1
 335 0082 2250     		str	r2, [r4, r0]
 336 0084 0020     		movs	r0, #0
 337 0086 02E0     		b	.L33
 338              	.L34:
 339 0088 0120     		movs	r0, #1
 340 008a 00E0     		b	.L33
 341              	.L35:
 342 008c 0020     		movs	r0, #0
 343              	.L33:
 344              		@ sp needed
 345 008e 80BC     		pop	{r7}
 346 0090 B846     		mov	r8, r7
 347 0092 F0BD     		pop	{r4, r5, r6, r7, pc}
ARM GAS  /var/folders/3q/0p8b__hx1wx8zj8b56q9glhc0000gn/T//cc0fDTRw.s 			page 7


 348              	.L39:
 349              		.align	2
 350              	.L38:
 351 0094 80180240 		.word	1073879168
 352 0098 84180240 		.word	1073879172
 353 009c 00180240 		.word	1073879040
 354 00a0 04180240 		.word	1073879044
 356              		.section	.text.HAL_EXTI_RegisterCallback,"ax",%progbits
 357              		.align	1
 358              		.global	HAL_EXTI_RegisterCallback
 359              		.syntax unified
 360              		.code	16
 361              		.thumb_func
 363              	HAL_EXTI_RegisterCallback:
 364              		@ args = 0, pretend = 0, frame = 0
 365              		@ frame_needed = 0, uses_anonymous_args = 0
 366              		@ link register save eliminated.
 367 0000 0129     		cmp	r1, #1
 368 0002 07D0     		beq	.L41
 369 0004 0229     		cmp	r1, #2
 370 0006 08D0     		beq	.L42
 371 0008 0029     		cmp	r1, #0
 372 000a 09D1     		bne	.L44
 373 000c 4260     		str	r2, [r0, #4]
 374 000e 8260     		str	r2, [r0, #8]
 375 0010 0800     		movs	r0, r1
 376              	.L43:
 377              		@ sp needed
 378 0012 7047     		bx	lr
 379              	.L41:
 380 0014 4260     		str	r2, [r0, #4]
 381 0016 0020     		movs	r0, #0
 382 0018 FBE7     		b	.L43
 383              	.L42:
 384 001a 8260     		str	r2, [r0, #8]
 385 001c 0020     		movs	r0, #0
 386 001e F8E7     		b	.L43
 387              	.L44:
 388 0020 0120     		movs	r0, #1
 389 0022 F6E7     		b	.L43
 391              		.section	.text.HAL_EXTI_GetHandle,"ax",%progbits
 392              		.align	1
 393              		.global	HAL_EXTI_GetHandle
 394              		.syntax unified
 395              		.code	16
 396              		.thumb_func
 398              	HAL_EXTI_GetHandle:
 399              		@ args = 0, pretend = 0, frame = 0
 400              		@ frame_needed = 0, uses_anonymous_args = 0
 401              		@ link register save eliminated.
 402 0000 0028     		cmp	r0, #0
 403 0002 02D0     		beq	.L47
 404 0004 0160     		str	r1, [r0]
 405 0006 0020     		movs	r0, #0
 406              	.L46:
 407              		@ sp needed
 408 0008 7047     		bx	lr
ARM GAS  /var/folders/3q/0p8b__hx1wx8zj8b56q9glhc0000gn/T//cc0fDTRw.s 			page 8


 409              	.L47:
 410 000a 0120     		movs	r0, #1
 411 000c FCE7     		b	.L46
 413              		.section	.text.HAL_EXTI_IRQHandler,"ax",%progbits
 414              		.align	1
 415              		.global	HAL_EXTI_IRQHandler
 416              		.syntax unified
 417              		.code	16
 418              		.thumb_func
 420              	HAL_EXTI_IRQHandler:
 421              		@ args = 0, pretend = 0, frame = 0
 422              		@ frame_needed = 0, uses_anonymous_args = 0
 423 0000 70B5     		push	{r4, r5, r6, lr}
 424 0002 0600     		movs	r6, r0
 425 0004 0268     		ldr	r2, [r0]
 426 0006 140C     		lsrs	r4, r2, #16
 427 0008 0125     		movs	r5, #1
 428 000a 2C40     		ands	r4, r5
 429 000c 1F23     		movs	r3, #31
 430 000e 1340     		ands	r3, r2
 431 0010 9D40     		lsls	r5, r5, r3
 432 0012 6401     		lsls	r4, r4, #5
 433 0014 0A4B     		ldr	r3, .L51
 434 0016 E318     		adds	r3, r4, r3
 435 0018 1A68     		ldr	r2, [r3]
 436 001a 1542     		tst	r5, r2
 437 001c 04D0     		beq	.L49
 438 001e 1D60     		str	r5, [r3]
 439 0020 4368     		ldr	r3, [r0, #4]
 440 0022 002B     		cmp	r3, #0
 441 0024 00D0     		beq	.L49
 442 0026 9847     		blx	r3
 443              	.L49:
 444 0028 064B     		ldr	r3, .L51+4
 445 002a 9C46     		mov	ip, r3
 446 002c 6444     		add	r4, r4, ip
 447 002e 2368     		ldr	r3, [r4]
 448 0030 1D42     		tst	r5, r3
 449 0032 04D0     		beq	.L48
 450 0034 2560     		str	r5, [r4]
 451 0036 B368     		ldr	r3, [r6, #8]
 452 0038 002B     		cmp	r3, #0
 453 003a 00D0     		beq	.L48
 454 003c 9847     		blx	r3
 455              	.L48:
 456              		@ sp needed
 457 003e 70BD     		pop	{r4, r5, r6, pc}
 458              	.L52:
 459              		.align	2
 460              	.L51:
 461 0040 0C180240 		.word	1073879052
 462 0044 10180240 		.word	1073879056
 464              		.section	.text.HAL_EXTI_GetPending,"ax",%progbits
 465              		.align	1
 466              		.global	HAL_EXTI_GetPending
 467              		.syntax unified
 468              		.code	16
ARM GAS  /var/folders/3q/0p8b__hx1wx8zj8b56q9glhc0000gn/T//cc0fDTRw.s 			page 9


 469              		.thumb_func
 471              	HAL_EXTI_GetPending:
 472              		@ args = 0, pretend = 0, frame = 0
 473              		@ frame_needed = 0, uses_anonymous_args = 0
 474 0000 10B5     		push	{r4, lr}
 475 0002 0468     		ldr	r4, [r0]
 476 0004 230C     		lsrs	r3, r4, #16
 477 0006 0120     		movs	r0, #1
 478 0008 0340     		ands	r3, r0
 479 000a 1F22     		movs	r2, #31
 480 000c 2240     		ands	r2, r4
 481 000e 9040     		lsls	r0, r0, r2
 482 0010 0129     		cmp	r1, #1
 483 0012 07D0     		beq	.L54
 484 0014 5B01     		lsls	r3, r3, #5
 485 0016 0649     		ldr	r1, .L56
 486 0018 8C46     		mov	ip, r1
 487 001a 6344     		add	r3, r3, ip
 488              	.L55:
 489 001c 1B68     		ldr	r3, [r3]
 490 001e 1840     		ands	r0, r3
 491 0020 D040     		lsrs	r0, r0, r2
 492              		@ sp needed
 493 0022 10BD     		pop	{r4, pc}
 494              	.L54:
 495 0024 5B01     		lsls	r3, r3, #5
 496 0026 0349     		ldr	r1, .L56+4
 497 0028 8C46     		mov	ip, r1
 498 002a 6344     		add	r3, r3, ip
 499 002c F6E7     		b	.L55
 500              	.L57:
 501 002e C046     		.align	2
 502              	.L56:
 503 0030 10180240 		.word	1073879056
 504 0034 0C180240 		.word	1073879052
 506              		.section	.text.HAL_EXTI_ClearPending,"ax",%progbits
 507              		.align	1
 508              		.global	HAL_EXTI_ClearPending
 509              		.syntax unified
 510              		.code	16
 511              		.thumb_func
 513              	HAL_EXTI_ClearPending:
 514              		@ args = 0, pretend = 0, frame = 0
 515              		@ frame_needed = 0, uses_anonymous_args = 0
 516 0000 10B5     		push	{r4, lr}
 517 0002 0468     		ldr	r4, [r0]
 518 0004 230C     		lsrs	r3, r4, #16
 519 0006 0122     		movs	r2, #1
 520 0008 1340     		ands	r3, r2
 521 000a 1F20     		movs	r0, #31
 522 000c 2040     		ands	r0, r4
 523 000e 8240     		lsls	r2, r2, r0
 524 0010 0129     		cmp	r1, #1
 525 0012 05D0     		beq	.L59
 526 0014 5B01     		lsls	r3, r3, #5
 527 0016 0549     		ldr	r1, .L61
 528 0018 8C46     		mov	ip, r1
ARM GAS  /var/folders/3q/0p8b__hx1wx8zj8b56q9glhc0000gn/T//cc0fDTRw.s 			page 10


 529 001a 6344     		add	r3, r3, ip
 530              	.L60:
 531 001c 1A60     		str	r2, [r3]
 532              		@ sp needed
 533 001e 10BD     		pop	{r4, pc}
 534              	.L59:
 535 0020 5B01     		lsls	r3, r3, #5
 536 0022 0349     		ldr	r1, .L61+4
 537 0024 8C46     		mov	ip, r1
 538 0026 6344     		add	r3, r3, ip
 539 0028 F8E7     		b	.L60
 540              	.L62:
 541 002a C046     		.align	2
 542              	.L61:
 543 002c 10180240 		.word	1073879056
 544 0030 0C180240 		.word	1073879052
 546              		.section	.text.HAL_EXTI_GenerateSWI,"ax",%progbits
 547              		.align	1
 548              		.global	HAL_EXTI_GenerateSWI
 549              		.syntax unified
 550              		.code	16
 551              		.thumb_func
 553              	HAL_EXTI_GenerateSWI:
 554              		@ args = 0, pretend = 0, frame = 0
 555              		@ frame_needed = 0, uses_anonymous_args = 0
 556              		@ link register save eliminated.
 557 0000 0068     		ldr	r0, [r0]
 558 0002 030C     		lsrs	r3, r0, #16
 559 0004 0122     		movs	r2, #1
 560 0006 1340     		ands	r3, r2
 561 0008 1F21     		movs	r1, #31
 562 000a 0140     		ands	r1, r0
 563 000c 8A40     		lsls	r2, r2, r1
 564 000e 5B01     		lsls	r3, r3, #5
 565 0010 0249     		ldr	r1, .L64
 566 0012 8C46     		mov	ip, r1
 567 0014 6344     		add	r3, r3, ip
 568 0016 1A60     		str	r2, [r3]
 569              		@ sp needed
 570 0018 7047     		bx	lr
 571              	.L65:
 572 001a C046     		.align	2
 573              	.L64:
 574 001c 08180240 		.word	1073879048
 576              		.ident	"GCC: (xPack GNU Arm Embedded GCC arm64) 14.2.1 20241119"
ARM GAS  /var/folders/3q/0p8b__hx1wx8zj8b56q9glhc0000gn/T//cc0fDTRw.s 			page 11

